Archive member included because of file (symbol)

/usr/lib/gcc/arm-none-eabi/4.8.2/../../../arm-none-eabi/lib/armv7-m/libg.a(lib_a-memcpy.o)
                              /tmp/cclQzAuq.o (memcpy)
/usr/lib/gcc/arm-none-eabi/4.8.2/../../../arm-none-eabi/lib/armv7-m/libg.a(lib_a-memset.o)
                              /tmp/ccisHkFI.o (memset)
/usr/lib/gcc/arm-none-eabi/4.8.2/../../../arm-none-eabi/lib/armv7-m/libg.a(lib_a-printf.o)
                              /tmp/ccOeehRB.o (printf)
/usr/lib/gcc/arm-none-eabi/4.8.2/../../../arm-none-eabi/lib/armv7-m/libg.a(lib_a-puts.o)
                              /tmp/ccOeehRB.o (puts)
/usr/lib/gcc/arm-none-eabi/4.8.2/../../../arm-none-eabi/lib/armv7-m/libg.a(lib_a-strlen.o)
                              /usr/lib/gcc/arm-none-eabi/4.8.2/../../../arm-none-eabi/lib/armv7-m/libg.a(lib_a-puts.o) (strlen)
/usr/lib/gcc/arm-none-eabi/4.8.2/../../../arm-none-eabi/lib/armv7-m/libg.a(lib_a-strncpy.o)
                              /tmp/ccisHkFI.o (strncpy)
/usr/lib/gcc/arm-none-eabi/4.8.2/../../../arm-none-eabi/lib/armv7-m/libg.a(lib_a-vfprintf.o)
                              /usr/lib/gcc/arm-none-eabi/4.8.2/../../../arm-none-eabi/lib/armv7-m/libg.a(lib_a-printf.o) (_vfprintf_r)
/usr/lib/gcc/arm-none-eabi/4.8.2/../../../arm-none-eabi/lib/armv7-m/libg.a(lib_a-wsetup.o)
                              /usr/lib/gcc/arm-none-eabi/4.8.2/../../../arm-none-eabi/lib/armv7-m/libg.a(lib_a-vfprintf.o) (__swsetup_r)
/usr/lib/gcc/arm-none-eabi/4.8.2/../../../arm-none-eabi/lib/armv7-m/libg.a(lib_a-dtoa.o)
                              /usr/lib/gcc/arm-none-eabi/4.8.2/../../../arm-none-eabi/lib/armv7-m/libg.a(lib_a-vfprintf.o) (_dtoa_r)
/usr/lib/gcc/arm-none-eabi/4.8.2/../../../arm-none-eabi/lib/armv7-m/libg.a(lib_a-fflush.o)
                              /usr/lib/gcc/arm-none-eabi/4.8.2/../../../arm-none-eabi/lib/armv7-m/libg.a(lib_a-vfprintf.o) (_fflush_r)
/usr/lib/gcc/arm-none-eabi/4.8.2/../../../arm-none-eabi/lib/armv7-m/libg.a(lib_a-findfp.o)
                              /usr/lib/gcc/arm-none-eabi/4.8.2/../../../arm-none-eabi/lib/armv7-m/libg.a(lib_a-vfprintf.o) (__sinit)
/usr/lib/gcc/arm-none-eabi/4.8.2/../../../arm-none-eabi/lib/armv7-m/libg.a(lib_a-freer.o)
                              /usr/lib/gcc/arm-none-eabi/4.8.2/../../../arm-none-eabi/lib/armv7-m/libg.a(lib_a-wsetup.o) (_free_r)
/usr/lib/gcc/arm-none-eabi/4.8.2/../../../arm-none-eabi/lib/armv7-m/libg.a(lib_a-fvwrite.o)
                              /usr/lib/gcc/arm-none-eabi/4.8.2/../../../arm-none-eabi/lib/armv7-m/libg.a(lib_a-puts.o) (__sfvwrite_r)
/usr/lib/gcc/arm-none-eabi/4.8.2/../../../arm-none-eabi/lib/armv7-m/libg.a(lib_a-fwalk.o)
                              /usr/lib/gcc/arm-none-eabi/4.8.2/../../../arm-none-eabi/lib/armv7-m/libg.a(lib_a-findfp.o) (_fwalk)
/usr/lib/gcc/arm-none-eabi/4.8.2/../../../arm-none-eabi/lib/armv7-m/libg.a(lib_a-impure.o)
                              /usr/lib/gcc/arm-none-eabi/4.8.2/../../../arm-none-eabi/lib/armv7-m/libg.a(lib_a-fflush.o) (_global_impure_ptr)
/usr/lib/gcc/arm-none-eabi/4.8.2/../../../arm-none-eabi/lib/armv7-m/libg.a(lib_a-locale.o)
                              /usr/lib/gcc/arm-none-eabi/4.8.2/../../../arm-none-eabi/lib/armv7-m/libg.a(lib_a-vfprintf.o) (_localeconv_r)
/usr/lib/gcc/arm-none-eabi/4.8.2/../../../arm-none-eabi/lib/armv7-m/libg.a(lib_a-makebuf.o)
                              /usr/lib/gcc/arm-none-eabi/4.8.2/../../../arm-none-eabi/lib/armv7-m/libg.a(lib_a-wsetup.o) (__smakebuf_r)
/usr/lib/gcc/arm-none-eabi/4.8.2/../../../arm-none-eabi/lib/armv7-m/libg.a(lib_a-mallocr.o)
                              /usr/lib/gcc/arm-none-eabi/4.8.2/../../../arm-none-eabi/lib/armv7-m/libg.a(lib_a-findfp.o) (_malloc_r)
/usr/lib/gcc/arm-none-eabi/4.8.2/../../../arm-none-eabi/lib/armv7-m/libg.a(lib_a-memchr-stub.o)
                              /usr/lib/gcc/arm-none-eabi/4.8.2/../../../arm-none-eabi/lib/armv7-m/libg.a(lib_a-vfprintf.o) (memchr)
/usr/lib/gcc/arm-none-eabi/4.8.2/../../../arm-none-eabi/lib/armv7-m/libg.a(lib_a-memmove.o)
                              /usr/lib/gcc/arm-none-eabi/4.8.2/../../../arm-none-eabi/lib/armv7-m/libg.a(lib_a-fvwrite.o) (memmove)
/usr/lib/gcc/arm-none-eabi/4.8.2/../../../arm-none-eabi/lib/armv7-m/libg.a(lib_a-mlock.o)
                              /usr/lib/gcc/arm-none-eabi/4.8.2/../../../arm-none-eabi/lib/armv7-m/libg.a(lib_a-freer.o) (__malloc_lock)
/usr/lib/gcc/arm-none-eabi/4.8.2/../../../arm-none-eabi/lib/armv7-m/libg.a(lib_a-mprec.o)
                              /usr/lib/gcc/arm-none-eabi/4.8.2/../../../arm-none-eabi/lib/armv7-m/libg.a(lib_a-dtoa.o) (_Balloc)
/usr/lib/gcc/arm-none-eabi/4.8.2/../../../arm-none-eabi/lib/armv7-m/libg.a(lib_a-reallocr.o)
                              /usr/lib/gcc/arm-none-eabi/4.8.2/../../../arm-none-eabi/lib/armv7-m/libg.a(lib_a-fvwrite.o) (_realloc_r)
/usr/lib/gcc/arm-none-eabi/4.8.2/../../../arm-none-eabi/lib/armv7-m/libg.a(lib_a-s_fpclassify.o)
                              /usr/lib/gcc/arm-none-eabi/4.8.2/../../../arm-none-eabi/lib/armv7-m/libg.a(lib_a-vfprintf.o) (__fpclassifyd)
/usr/lib/gcc/arm-none-eabi/4.8.2/../../../arm-none-eabi/lib/armv7-m/libg.a(lib_a-sbrkr.o)
                              /usr/lib/gcc/arm-none-eabi/4.8.2/../../../arm-none-eabi/lib/armv7-m/libg.a(lib_a-freer.o) (_sbrk_r)
/usr/lib/gcc/arm-none-eabi/4.8.2/../../../arm-none-eabi/lib/armv7-m/libg.a(lib_a-stdio.o)
                              /usr/lib/gcc/arm-none-eabi/4.8.2/../../../arm-none-eabi/lib/armv7-m/libg.a(lib_a-findfp.o) (__sread)
/usr/lib/gcc/arm-none-eabi/4.8.2/../../../arm-none-eabi/lib/armv7-m/libg.a(lib_a-strcmp.o)
                              /usr/lib/gcc/arm-none-eabi/4.8.2/../../../arm-none-eabi/lib/armv7-m/libg.a(lib_a-locale.o) (strcmp)
/usr/lib/gcc/arm-none-eabi/4.8.2/../../../arm-none-eabi/lib/armv7-m/libg.a(lib_a-vfiprintf.o)
                              /usr/lib/gcc/arm-none-eabi/4.8.2/../../../arm-none-eabi/lib/armv7-m/libg.a(lib_a-vfprintf.o) (__sprint_r)
/usr/lib/gcc/arm-none-eabi/4.8.2/../../../arm-none-eabi/lib/armv7-m/libg.a(lib_a-writer.o)
                              /usr/lib/gcc/arm-none-eabi/4.8.2/../../../arm-none-eabi/lib/armv7-m/libg.a(lib_a-stdio.o) (_write_r)
/usr/lib/gcc/arm-none-eabi/4.8.2/../../../arm-none-eabi/lib/armv7-m/libg.a(lib_a-callocr.o)
                              /usr/lib/gcc/arm-none-eabi/4.8.2/../../../arm-none-eabi/lib/armv7-m/libg.a(lib_a-mprec.o) (_calloc_r)
/usr/lib/gcc/arm-none-eabi/4.8.2/../../../arm-none-eabi/lib/armv7-m/libg.a(lib_a-closer.o)
                              /usr/lib/gcc/arm-none-eabi/4.8.2/../../../arm-none-eabi/lib/armv7-m/libg.a(lib_a-stdio.o) (_close_r)
/usr/lib/gcc/arm-none-eabi/4.8.2/../../../arm-none-eabi/lib/armv7-m/libg.a(lib_a-fclose.o)
                              /usr/lib/gcc/arm-none-eabi/4.8.2/../../../arm-none-eabi/lib/armv7-m/libg.a(lib_a-findfp.o) (fclose)
/usr/lib/gcc/arm-none-eabi/4.8.2/../../../arm-none-eabi/lib/armv7-m/libg.a(lib_a-fputwc.o)
                              /usr/lib/gcc/arm-none-eabi/4.8.2/../../../arm-none-eabi/lib/armv7-m/libg.a(lib_a-vfiprintf.o) (_fputwc_r)
/usr/lib/gcc/arm-none-eabi/4.8.2/../../../arm-none-eabi/lib/armv7-m/libg.a(lib_a-fstatr.o)
                              /usr/lib/gcc/arm-none-eabi/4.8.2/../../../arm-none-eabi/lib/armv7-m/libg.a(lib_a-makebuf.o) (_fstat_r)
/usr/lib/gcc/arm-none-eabi/4.8.2/../../../arm-none-eabi/lib/armv7-m/libg.a(lib_a-isattyr.o)
                              /usr/lib/gcc/arm-none-eabi/4.8.2/../../../arm-none-eabi/lib/armv7-m/libg.a(lib_a-makebuf.o) (_isatty_r)
/usr/lib/gcc/arm-none-eabi/4.8.2/../../../arm-none-eabi/lib/armv7-m/libg.a(lib_a-lseekr.o)
                              /usr/lib/gcc/arm-none-eabi/4.8.2/../../../arm-none-eabi/lib/armv7-m/libg.a(lib_a-stdio.o) (_lseek_r)
/usr/lib/gcc/arm-none-eabi/4.8.2/../../../arm-none-eabi/lib/armv7-m/libg.a(lib_a-readr.o)
                              /usr/lib/gcc/arm-none-eabi/4.8.2/../../../arm-none-eabi/lib/armv7-m/libg.a(lib_a-stdio.o) (_read_r)
/usr/lib/gcc/arm-none-eabi/4.8.2/../../../arm-none-eabi/lib/armv7-m/libg.a(lib_a-reent.o)
                              /usr/lib/gcc/arm-none-eabi/4.8.2/../../../arm-none-eabi/lib/armv7-m/libg.a(lib_a-sbrkr.o) (errno)
/usr/lib/gcc/arm-none-eabi/4.8.2/../../../arm-none-eabi/lib/armv7-m/libg.a(lib_a-wbuf.o)
                              /usr/lib/gcc/arm-none-eabi/4.8.2/../../../arm-none-eabi/lib/armv7-m/libg.a(lib_a-fputwc.o) (__swbuf_r)
/usr/lib/gcc/arm-none-eabi/4.8.2/../../../arm-none-eabi/lib/armv7-m/libg.a(lib_a-wcrtomb.o)
                              /usr/lib/gcc/arm-none-eabi/4.8.2/../../../arm-none-eabi/lib/armv7-m/libg.a(lib_a-fputwc.o) (_wcrtomb_r)
/usr/lib/gcc/arm-none-eabi/4.8.2/../../../arm-none-eabi/lib/armv7-m/libg.a(lib_a-wctomb_r.o)
                              /usr/lib/gcc/arm-none-eabi/4.8.2/../../../arm-none-eabi/lib/armv7-m/libg.a(lib_a-wcrtomb.o) (__wctomb)
/usr/lib/gcc/arm-none-eabi/4.8.2/armv7-m/libgcc.a(_arm_addsubdf3.o)
                              /usr/lib/gcc/arm-none-eabi/4.8.2/../../../arm-none-eabi/lib/armv7-m/libg.a(lib_a-dtoa.o) (__aeabi_dsub)
/usr/lib/gcc/arm-none-eabi/4.8.2/armv7-m/libgcc.a(_arm_muldivdf3.o)
                              /usr/lib/gcc/arm-none-eabi/4.8.2/../../../arm-none-eabi/lib/armv7-m/libg.a(lib_a-dtoa.o) (__aeabi_dmul)
/usr/lib/gcc/arm-none-eabi/4.8.2/armv7-m/libgcc.a(_arm_cmpdf2.o)
                              /usr/lib/gcc/arm-none-eabi/4.8.2/../../../arm-none-eabi/lib/armv7-m/libg.a(lib_a-vfprintf.o) (__aeabi_dcmpeq)
/usr/lib/gcc/arm-none-eabi/4.8.2/armv7-m/libgcc.a(_arm_fixdfsi.o)
                              /usr/lib/gcc/arm-none-eabi/4.8.2/../../../arm-none-eabi/lib/armv7-m/libg.a(lib_a-dtoa.o) (__aeabi_d2iz)
/usr/lib/gcc/arm-none-eabi/4.8.2/armv7-m/libgcc.a(_aeabi_uldivmod.o)
                              /usr/lib/gcc/arm-none-eabi/4.8.2/../../../arm-none-eabi/lib/armv7-m/libg.a(lib_a-vfprintf.o) (__aeabi_uldivmod)
/usr/lib/gcc/arm-none-eabi/4.8.2/armv7-m/libgcc.a(bpabi.o)
                              /usr/lib/gcc/arm-none-eabi/4.8.2/armv7-m/libgcc.a(_aeabi_uldivmod.o) (__gnu_uldivmod_helper)
/usr/lib/gcc/arm-none-eabi/4.8.2/armv7-m/libgcc.a(_dvmd_tls.o)
                              /usr/lib/gcc/arm-none-eabi/4.8.2/armv7-m/libgcc.a(_aeabi_uldivmod.o) (__aeabi_ldiv0)
/usr/lib/gcc/arm-none-eabi/4.8.2/armv7-m/libgcc.a(_divdi3.o)
                              /usr/lib/gcc/arm-none-eabi/4.8.2/armv7-m/libgcc.a(bpabi.o) (__divdi3)
/usr/lib/gcc/arm-none-eabi/4.8.2/armv7-m/libgcc.a(_udivdi3.o)
                              /usr/lib/gcc/arm-none-eabi/4.8.2/armv7-m/libgcc.a(bpabi.o) (__udivdi3)

Allocating common symbols
Common symbol       size              file

errno               0x4               /usr/lib/gcc/arm-none-eabi/4.8.2/../../../arm-none-eabi/lib/armv7-m/libg.a(lib_a-reent.o)

Discarded input sections

 .group         0x0000000000000000        0x8 /tmp/cc8SCMZU.o
 .group         0x0000000000000000        0x8 /tmp/cc8SCMZU.o
 .group         0x0000000000000000        0x8 /tmp/cc8SCMZU.o
 .group         0x0000000000000000        0x8 /tmp/cc8SCMZU.o
 .group         0x0000000000000000        0x8 /tmp/cc8SCMZU.o
 .group         0x0000000000000000        0x8 /tmp/cc8SCMZU.o
 .group         0x0000000000000000        0x8 /tmp/cc8SCMZU.o
 .group         0x0000000000000000        0x8 /tmp/cc8SCMZU.o
 .group         0x0000000000000000        0x8 /tmp/cc8SCMZU.o
 .group         0x0000000000000000        0x8 /tmp/cc8SCMZU.o
 .group         0x0000000000000000        0x8 /tmp/ccf6aV3r.o
 .group         0x0000000000000000        0x8 /tmp/ccf6aV3r.o
 .group         0x0000000000000000        0x8 /tmp/ccf6aV3r.o
 .group         0x0000000000000000        0x8 /tmp/ccf6aV3r.o
 .group         0x0000000000000000        0x8 /tmp/ccf6aV3r.o
 .group         0x0000000000000000        0x8 /tmp/ccf6aV3r.o
 .group         0x0000000000000000        0x8 /tmp/ccf6aV3r.o
 .group         0x0000000000000000        0x8 /tmp/ccf6aV3r.o
 .group         0x0000000000000000        0x8 /tmp/ccf6aV3r.o
 .group         0x0000000000000000        0x8 /tmp/ccf6aV3r.o
 .group         0x0000000000000000        0x8 /tmp/ccf6aV3r.o
 .debug_macro   0x0000000000000000      0x844 /tmp/ccf6aV3r.o
 .debug_macro   0x0000000000000000       0x63 /tmp/ccf6aV3r.o
 .debug_macro   0x0000000000000000       0x3b /tmp/ccf6aV3r.o
 .debug_macro   0x0000000000000000       0x16 /tmp/ccf6aV3r.o
 .debug_macro   0x0000000000000000       0x44 /tmp/ccf6aV3r.o
 .debug_macro   0x0000000000000000      0x209 /tmp/ccf6aV3r.o
 .debug_macro   0x0000000000000000       0x18 /tmp/ccf6aV3r.o
 .debug_macro   0x0000000000000000       0x42 /tmp/ccf6aV3r.o
 .debug_macro   0x0000000000000000      0xd39 /tmp/ccf6aV3r.o
 .debug_macro   0x0000000000000000     0x8264 /tmp/ccf6aV3r.o
 .group         0x0000000000000000        0x8 /tmp/ccXqE4VI.o
 .group         0x0000000000000000        0x8 /tmp/ccXqE4VI.o
 .group         0x0000000000000000        0x8 /tmp/ccXqE4VI.o
 .group         0x0000000000000000        0x8 /tmp/ccXqE4VI.o
 .group         0x0000000000000000        0x8 /tmp/ccXqE4VI.o
 .group         0x0000000000000000        0x8 /tmp/ccXqE4VI.o
 .group         0x0000000000000000        0x8 /tmp/ccXqE4VI.o
 .group         0x0000000000000000        0x8 /tmp/ccXqE4VI.o
 .group         0x0000000000000000        0x8 /tmp/ccXqE4VI.o
 .group         0x0000000000000000        0x8 /tmp/ccXqE4VI.o
 .group         0x0000000000000000        0x8 /tmp/ccXqE4VI.o
 .group         0x0000000000000000        0x8 /tmp/ccXqE4VI.o
 .debug_macro   0x0000000000000000      0x844 /tmp/ccXqE4VI.o
 .debug_macro   0x0000000000000000       0x63 /tmp/ccXqE4VI.o
 .debug_macro   0x0000000000000000       0x3b /tmp/ccXqE4VI.o
 .debug_macro   0x0000000000000000       0x16 /tmp/ccXqE4VI.o
 .debug_macro   0x0000000000000000       0x44 /tmp/ccXqE4VI.o
 .debug_macro   0x0000000000000000      0x209 /tmp/ccXqE4VI.o
 .debug_macro   0x0000000000000000       0x18 /tmp/ccXqE4VI.o
 .debug_macro   0x0000000000000000       0x42 /tmp/ccXqE4VI.o
 .debug_macro   0x0000000000000000      0xd39 /tmp/ccXqE4VI.o
 .debug_macro   0x0000000000000000     0x8264 /tmp/ccXqE4VI.o
 .group         0x0000000000000000        0x8 /tmp/ccewRW4Z.o
 .group         0x0000000000000000        0x8 /tmp/ccewRW4Z.o
 .group         0x0000000000000000        0x8 /tmp/ccewRW4Z.o
 .group         0x0000000000000000        0x8 /tmp/ccewRW4Z.o
 .group         0x0000000000000000        0x8 /tmp/ccewRW4Z.o
 .group         0x0000000000000000        0x8 /tmp/ccewRW4Z.o
 .group         0x0000000000000000        0x8 /tmp/ccewRW4Z.o
 .group         0x0000000000000000        0x8 /tmp/ccewRW4Z.o
 .group         0x0000000000000000        0x8 /tmp/ccewRW4Z.o
 .group         0x0000000000000000        0x8 /tmp/ccewRW4Z.o
 .group         0x0000000000000000        0x8 /tmp/ccewRW4Z.o
 .group         0x0000000000000000        0x8 /tmp/ccewRW4Z.o
 .debug_macro   0x0000000000000000      0x844 /tmp/ccewRW4Z.o
 .debug_macro   0x0000000000000000       0x63 /tmp/ccewRW4Z.o
 .debug_macro   0x0000000000000000       0x3b /tmp/ccewRW4Z.o
 .debug_macro   0x0000000000000000       0x16 /tmp/ccewRW4Z.o
 .debug_macro   0x0000000000000000       0x44 /tmp/ccewRW4Z.o
 .debug_macro   0x0000000000000000      0x209 /tmp/ccewRW4Z.o
 .debug_macro   0x0000000000000000       0x18 /tmp/ccewRW4Z.o
 .debug_macro   0x0000000000000000       0x42 /tmp/ccewRW4Z.o
 .debug_macro   0x0000000000000000      0xd39 /tmp/ccewRW4Z.o
 .debug_macro   0x0000000000000000     0x8264 /tmp/ccewRW4Z.o
 .debug_macro   0x0000000000000000      0x57c /tmp/ccewRW4Z.o
 .group         0x0000000000000000        0x8 /tmp/cciNRtqh.o
 .group         0x0000000000000000        0x8 /tmp/cciNRtqh.o
 .group         0x0000000000000000        0x8 /tmp/cciNRtqh.o
 .group         0x0000000000000000        0x8 /tmp/cciNRtqh.o
 .group         0x0000000000000000        0x8 /tmp/cciNRtqh.o
 .group         0x0000000000000000        0x8 /tmp/cciNRtqh.o
 .group         0x0000000000000000        0x8 /tmp/cciNRtqh.o
 .group         0x0000000000000000        0x8 /tmp/cciNRtqh.o
 .group         0x0000000000000000        0x8 /tmp/cciNRtqh.o
 .group         0x0000000000000000        0x8 /tmp/cciNRtqh.o
 .group         0x0000000000000000        0x8 /tmp/cciNRtqh.o
 .debug_macro   0x0000000000000000      0x844 /tmp/cciNRtqh.o
 .debug_macro   0x0000000000000000       0x63 /tmp/cciNRtqh.o
 .debug_macro   0x0000000000000000       0x3b /tmp/cciNRtqh.o
 .debug_macro   0x0000000000000000       0x16 /tmp/cciNRtqh.o
 .debug_macro   0x0000000000000000       0x44 /tmp/cciNRtqh.o
 .debug_macro   0x0000000000000000      0x209 /tmp/cciNRtqh.o
 .debug_macro   0x0000000000000000       0x18 /tmp/cciNRtqh.o
 .debug_macro   0x0000000000000000       0x42 /tmp/cciNRtqh.o
 .debug_macro   0x0000000000000000      0xd39 /tmp/cciNRtqh.o
 .debug_macro   0x0000000000000000     0x8264 /tmp/cciNRtqh.o
 .group         0x0000000000000000        0x8 /tmp/ccbHfsZy.o
 .group         0x0000000000000000        0x8 /tmp/ccbHfsZy.o
 .group         0x0000000000000000        0x8 /tmp/ccbHfsZy.o
 .group         0x0000000000000000        0x8 /tmp/ccbHfsZy.o
 .group         0x0000000000000000        0x8 /tmp/ccbHfsZy.o
 .group         0x0000000000000000        0x8 /tmp/ccbHfsZy.o
 .group         0x0000000000000000        0x8 /tmp/ccbHfsZy.o
 .group         0x0000000000000000        0x8 /tmp/ccbHfsZy.o
 .group         0x0000000000000000        0x8 /tmp/ccbHfsZy.o
 .group         0x0000000000000000        0x8 /tmp/ccbHfsZy.o
 .group         0x0000000000000000        0x8 /tmp/ccbHfsZy.o
 .debug_macro   0x0000000000000000      0x844 /tmp/ccbHfsZy.o
 .debug_macro   0x0000000000000000       0x63 /tmp/ccbHfsZy.o
 .debug_macro   0x0000000000000000       0x3b /tmp/ccbHfsZy.o
 .debug_macro   0x0000000000000000       0x16 /tmp/ccbHfsZy.o
 .debug_macro   0x0000000000000000       0x44 /tmp/ccbHfsZy.o
 .debug_macro   0x0000000000000000      0x209 /tmp/ccbHfsZy.o
 .debug_macro   0x0000000000000000       0x18 /tmp/ccbHfsZy.o
 .debug_macro   0x0000000000000000       0x42 /tmp/ccbHfsZy.o
 .debug_macro   0x0000000000000000      0xd39 /tmp/ccbHfsZy.o
 .debug_macro   0x0000000000000000     0x8264 /tmp/ccbHfsZy.o
 .group         0x0000000000000000        0x8 /tmp/ccHG3MIQ.o
 .group         0x0000000000000000        0x8 /tmp/ccHG3MIQ.o
 .group         0x0000000000000000        0x8 /tmp/ccHG3MIQ.o
 .group         0x0000000000000000        0x8 /tmp/ccHG3MIQ.o
 .group         0x0000000000000000        0x8 /tmp/ccHG3MIQ.o
 .group         0x0000000000000000        0x8 /tmp/ccHG3MIQ.o
 .group         0x0000000000000000        0x8 /tmp/ccHG3MIQ.o
 .group         0x0000000000000000        0x8 /tmp/ccHG3MIQ.o
 .group         0x0000000000000000        0x8 /tmp/ccHG3MIQ.o
 .group         0x0000000000000000        0x8 /tmp/ccHG3MIQ.o
 .group         0x0000000000000000        0x8 /tmp/ccHG3MIQ.o
 .debug_macro   0x0000000000000000      0x844 /tmp/ccHG3MIQ.o
 .group         0x0000000000000000        0x8 /tmp/cciA8gx8.o
 .group         0x0000000000000000        0x8 /tmp/cciA8gx8.o
 .group         0x0000000000000000        0x8 /tmp/cciA8gx8.o
 .group         0x0000000000000000        0x8 /tmp/cciA8gx8.o
 .group         0x0000000000000000        0x8 /tmp/cciA8gx8.o
 .group         0x0000000000000000        0x8 /tmp/cciA8gx8.o
 .group         0x0000000000000000        0x8 /tmp/cciA8gx8.o
 .group         0x0000000000000000        0x8 /tmp/cciA8gx8.o
 .group         0x0000000000000000        0x8 /tmp/cciA8gx8.o
 .group         0x0000000000000000        0x8 /tmp/cciA8gx8.o
 .group         0x0000000000000000        0x8 /tmp/cciA8gx8.o
 .group         0x0000000000000000        0x8 /tmp/cciA8gx8.o
 .group         0x0000000000000000        0x8 /tmp/cciA8gx8.o
 .group         0x0000000000000000        0x8 /tmp/cciA8gx8.o
 .group         0x0000000000000000        0x8 /tmp/cciA8gx8.o
 .group         0x0000000000000000        0x8 /tmp/cciA8gx8.o
 .group         0x0000000000000000        0x8 /tmp/cciA8gx8.o
 .group         0x0000000000000000        0x8 /tmp/cciA8gx8.o
 .group         0x0000000000000000        0x8 /tmp/cciA8gx8.o
 .group         0x0000000000000000        0x8 /tmp/cciA8gx8.o
 .group         0x0000000000000000        0x8 /tmp/cciA8gx8.o
 .debug_macro   0x0000000000000000      0x844 /tmp/cciA8gx8.o
 .debug_macro   0x0000000000000000       0x16 /tmp/cciA8gx8.o
 .debug_macro   0x0000000000000000       0x46 /tmp/cciA8gx8.o
 .debug_macro   0x0000000000000000       0xc4 /tmp/cciA8gx8.o
 .debug_macro   0x0000000000000000       0xa4 /tmp/cciA8gx8.o
 .debug_macro   0x0000000000000000       0x12 /tmp/cciA8gx8.o
 .debug_macro   0x0000000000000000       0x1f /tmp/cciA8gx8.o
 .debug_macro   0x0000000000000000      0x1ee /tmp/cciA8gx8.o
 .debug_macro   0x0000000000000000       0x49 /tmp/cciA8gx8.o
 .group         0x0000000000000000        0x8 /tmp/cclQzAuq.o
 .group         0x0000000000000000        0x8 /tmp/cclQzAuq.o
 .group         0x0000000000000000        0x8 /tmp/cclQzAuq.o
 .group         0x0000000000000000        0x8 /tmp/cclQzAuq.o
 .group         0x0000000000000000        0x8 /tmp/cclQzAuq.o
 .group         0x0000000000000000        0x8 /tmp/cclQzAuq.o
 .group         0x0000000000000000        0x8 /tmp/cclQzAuq.o
 .group         0x0000000000000000        0x8 /tmp/cclQzAuq.o
 .group         0x0000000000000000        0x8 /tmp/cclQzAuq.o
 .group         0x0000000000000000        0x8 /tmp/cclQzAuq.o
 .group         0x0000000000000000        0x8 /tmp/cclQzAuq.o
 .group         0x0000000000000000        0x8 /tmp/cclQzAuq.o
 .group         0x0000000000000000        0x8 /tmp/cclQzAuq.o
 .group         0x0000000000000000        0x8 /tmp/cclQzAuq.o
 .group         0x0000000000000000        0x8 /tmp/cclQzAuq.o
 .group         0x0000000000000000        0x8 /tmp/cclQzAuq.o
 .group         0x0000000000000000        0x8 /tmp/cclQzAuq.o
 .group         0x0000000000000000        0x8 /tmp/cclQzAuq.o
 .group         0x0000000000000000        0x8 /tmp/cclQzAuq.o
 .group         0x0000000000000000        0x8 /tmp/cclQzAuq.o
 .group         0x0000000000000000        0x8 /tmp/cclQzAuq.o
 .group         0x0000000000000000        0x8 /tmp/cclQzAuq.o
 .group         0x0000000000000000        0x8 /tmp/cclQzAuq.o
 .group         0x0000000000000000        0x8 /tmp/cclQzAuq.o
 .group         0x0000000000000000        0x8 /tmp/cclQzAuq.o
 .debug_macro   0x0000000000000000      0x844 /tmp/cclQzAuq.o
 .debug_macro   0x0000000000000000       0x58 /tmp/cclQzAuq.o
 .debug_macro   0x0000000000000000       0x16 /tmp/cclQzAuq.o
 .debug_macro   0x0000000000000000       0x35 /tmp/cclQzAuq.o
 .debug_macro   0x0000000000000000       0xa3 /tmp/cclQzAuq.o
 .debug_macro   0x0000000000000000       0x16 /tmp/cclQzAuq.o
 .debug_macro   0x0000000000000000      0x10e /tmp/cclQzAuq.o
 .debug_macro   0x0000000000000000       0x7f /tmp/cclQzAuq.o
 .debug_macro   0x0000000000000000       0x4a /tmp/cclQzAuq.o
 .debug_macro   0x0000000000000000       0x52 /tmp/cclQzAuq.o
 .debug_macro   0x0000000000000000       0x16 /tmp/cclQzAuq.o
 .debug_macro   0x0000000000000000       0x43 /tmp/cclQzAuq.o
 .debug_macro   0x0000000000000000      0x180 /tmp/cclQzAuq.o
 .debug_macro   0x0000000000000000       0x22 /tmp/cclQzAuq.o
 .debug_macro   0x0000000000000000       0x46 /tmp/cclQzAuq.o
 .debug_macro   0x0000000000000000       0xc4 /tmp/cclQzAuq.o
 .debug_macro   0x0000000000000000       0xa4 /tmp/cclQzAuq.o
 .debug_macro   0x0000000000000000       0x12 /tmp/cclQzAuq.o
 .debug_macro   0x0000000000000000       0x1f /tmp/cclQzAuq.o
 .debug_macro   0x0000000000000000      0x1ee /tmp/cclQzAuq.o
 .debug_macro   0x0000000000000000       0x49 /tmp/cclQzAuq.o
 .debug_macro   0x0000000000000000       0x57 /tmp/cclQzAuq.o
 .group         0x0000000000000000        0x8 /tmp/ccisHkFI.o
 .group         0x0000000000000000        0x8 /tmp/ccisHkFI.o
 .group         0x0000000000000000        0x8 /tmp/ccisHkFI.o
 .group         0x0000000000000000        0x8 /tmp/ccisHkFI.o
 .group         0x0000000000000000        0x8 /tmp/ccisHkFI.o
 .group         0x0000000000000000        0x8 /tmp/ccisHkFI.o
 .group         0x0000000000000000        0x8 /tmp/ccisHkFI.o
 .group         0x0000000000000000        0x8 /tmp/ccisHkFI.o
 .group         0x0000000000000000        0x8 /tmp/ccisHkFI.o
 .group         0x0000000000000000        0x8 /tmp/ccisHkFI.o
 .group         0x0000000000000000        0x8 /tmp/ccisHkFI.o
 .group         0x0000000000000000        0x8 /tmp/ccisHkFI.o
 .group         0x0000000000000000        0x8 /tmp/ccisHkFI.o
 .group         0x0000000000000000        0x8 /tmp/ccisHkFI.o
 .group         0x0000000000000000        0x8 /tmp/ccisHkFI.o
 .group         0x0000000000000000        0x8 /tmp/ccisHkFI.o
 .group         0x0000000000000000        0x8 /tmp/ccisHkFI.o
 .group         0x0000000000000000        0x8 /tmp/ccisHkFI.o
 .group         0x0000000000000000        0x8 /tmp/ccisHkFI.o
 .group         0x0000000000000000        0x8 /tmp/ccisHkFI.o
 .group         0x0000000000000000        0x8 /tmp/ccisHkFI.o
 .group         0x0000000000000000        0x8 /tmp/ccisHkFI.o
 .group         0x0000000000000000        0x8 /tmp/ccisHkFI.o
 .group         0x0000000000000000        0x8 /tmp/ccisHkFI.o
 .group         0x0000000000000000        0x8 /tmp/ccisHkFI.o
 .group         0x0000000000000000        0x8 /tmp/ccisHkFI.o
 .group         0x0000000000000000        0x8 /tmp/ccisHkFI.o
 .group         0x0000000000000000        0x8 /tmp/ccisHkFI.o
 .group         0x0000000000000000        0x8 /tmp/ccisHkFI.o
 .group         0x0000000000000000        0x8 /tmp/ccisHkFI.o
 .group         0x0000000000000000        0x8 /tmp/ccisHkFI.o
 .group         0x0000000000000000        0x8 /tmp/ccisHkFI.o
 .group         0x0000000000000000        0x8 /tmp/ccisHkFI.o
 .group         0x0000000000000000        0x8 /tmp/ccisHkFI.o
 .debug_macro   0x0000000000000000      0x844 /tmp/ccisHkFI.o
 .debug_macro   0x0000000000000000       0x58 /tmp/ccisHkFI.o
 .debug_macro   0x0000000000000000       0x16 /tmp/ccisHkFI.o
 .debug_macro   0x0000000000000000       0x35 /tmp/ccisHkFI.o
 .debug_macro   0x0000000000000000       0xa3 /tmp/ccisHkFI.o
 .debug_macro   0x0000000000000000       0x4a /tmp/ccisHkFI.o
 .debug_macro   0x0000000000000000       0x52 /tmp/ccisHkFI.o
 .debug_macro   0x0000000000000000       0x16 /tmp/ccisHkFI.o
 .debug_macro   0x0000000000000000       0x43 /tmp/ccisHkFI.o
 .debug_macro   0x0000000000000000      0x180 /tmp/ccisHkFI.o
 .debug_macro   0x0000000000000000       0x16 /tmp/ccisHkFI.o
 .debug_macro   0x0000000000000000       0x35 /tmp/ccisHkFI.o
 .debug_macro   0x0000000000000000       0x22 /tmp/ccisHkFI.o
 .debug_macro   0x0000000000000000      0x2a3 /tmp/ccisHkFI.o
 .debug_macro   0x0000000000000000       0x10 /tmp/ccisHkFI.o
 .debug_macro   0x0000000000000000       0x46 /tmp/ccisHkFI.o
 .debug_macro   0x0000000000000000       0xc4 /tmp/ccisHkFI.o
 .debug_macro   0x0000000000000000       0xa4 /tmp/ccisHkFI.o
 .debug_macro   0x0000000000000000       0x12 /tmp/ccisHkFI.o
 .debug_macro   0x0000000000000000       0x1f /tmp/ccisHkFI.o
 .debug_macro   0x0000000000000000      0x1ee /tmp/ccisHkFI.o
 .debug_macro   0x0000000000000000       0x49 /tmp/ccisHkFI.o
 .debug_macro   0x0000000000000000       0x57 /tmp/ccisHkFI.o
 .group         0x0000000000000000        0x8 /tmp/ccKufXV0.o
 .group         0x0000000000000000        0x8 /tmp/ccKufXV0.o
 .group         0x0000000000000000        0x8 /tmp/ccKufXV0.o
 .group         0x0000000000000000        0x8 /tmp/ccKufXV0.o
 .group         0x0000000000000000        0x8 /tmp/ccKufXV0.o
 .group         0x0000000000000000        0x8 /tmp/ccKufXV0.o
 .group         0x0000000000000000        0x8 /tmp/ccKufXV0.o
 .group         0x0000000000000000        0x8 /tmp/ccKufXV0.o
 .group         0x0000000000000000        0x8 /tmp/ccKufXV0.o
 .group         0x0000000000000000        0x8 /tmp/ccKufXV0.o
 .debug_macro   0x0000000000000000      0x844 /tmp/ccKufXV0.o
 .debug_macro   0x0000000000000000      0x166 /tmp/ccKufXV0.o
 .debug_macro   0x0000000000000000       0x46 /tmp/ccKufXV0.o
 .debug_macro   0x0000000000000000       0xc4 /tmp/ccKufXV0.o
 .debug_macro   0x0000000000000000       0xa4 /tmp/ccKufXV0.o
 .debug_macro   0x0000000000000000       0x12 /tmp/ccKufXV0.o
 .debug_macro   0x0000000000000000       0x1f /tmp/ccKufXV0.o
 .debug_macro   0x0000000000000000      0x1ee /tmp/ccKufXV0.o
 .debug_macro   0x0000000000000000       0x49 /tmp/ccKufXV0.o
 .debug_macro   0x0000000000000000       0x57 /tmp/ccKufXV0.o
 .group         0x0000000000000000        0x8 /tmp/ccFDWphj.o
 .group         0x0000000000000000        0x8 /tmp/ccFDWphj.o
 .group         0x0000000000000000        0x8 /tmp/ccFDWphj.o
 .group         0x0000000000000000        0x8 /tmp/ccFDWphj.o
 .group         0x0000000000000000        0x8 /tmp/ccFDWphj.o
 .group         0x0000000000000000        0x8 /tmp/ccFDWphj.o
 .group         0x0000000000000000        0x8 /tmp/ccFDWphj.o
 .group         0x0000000000000000        0x8 /tmp/ccFDWphj.o
 .group         0x0000000000000000        0x8 /tmp/ccFDWphj.o
 .group         0x0000000000000000        0x8 /tmp/ccFDWphj.o
 .group         0x0000000000000000        0x8 /tmp/ccFDWphj.o
 .group         0x0000000000000000        0x8 /tmp/ccFDWphj.o
 .group         0x0000000000000000        0x8 /tmp/ccFDWphj.o
 .group         0x0000000000000000        0x8 /tmp/ccFDWphj.o
 .group         0x0000000000000000        0x8 /tmp/ccFDWphj.o
 .group         0x0000000000000000        0x8 /tmp/ccFDWphj.o
 .group         0x0000000000000000        0x8 /tmp/ccFDWphj.o
 .group         0x0000000000000000        0x8 /tmp/ccFDWphj.o
 .group         0x0000000000000000        0x8 /tmp/ccFDWphj.o
 .group         0x0000000000000000        0x8 /tmp/ccFDWphj.o
 .group         0x0000000000000000        0x8 /tmp/ccFDWphj.o
 .group         0x0000000000000000        0x8 /tmp/ccFDWphj.o
 .debug_macro   0x0000000000000000      0x844 /tmp/ccFDWphj.o
 .debug_macro   0x0000000000000000       0x58 /tmp/ccFDWphj.o
 .debug_macro   0x0000000000000000       0x16 /tmp/ccFDWphj.o
 .debug_macro   0x0000000000000000       0x35 /tmp/ccFDWphj.o
 .debug_macro   0x0000000000000000       0xa3 /tmp/ccFDWphj.o
 .debug_macro   0x0000000000000000       0x16 /tmp/ccFDWphj.o
 .debug_macro   0x0000000000000000      0x10e /tmp/ccFDWphj.o
 .debug_macro   0x0000000000000000       0x7f /tmp/ccFDWphj.o
 .debug_macro   0x0000000000000000       0x4a /tmp/ccFDWphj.o
 .debug_macro   0x0000000000000000       0x52 /tmp/ccFDWphj.o
 .debug_macro   0x0000000000000000       0x16 /tmp/ccFDWphj.o
 .debug_macro   0x0000000000000000       0x43 /tmp/ccFDWphj.o
 .debug_macro   0x0000000000000000      0x180 /tmp/ccFDWphj.o
 .debug_macro   0x0000000000000000       0x22 /tmp/ccFDWphj.o
 .debug_macro   0x0000000000000000       0x46 /tmp/ccFDWphj.o
 .debug_macro   0x0000000000000000       0xc4 /tmp/ccFDWphj.o
 .debug_macro   0x0000000000000000       0xa4 /tmp/ccFDWphj.o
 .debug_macro   0x0000000000000000       0x12 /tmp/ccFDWphj.o
 .debug_macro   0x0000000000000000       0x1f /tmp/ccFDWphj.o
 .debug_macro   0x0000000000000000      0x1ee /tmp/ccFDWphj.o
 .debug_macro   0x0000000000000000       0x49 /tmp/ccFDWphj.o
 .debug_macro   0x0000000000000000       0x57 /tmp/ccFDWphj.o
 .group         0x0000000000000000        0x8 /tmp/ccOeehRB.o
 .group         0x0000000000000000        0x8 /tmp/ccOeehRB.o
 .group         0x0000000000000000        0x8 /tmp/ccOeehRB.o
 .group         0x0000000000000000        0x8 /tmp/ccOeehRB.o
 .group         0x0000000000000000        0x8 /tmp/ccOeehRB.o
 .group         0x0000000000000000        0x8 /tmp/ccOeehRB.o
 .group         0x0000000000000000        0x8 /tmp/ccOeehRB.o
 .group         0x0000000000000000        0x8 /tmp/ccOeehRB.o
 .group         0x0000000000000000        0x8 /tmp/ccOeehRB.o
 .group         0x0000000000000000        0x8 /tmp/ccOeehRB.o
 .group         0x0000000000000000        0x8 /tmp/ccOeehRB.o
 .group         0x0000000000000000        0x8 /tmp/ccOeehRB.o
 .group         0x0000000000000000        0x8 /tmp/ccOeehRB.o
 .group         0x0000000000000000        0x8 /tmp/ccOeehRB.o
 .group         0x0000000000000000        0x8 /tmp/ccOeehRB.o
 .group         0x0000000000000000        0x8 /tmp/ccOeehRB.o
 .group         0x0000000000000000        0x8 /tmp/ccOeehRB.o
 .group         0x0000000000000000        0x8 /tmp/ccOeehRB.o
 .group         0x0000000000000000        0x8 /tmp/ccOeehRB.o
 .group         0x0000000000000000        0x8 /tmp/ccOeehRB.o
 .group         0x0000000000000000        0x8 /tmp/ccOeehRB.o
 .group         0x0000000000000000        0x8 /tmp/ccOeehRB.o
 .group         0x0000000000000000        0x8 /tmp/ccOeehRB.o
 .group         0x0000000000000000        0x8 /tmp/ccOeehRB.o
 .group         0x0000000000000000        0x8 /tmp/ccOeehRB.o
 .group         0x0000000000000000        0x8 /tmp/ccOeehRB.o
 .group         0x0000000000000000        0x8 /tmp/ccOeehRB.o
 .group         0x0000000000000000        0x8 /tmp/ccOeehRB.o
 .group         0x0000000000000000        0x8 /tmp/ccOeehRB.o
 .debug_macro   0x0000000000000000      0x844 /tmp/ccOeehRB.o
 .debug_macro   0x0000000000000000       0x16 /tmp/ccOeehRB.o
 .debug_macro   0x0000000000000000       0x44 /tmp/ccOeehRB.o
 .debug_macro   0x0000000000000000      0x209 /tmp/ccOeehRB.o
 .debug_macro   0x0000000000000000       0x63 /tmp/ccOeehRB.o
 .debug_macro   0x0000000000000000       0x3b /tmp/ccOeehRB.o
 .debug_macro   0x0000000000000000       0x18 /tmp/ccOeehRB.o
 .debug_macro   0x0000000000000000       0x42 /tmp/ccOeehRB.o
 .debug_macro   0x0000000000000000      0xd39 /tmp/ccOeehRB.o
 .debug_macro   0x0000000000000000     0x8264 /tmp/ccOeehRB.o
 .debug_macro   0x0000000000000000       0x58 /tmp/ccOeehRB.o
 .debug_macro   0x0000000000000000       0x35 /tmp/ccOeehRB.o
 .debug_macro   0x0000000000000000       0xa3 /tmp/ccOeehRB.o
 .debug_macro   0x0000000000000000       0x16 /tmp/ccOeehRB.o
 .debug_macro   0x0000000000000000       0x97 /tmp/ccOeehRB.o
 .debug_macro   0x0000000000000000       0x10 /tmp/ccOeehRB.o
 .debug_macro   0x0000000000000000       0xef /tmp/ccOeehRB.o
 .debug_macro   0x0000000000000000       0x52 /tmp/ccOeehRB.o
 .debug_macro   0x0000000000000000       0x16 /tmp/ccOeehRB.o
 .debug_macro   0x0000000000000000       0x43 /tmp/ccOeehRB.o
 .debug_macro   0x0000000000000000      0x180 /tmp/ccOeehRB.o
 .debug_macro   0x0000000000000000       0x10 /tmp/ccOeehRB.o
 .debug_macro   0x0000000000000000       0x22 /tmp/ccOeehRB.o
 .debug_macro   0x0000000000000000       0xbd /tmp/ccOeehRB.o
 .debug_macro   0x0000000000000000       0x16 /tmp/ccOeehRB.o
 .debug_macro   0x0000000000000000      0x14a /tmp/ccOeehRB.o
 .debug_macro   0x0000000000000000      0x2a3 /tmp/ccOeehRB.o
 .debug_macro   0x0000000000000000       0x10 /tmp/ccOeehRB.o
 .debug_macro   0x0000000000000000       0x35 /tmp/ccOeehRB.o
 .group         0x0000000000000000        0x8 /tmp/ccVQAlBU.o
 .group         0x0000000000000000        0x8 /tmp/ccVQAlBU.o
 .group         0x0000000000000000        0x8 /tmp/ccVQAlBU.o
 .group         0x0000000000000000        0x8 /tmp/ccVQAlBU.o
 .group         0x0000000000000000        0x8 /tmp/ccVQAlBU.o
 .group         0x0000000000000000        0x8 /tmp/ccVQAlBU.o
 .group         0x0000000000000000        0x8 /tmp/ccVQAlBU.o
 .group         0x0000000000000000        0x8 /tmp/ccVQAlBU.o
 .group         0x0000000000000000        0x8 /tmp/ccVQAlBU.o
 .group         0x0000000000000000        0x8 /tmp/ccVQAlBU.o
 .group         0x0000000000000000        0x8 /tmp/ccVQAlBU.o
 .group         0x0000000000000000        0x8 /tmp/ccVQAlBU.o
 .group         0x0000000000000000        0x8 /tmp/ccVQAlBU.o
 .group         0x0000000000000000        0x8 /tmp/ccVQAlBU.o
 .group         0x0000000000000000        0x8 /tmp/ccVQAlBU.o
 .group         0x0000000000000000        0x8 /tmp/ccVQAlBU.o
 .group         0x0000000000000000        0x8 /tmp/ccVQAlBU.o
 .group         0x0000000000000000        0x8 /tmp/ccVQAlBU.o
 .group         0x0000000000000000        0x8 /tmp/ccVQAlBU.o
 .group         0x0000000000000000        0x8 /tmp/ccVQAlBU.o
 .group         0x0000000000000000        0x8 /tmp/ccVQAlBU.o
 .group         0x0000000000000000        0x8 /tmp/ccVQAlBU.o
 .group         0x0000000000000000        0x8 /tmp/ccVQAlBU.o
 .group         0x0000000000000000        0x8 /tmp/ccVQAlBU.o
 .group         0x0000000000000000        0x8 /tmp/ccVQAlBU.o
 .group         0x0000000000000000        0x8 /tmp/ccVQAlBU.o
 .group         0x0000000000000000        0x8 /tmp/ccVQAlBU.o
 .debug_macro   0x0000000000000000      0x844 /tmp/ccVQAlBU.o
 .debug_macro   0x0000000000000000       0x58 /tmp/ccVQAlBU.o
 .debug_macro   0x0000000000000000       0x16 /tmp/ccVQAlBU.o
 .debug_macro   0x0000000000000000       0x35 /tmp/ccVQAlBU.o
 .debug_macro   0x0000000000000000       0xa3 /tmp/ccVQAlBU.o
 .debug_macro   0x0000000000000000       0x16 /tmp/ccVQAlBU.o
 .debug_macro   0x0000000000000000      0x10e /tmp/ccVQAlBU.o
 .debug_macro   0x0000000000000000       0x7f /tmp/ccVQAlBU.o
 .debug_macro   0x0000000000000000       0x4a /tmp/ccVQAlBU.o
 .debug_macro   0x0000000000000000       0x52 /tmp/ccVQAlBU.o
 .debug_macro   0x0000000000000000       0x16 /tmp/ccVQAlBU.o
 .debug_macro   0x0000000000000000       0x43 /tmp/ccVQAlBU.o
 .debug_macro   0x0000000000000000      0x180 /tmp/ccVQAlBU.o
 .debug_macro   0x0000000000000000       0x22 /tmp/ccVQAlBU.o
 .debug_macro   0x0000000000000000       0x35 /tmp/ccVQAlBU.o
 .debug_macro   0x0000000000000000       0x10 /tmp/ccVQAlBU.o
 .debug_macro   0x0000000000000000       0x10 /tmp/ccVQAlBU.o
 .debug_macro   0x0000000000000000       0x22 /tmp/ccVQAlBU.o
 .debug_macro   0x0000000000000000       0xbd /tmp/ccVQAlBU.o
 .debug_macro   0x0000000000000000       0x16 /tmp/ccVQAlBU.o
 .debug_macro   0x0000000000000000      0x14a /tmp/ccVQAlBU.o
 .group         0x0000000000000000        0x8 /tmp/cck4IXtd.o
 .group         0x0000000000000000        0x8 /tmp/cck4IXtd.o
 .group         0x0000000000000000        0x8 /tmp/cck4IXtd.o
 .group         0x0000000000000000        0x8 /tmp/cck4IXtd.o
 .group         0x0000000000000000        0x8 /tmp/cck4IXtd.o
 .group         0x0000000000000000        0x8 /tmp/cck4IXtd.o
 .group         0x0000000000000000        0x8 /tmp/cck4IXtd.o
 .group         0x0000000000000000        0x8 /tmp/cck4IXtd.o
 .group         0x0000000000000000        0x8 /tmp/cck4IXtd.o
 .group         0x0000000000000000        0x8 /tmp/cck4IXtd.o
 .debug_macro   0x0000000000000000      0x844 /tmp/cck4IXtd.o
 .debug_macro   0x0000000000000000       0x16 /tmp/cck4IXtd.o
 .debug_macro   0x0000000000000000       0x44 /tmp/cck4IXtd.o
 .debug_macro   0x0000000000000000      0x209 /tmp/cck4IXtd.o
 .debug_macro   0x0000000000000000       0x63 /tmp/cck4IXtd.o
 .debug_macro   0x0000000000000000       0x3b /tmp/cck4IXtd.o
 .debug_macro   0x0000000000000000       0x18 /tmp/cck4IXtd.o
 .debug_macro   0x0000000000000000       0x42 /tmp/cck4IXtd.o
 .debug_macro   0x0000000000000000      0xd39 /tmp/cck4IXtd.o
 .debug_macro   0x0000000000000000     0x8264 /tmp/cck4IXtd.o
 .group         0x0000000000000000        0x8 /tmp/cci0TnCw.o
 .group         0x0000000000000000        0x8 /tmp/cci0TnCw.o
 .group         0x0000000000000000        0x8 /tmp/cci0TnCw.o
 .group         0x0000000000000000        0x8 /tmp/cci0TnCw.o
 .group         0x0000000000000000        0x8 /tmp/cci0TnCw.o
 .group         0x0000000000000000        0x8 /tmp/cci0TnCw.o
 .group         0x0000000000000000        0x8 /tmp/cci0TnCw.o
 .group         0x0000000000000000        0x8 /tmp/cci0TnCw.o
 .group         0x0000000000000000        0x8 /tmp/cci0TnCw.o
 .group         0x0000000000000000        0x8 /tmp/cci0TnCw.o
 .group         0x0000000000000000        0x8 /tmp/cci0TnCw.o
 .group         0x0000000000000000        0x8 /tmp/cci0TnCw.o
 .group         0x0000000000000000        0x8 /tmp/cci0TnCw.o
 .group         0x0000000000000000        0x8 /tmp/cci0TnCw.o
 .group         0x0000000000000000        0x8 /tmp/cci0TnCw.o
 .group         0x0000000000000000        0x8 /tmp/cci0TnCw.o
 .group         0x0000000000000000        0x8 /tmp/cci0TnCw.o
 .group         0x0000000000000000        0x8 /tmp/cci0TnCw.o
 .group         0x0000000000000000        0x8 /tmp/cci0TnCw.o
 .group         0x0000000000000000        0x8 /tmp/cci0TnCw.o
 .group         0x0000000000000000        0x8 /tmp/cci0TnCw.o
 .group         0x0000000000000000        0x8 /tmp/cci0TnCw.o
 .group         0x0000000000000000        0x8 /tmp/cci0TnCw.o
 .group         0x0000000000000000        0x8 /tmp/cci0TnCw.o
 .group         0x0000000000000000        0x8 /tmp/cci0TnCw.o
 .group         0x0000000000000000        0x8 /tmp/cci0TnCw.o
 .group         0x0000000000000000        0x8 /tmp/cci0TnCw.o
 .group         0x0000000000000000        0x8 /tmp/cci0TnCw.o
 .group         0x0000000000000000        0x8 /tmp/cci0TnCw.o
 .group         0x0000000000000000        0x8 /tmp/cci0TnCw.o
 .group         0x0000000000000000        0x8 /tmp/cci0TnCw.o
 .group         0x0000000000000000        0x8 /tmp/cci0TnCw.o
 .group         0x0000000000000000        0x8 /tmp/cci0TnCw.o
 .group         0x0000000000000000        0x8 /tmp/cci0TnCw.o
 .group         0x0000000000000000        0x8 /tmp/cci0TnCw.o
 .group         0x0000000000000000        0x8 /tmp/cci0TnCw.o
 .group         0x0000000000000000        0x8 /tmp/cci0TnCw.o
 .group         0x0000000000000000        0x8 /tmp/cci0TnCw.o
 .group         0x0000000000000000        0x8 /tmp/cci0TnCw.o
 .group         0x0000000000000000        0x8 /tmp/cci0TnCw.o
 .group         0x0000000000000000        0x8 /tmp/cci0TnCw.o
 .group         0x0000000000000000        0x8 /tmp/cci0TnCw.o
 .debug_macro   0x0000000000000000      0x844 /tmp/cci0TnCw.o
 .debug_macro   0x0000000000000000       0x63 /tmp/cci0TnCw.o
 .debug_macro   0x0000000000000000       0x3b /tmp/cci0TnCw.o
 .debug_macro   0x0000000000000000       0x16 /tmp/cci0TnCw.o
 .debug_macro   0x0000000000000000       0x44 /tmp/cci0TnCw.o
 .debug_macro   0x0000000000000000      0x209 /tmp/cci0TnCw.o
 .debug_macro   0x0000000000000000       0x18 /tmp/cci0TnCw.o
 .debug_macro   0x0000000000000000       0x42 /tmp/cci0TnCw.o
 .debug_macro   0x0000000000000000      0xd39 /tmp/cci0TnCw.o
 .debug_macro   0x0000000000000000      0x282 /tmp/cci0TnCw.o
 .debug_macro   0x0000000000000000      0x166 /tmp/cci0TnCw.o
 .debug_macro   0x0000000000000000       0x46 /tmp/cci0TnCw.o
 .debug_macro   0x0000000000000000       0xc4 /tmp/cci0TnCw.o
 .debug_macro   0x0000000000000000       0xa4 /tmp/cci0TnCw.o
 .debug_macro   0x0000000000000000       0x12 /tmp/cci0TnCw.o
 .debug_macro   0x0000000000000000       0x1f /tmp/cci0TnCw.o
 .debug_macro   0x0000000000000000      0x1ee /tmp/cci0TnCw.o
 .debug_macro   0x0000000000000000       0x49 /tmp/cci0TnCw.o
 .debug_macro   0x0000000000000000       0x57 /tmp/cci0TnCw.o
 .debug_macro   0x0000000000000000       0x58 /tmp/cci0TnCw.o
 .debug_macro   0x0000000000000000       0x35 /tmp/cci0TnCw.o
 .debug_macro   0x0000000000000000       0xa3 /tmp/cci0TnCw.o
 .debug_macro   0x0000000000000000       0x52 /tmp/cci0TnCw.o
 .debug_macro   0x0000000000000000       0x16 /tmp/cci0TnCw.o
 .debug_macro   0x0000000000000000       0x43 /tmp/cci0TnCw.o
 .debug_macro   0x0000000000000000      0x180 /tmp/cci0TnCw.o
 .debug_macro   0x0000000000000000      0x2a3 /tmp/cci0TnCw.o
 .debug_macro   0x0000000000000000       0x10 /tmp/cci0TnCw.o
 .debug_macro   0x0000000000000000       0x35 /tmp/cci0TnCw.o
 .debug_macro   0x0000000000000000       0x1c /tmp/cci0TnCw.o
 .debug_macro   0x0000000000000000       0x10 /tmp/cci0TnCw.o
 .debug_macro   0x0000000000000000       0x10 /tmp/cci0TnCw.o
 .debug_macro   0x0000000000000000       0x22 /tmp/cci0TnCw.o
 .debug_macro   0x0000000000000000       0xbd /tmp/cci0TnCw.o
 .debug_macro   0x0000000000000000       0x16 /tmp/cci0TnCw.o
 .debug_macro   0x0000000000000000      0x14a /tmp/cci0TnCw.o

Memory Configuration

Name             Origin             Length             Attributes
flash            0x0000000008000000 0x0000000000100000 xr
sram             0x0000000020000000 0x0000000000030000 xrw
*default*        0x0000000000000000 0xffffffffffffffff

Linker script and memory map


.text           0x0000000008000000     0xcf18
 *(.isr_vector .isr_vector.*)
 .isr_vector    0x0000000008000000      0x188 /tmp/ccmq0gqb.o
                0x0000000008000000                g_pfnVectors
                0x0000000000000400                . = 0x400
 *fill*         0x0000000008000188      0x278 
 *(.text .text.* .gnu.linkonce.t*)
 .text          0x0000000008000400      0x360 /tmp/cc8SCMZU.o
                0x0000000008000400                SystemInit
                0x0000000008000490                SystemCoreClockUpdate
 .text          0x0000000008000760       0x14 /tmp/ccmq0gqb.o
 .text.Reset_Handler
                0x0000000008000774       0x44 /tmp/ccmq0gqb.o
                0x0000000008000774                Reset_Handler
 .text.Default_Handler
                0x00000000080007b8        0x2 /tmp/ccmq0gqb.o
                0x00000000080007b8                RTC_Alarm_IRQHandler
                0x00000000080007b8                HASH_RNG_IRQHandler
                0x00000000080007b8                EXTI2_IRQHandler
                0x00000000080007b8                TIM8_CC_IRQHandler
                0x00000000080007b8                DebugMon_Handler
                0x00000000080007b8                TIM1_CC_IRQHandler
                0x00000000080007b8                DMA2_Stream5_IRQHandler
                0x00000000080007b8                HardFault_Handler
                0x00000000080007b8                DMA1_Stream5_IRQHandler
                0x00000000080007b8                PVD_IRQHandler
                0x00000000080007b8                SDIO_IRQHandler
                0x00000000080007b8                TAMP_STAMP_IRQHandler
                0x00000000080007b8                NMI_Handler
                0x00000000080007b8                CAN2_RX1_IRQHandler
                0x00000000080007b8                EXTI3_IRQHandler
                0x00000000080007b8                TIM8_TRG_COM_TIM14_IRQHandler
                0x00000000080007b8                TIM1_UP_TIM10_IRQHandler
                0x00000000080007b8                TIM8_UP_TIM13_IRQHandler
                0x00000000080007b8                I2C3_ER_IRQHandler
                0x00000000080007b8                EXTI0_IRQHandler
                0x00000000080007b8                I2C2_EV_IRQHandler
                0x00000000080007b8                DMA1_Stream2_IRQHandler
                0x00000000080007b8                CAN1_RX0_IRQHandler
                0x00000000080007b8                FPU_IRQHandler
                0x00000000080007b8                OTG_HS_WKUP_IRQHandler
                0x00000000080007b8                UsageFault_Handler
                0x00000000080007b8                CAN2_SCE_IRQHandler
                0x00000000080007b8                DMA2_Stream2_IRQHandler
                0x00000000080007b8                SPI1_IRQHandler
                0x00000000080007b8                TIM6_DAC_IRQHandler
                0x00000000080007b8                TIM1_BRK_TIM9_IRQHandler
                0x00000000080007b8                DCMI_IRQHandler
                0x00000000080007b8                CAN2_RX0_IRQHandler
                0x00000000080007b8                DMA2_Stream3_IRQHandler
                0x00000000080007b8                USART6_IRQHandler
                0x00000000080007b8                USART3_IRQHandler
                0x00000000080007b8                CRYP_IRQHandler
                0x00000000080007b8                CAN1_RX1_IRQHandler
                0x00000000080007b8                UART5_IRQHandler
                0x00000000080007b8                DMA2_Stream0_IRQHandler
                0x00000000080007b8                TIM4_IRQHandler
                0x00000000080007b8                I2C1_EV_IRQHandler
                0x00000000080007b8                DMA1_Stream6_IRQHandler
                0x00000000080007b8                DMA1_Stream1_IRQHandler
                0x00000000080007b8                UART4_IRQHandler
                0x00000000080007b8                TIM3_IRQHandler
                0x00000000080007b8                RCC_IRQHandler
                0x00000000080007b8                TIM8_BRK_TIM12_IRQHandler
                0x00000000080007b8                Default_Handler
                0x00000000080007b8                EXTI15_10_IRQHandler
                0x00000000080007b8                ADC_IRQHandler
                0x00000000080007b8                DMA1_Stream7_IRQHandler
                0x00000000080007b8                TIM7_IRQHandler
                0x00000000080007b8                CAN2_TX_IRQHandler
                0x00000000080007b8                TIM5_IRQHandler
                0x00000000080007b8                DMA2_Stream7_IRQHandler
                0x00000000080007b8                I2C3_EV_IRQHandler
                0x00000000080007b8                EXTI9_5_IRQHandler
                0x00000000080007b8                RTC_WKUP_IRQHandler
                0x00000000080007b8                ETH_WKUP_IRQHandler
                0x00000000080007b8                SPI2_IRQHandler
                0x00000000080007b8                OTG_HS_EP1_IN_IRQHandler
                0x00000000080007b8                MemManage_Handler
                0x00000000080007b8                DMA1_Stream0_IRQHandler
                0x00000000080007b8                CAN1_TX_IRQHandler
                0x00000000080007b8                EXTI4_IRQHandler
                0x00000000080007b8                FSMC_IRQHandler
                0x00000000080007b8                OTG_HS_EP1_OUT_IRQHandler
                0x00000000080007b8                WWDG_IRQHandler
                0x00000000080007b8                TIM2_IRQHandler
                0x00000000080007b8                OTG_FS_WKUP_IRQHandler
                0x00000000080007b8                TIM1_TRG_COM_TIM11_IRQHandler
                0x00000000080007b8                OTG_HS_IRQHandler
                0x00000000080007b8                EXTI1_IRQHandler
                0x00000000080007b8                USART2_IRQHandler
                0x00000000080007b8                I2C2_ER_IRQHandler
                0x00000000080007b8                DMA2_Stream1_IRQHandler
                0x00000000080007b8                CAN1_SCE_IRQHandler
                0x00000000080007b8                FLASH_IRQHandler
                0x00000000080007b8                DMA2_Stream4_IRQHandler
                0x00000000080007b8                BusFault_Handler
                0x00000000080007b8                USART1_IRQHandler
                0x00000000080007b8                OTG_FS_IRQHandler
                0x00000000080007b8                SPI3_IRQHandler
                0x00000000080007b8                DMA1_Stream4_IRQHandler
                0x00000000080007b8                I2C1_ER_IRQHandler
                0x00000000080007b8                DMA2_Stream6_IRQHandler
                0x00000000080007b8                DMA1_Stream3_IRQHandler
 *fill*         0x00000000080007ba        0x2 
 .text          0x00000000080007bc      0xd10 /tmp/ccf6aV3r.o
                0x00000000080007bc                RCC_DeInit
                0x0000000008000860                RCC_HSEConfig
                0x000000000800088c                RCC_WaitForHSEStartUp
                0x00000000080008dc                RCC_AdjustHSICalibrationValue
                0x0000000008000920                RCC_HSICmd
                0x0000000008000940                RCC_LSEConfig
                0x0000000008000994                RCC_LSICmd
                0x00000000080009b4                RCC_PLLConfig
                0x00000000080009f4                RCC_PLLCmd
                0x0000000008000a14                RCC_PLLI2SConfig
                0x0000000008000a40                RCC_PLLI2SCmd
                0x0000000008000a60                RCC_ClockSecuritySystemCmd
                0x0000000008000a80                RCC_MCO1Config
                0x0000000008000ac4                RCC_MCO2Config
                0x0000000008000b08                RCC_SYSCLKConfig
                0x0000000008000b48                RCC_GetSYSCLKSource
                0x0000000008000b68                RCC_HCLKConfig
                0x0000000008000ba8                RCC_PCLK1Config
                0x0000000008000be8                RCC_PCLK2Config
                0x0000000008000c28                RCC_GetClocksFreq
                0x0000000008000dd0                RCC_RTCCLKConfig
                0x0000000008000e40                RCC_RTCCLKCmd
                0x0000000008000e60                RCC_BackupResetCmd
                0x0000000008000e80                RCC_I2SCLKConfig
                0x0000000008000ea0                RCC_TIMCLKPresConfig
                0x0000000008000ec0                RCC_AHB1PeriphClockCmd
                0x0000000008000f10                RCC_AHB2PeriphClockCmd
                0x0000000008000f60                RCC_AHB3PeriphClockCmd
                0x0000000008000fb0                RCC_APB1PeriphClockCmd
                0x0000000008001000                RCC_APB2PeriphClockCmd
                0x0000000008001050                RCC_AHB1PeriphResetCmd
                0x00000000080010a0                RCC_AHB2PeriphResetCmd
                0x00000000080010f0                RCC_AHB3PeriphResetCmd
                0x0000000008001140                RCC_APB1PeriphResetCmd
                0x0000000008001190                RCC_APB2PeriphResetCmd
                0x00000000080011e0                RCC_AHB1PeriphClockLPModeCmd
                0x0000000008001230                RCC_AHB2PeriphClockLPModeCmd
                0x0000000008001280                RCC_AHB3PeriphClockLPModeCmd
                0x00000000080012d0                RCC_APB1PeriphClockLPModeCmd
                0x0000000008001320                RCC_APB2PeriphClockLPModeCmd
                0x0000000008001370                RCC_ITConfig
                0x00000000080013cc                RCC_GetFlagStatus
                0x0000000008001450                RCC_ClearFlag
                0x0000000008001474                RCC_GetITStatus
                0x00000000080014ac                RCC_ClearITPendingBit
 .text          0x00000000080014cc      0x498 /tmp/ccXqE4VI.o
                0x00000000080014cc                GPIO_DeInit
                0x00000000080015fc                GPIO_Init
                0x0000000008001718                GPIO_StructInit
                0x000000000800174c                GPIO_PinLockConfig
                0x0000000008001790                GPIO_ReadInputDataBit
                0x00000000080017c4                GPIO_ReadInputData
                0x00000000080017e0                GPIO_ReadOutputDataBit
                0x0000000008001814                GPIO_ReadOutputData
                0x0000000008001830                GPIO_SetBits
                0x000000000800184c                GPIO_ResetBits
                0x0000000008001868                GPIO_WriteBit
                0x0000000008001898                GPIO_Write
                0x00000000080018b4                GPIO_ToggleBits
                0x00000000080018d8                GPIO_PinAFConfig
 .text          0x0000000008001964      0x97c /tmp/ccewRW4Z.o
                0x0000000008001964                USART_DeInit
                0x0000000008001a88                USART_Init
                0x0000000008001c10                USART_StructInit
                0x0000000008001c48                USART_ClockInit
                0x0000000008001c9c                USART_ClockStructInit
                0x0000000008001cc8                USART_Cmd
                0x0000000008001d08                USART_SetPrescaler
                0x0000000008001d40                USART_OverSampling8Cmd
                0x0000000008001d84                USART_OneBitMethodCmd
                0x0000000008001dc4                USART_SendData
                0x0000000008001de8                USART_ReceiveData
                0x0000000008001e08                USART_SetAddress
                0x0000000008001e40                USART_ReceiverWakeUpCmd
                0x0000000008001e80                USART_WakeUpConfig
                0x0000000008001eb8                USART_LINBreakDetectLengthConfig
                0x0000000008001ef0                USART_LINCmd
                0x0000000008001f30                USART_SendBreak
                0x0000000008001f54                USART_HalfDuplexCmd
                0x0000000008001f94                USART_SetGuardTime
                0x0000000008001fd0                USART_SmartCardCmd
                0x0000000008002010                USART_SmartCardNACKCmd
                0x0000000008002050                USART_IrDAConfig
                0x0000000008002088                USART_IrDACmd
                0x00000000080020c8                USART_DMACmd
                0x0000000008002110                USART_ITConfig
                0x00000000080021a0                USART_GetFlagStatus
                0x00000000080021d8                USART_ClearFlag
                0x00000000080021f8                USART_GetITStatus
                0x00000000080022a8                USART_ClearITPendingBit
 .text          0x00000000080022e0      0x29c /tmp/cciNRtqh.o
                0x00000000080022e0                EXTI_DeInit
                0x0000000008002330                EXTI_Init
                0x000000000800245c                EXTI_StructInit
                0x0000000008002488                EXTI_GenerateSWInterrupt
                0x00000000080024b4                EXTI_GetFlagStatus
                0x00000000080024ec                EXTI_ClearFlag
                0x000000000800250c                EXTI_GetITStatus
                0x000000000800255c                EXTI_ClearITPendingBit
 .text          0x000000000800257c      0x1c0 /tmp/ccbHfsZy.o
                0x000000000800257c                NVIC_PriorityGroupConfig
                0x00000000080025a4                NVIC_Init
                0x0000000008002670                NVIC_SetVectorTable
                0x000000000800269c                NVIC_SystemLPConfig
                0x00000000080026f0                SysTick_CLKSourceConfig
 .text          0x000000000800273c      0x51c /tmp/ccHG3MIQ.o
                0x000000000800273c                xCoRoutineCreate
                0x0000000008002818                vCoRoutineAddToDelayedList
                0x0000000008002aac                vCoRoutineSchedule
                0x0000000008002c04                xCoRoutineRemoveFromEventList
 .text          0x0000000008002c58      0x168 /tmp/cciA8gx8.o
                0x0000000008002c58                vListInitialise
                0x0000000008002c98                vListInitialiseItem
                0x0000000008002cb0                vListInsertEnd
                0x0000000008002d00                vListInsert
                0x0000000008002d70                vListRemove
 .text          0x0000000008002dc0      0x7dc /tmp/cclQzAuq.o
                0x0000000008002dc0                xQueueGenericReset
                0x0000000008002e5c                xQueueGenericCreate
                0x0000000008002ecc                xQueueCreateMutex
                0x0000000008002f48                xQueueGetMutexHolder
                0x0000000008002f78                xQueueGenericSend
                0x0000000008003084                xQueueGenericSendFromISR
                0x0000000008003104                xQueueGenericReceive
                0x0000000008003270                xQueueReceiveFromISR
                0x00000000080032f4                uxQueueMessagesWaiting
                0x0000000008003314                uxQueueMessagesWaitingFromISR
                0x0000000008003330                vQueueDelete
                0x0000000008003518                xQueueIsQueueEmptyFromISR
                0x0000000008003570                xQueueIsQueueFullFromISR
 .text          0x000000000800359c     0x11e8 /tmp/ccisHkFI.o
                0x000000000800359c                xTaskGenericCreate
                0x000000000800373c                vTaskDelete
                0x00000000080037f0                vTaskDelayUntil
                0x0000000008003898                vTaskDelay
                0x00000000080038ec                uxTaskPriorityGet
                0x0000000008003924                vTaskPrioritySet
                0x0000000008003a34                vTaskSuspend
                0x0000000008003ae8                xTaskIsTaskSuspended
                0x0000000008003b34                vTaskResume
                0x0000000008003bd4                xTaskResumeFromISR
                0x0000000008003c98                vTaskStartScheduler
                0x0000000008003cf8                vTaskEndScheduler
                0x0000000008003d18                vTaskSuspendAll
                0x0000000008003d3c                xTaskResumeAll
                0x0000000008003e70                xTaskGetTickCount
                0x0000000008003e94                xTaskGetTickCountFromISR
                0x0000000008003ec8                uxTaskGetNumberOfTasks
                0x0000000008003ee0                vTaskIncrementTick
                0x000000000800409c                vTaskSwitchContext
                0x0000000008004154                vTaskPlaceOnEventList
                0x00000000080041c4                xTaskRemoveFromEventList
                0x0000000008004274                vTaskSetTimeOutState
                0x00000000080042a4                xTaskCheckForTimeOut
                0x000000000800433c                vTaskMissedYield
                0x0000000008004618                xTaskGetCurrentTaskHandle
                0x0000000008004638                vTaskPriorityInherit
                0x0000000008004700                vTaskPriorityDisinherit
 .text          0x0000000008004784      0x200 /tmp/ccKufXV0.o
                0x0000000008004784                pxPortInitialiseStack
                0x00000000080047d8                SVC_Handler
                0x0000000008004808                xPortStartScheduler
                0x0000000008004858                vPortEndScheduler
                0x0000000008004864                vPortYieldFromISR
                0x0000000008004880                vPortEnterCritical
                0x00000000080048ac                vPortExitCritical
                0x00000000080048e4                PendSV_Handler
                0x0000000008004920                SysTick_Handler
 .text          0x0000000008004984       0xd8 /tmp/ccFDWphj.o
                0x0000000008004984                pvPortMalloc
                0x0000000008004a14                vPortFree
                0x0000000008004a28                vPortInitialiseBlocks
                0x0000000008004a40                xPortGetFreeHeapSize
 .text          0x0000000008004a5c      0xf10 /tmp/ccOeehRB.o
                0x0000000008004ae8                enet_read_phy_reg
                0x0000000008004b4c                enet_write_phy_reg
                0x0000000008004bd4                enet_init
                0x0000000008005250                ETH_IRQHandler
                0x00000000080053f4                enet_get_link_status
                0x0000000008005504                eth_htons
                0x0000000008005530                eth_htonl
                0x0000000008005564                enet_send_udp_mcast
                0x00000000080055c8                enet_send_udp_ucast
                0x0000000008005730                enet_process_rx_ring
 .text          0x000000000800596c      0x168 /tmp/ccVQAlBU.o
                0x000000000800596c                _sbrk
                0x00000000080059c8                _kill
                0x00000000080059e4                _exit
                0x00000000080059f0                _getpid
                0x0000000008005a00                _write
                0x0000000008005a20                _close
                0x0000000008005a38                _fstat
                0x0000000008005a58                _isatty
                0x0000000008005a70                _lseek
                0x0000000008005a8c                _read
                0x0000000008005aa8                fputc
                0x0000000008005ac0                _ttywrch
 .text          0x0000000008005ad4      0x150 /tmp/cck4IXtd.o
                0x0000000008005ad4                console_init
                0x0000000008005bac                console_send_block
 .text          0x0000000008005c24      0x1ec /tmp/cci0TnCw.o
                0x0000000008005c24                led_flash_task
                0x0000000008005c7c                networking_receive
                0x0000000008005c9c                networking_send
                0x0000000008005d00                led2_task
                0x0000000008005d28                myTraceCreate
                0x0000000008005d34                myTraceSwitchedIn
                0x0000000008005d40                myTraceSwitchedOut
                0x0000000008005d4c                vApplicationTickHook
                0x0000000008005d58                main
 .text          0x0000000008005e10       0xec /usr/lib/gcc/arm-none-eabi/4.8.2/../../../arm-none-eabi/lib/armv7-m/libg.a(lib_a-memcpy.o)
                0x0000000008005e10                memcpy
 .text          0x0000000008005efc        0x0 /usr/lib/gcc/arm-none-eabi/4.8.2/../../../arm-none-eabi/lib/armv7-m/libg.a(lib_a-memset.o)
 .text.memset   0x0000000008005efc       0x94 /usr/lib/gcc/arm-none-eabi/4.8.2/../../../arm-none-eabi/lib/armv7-m/libg.a(lib_a-memset.o)
                0x0000000008005efc                memset
 .text          0x0000000008005f90        0x0 /usr/lib/gcc/arm-none-eabi/4.8.2/../../../arm-none-eabi/lib/armv7-m/libg.a(lib_a-printf.o)
 .text._printf_r
                0x0000000008005f90       0x20 /usr/lib/gcc/arm-none-eabi/4.8.2/../../../arm-none-eabi/lib/armv7-m/libg.a(lib_a-printf.o)
                0x0000000008005f90                _printf_r
 .text.printf   0x0000000008005fb0       0x2c /usr/lib/gcc/arm-none-eabi/4.8.2/../../../arm-none-eabi/lib/armv7-m/libg.a(lib_a-printf.o)
                0x0000000008005fb0                printf
 .text          0x0000000008005fdc        0x0 /usr/lib/gcc/arm-none-eabi/4.8.2/../../../arm-none-eabi/lib/armv7-m/libg.a(lib_a-puts.o)
 .text._puts_r  0x0000000008005fdc       0x68 /usr/lib/gcc/arm-none-eabi/4.8.2/../../../arm-none-eabi/lib/armv7-m/libg.a(lib_a-puts.o)
                0x0000000008005fdc                _puts_r
 .text.puts     0x0000000008006044       0x10 /usr/lib/gcc/arm-none-eabi/4.8.2/../../../arm-none-eabi/lib/armv7-m/libg.a(lib_a-puts.o)
                0x0000000008006044                puts
 .text          0x0000000008006054        0x0 /usr/lib/gcc/arm-none-eabi/4.8.2/../../../arm-none-eabi/lib/armv7-m/libg.a(lib_a-strlen.o)
 .text.strlen   0x0000000008006054       0x60 /usr/lib/gcc/arm-none-eabi/4.8.2/../../../arm-none-eabi/lib/armv7-m/libg.a(lib_a-strlen.o)
                0x0000000008006054                strlen
 .text          0x00000000080060b4        0x0 /usr/lib/gcc/arm-none-eabi/4.8.2/../../../arm-none-eabi/lib/armv7-m/libg.a(lib_a-strncpy.o)
 .text.strncpy  0x00000000080060b4       0x68 /usr/lib/gcc/arm-none-eabi/4.8.2/../../../arm-none-eabi/lib/armv7-m/libg.a(lib_a-strncpy.o)
                0x00000000080060b4                strncpy
 .text          0x000000000800611c        0x0 /usr/lib/gcc/arm-none-eabi/4.8.2/../../../arm-none-eabi/lib/armv7-m/libg.a(lib_a-vfprintf.o)
 .text._vfprintf_r
                0x000000000800611c     0x1524 /usr/lib/gcc/arm-none-eabi/4.8.2/../../../arm-none-eabi/lib/armv7-m/libg.a(lib_a-vfprintf.o)
                0x000000000800611c                _vfprintf_r
 .text.vfprintf
                0x0000000008007640       0x1c /usr/lib/gcc/arm-none-eabi/4.8.2/../../../arm-none-eabi/lib/armv7-m/libg.a(lib_a-vfprintf.o)
                0x0000000008007640                vfprintf
 .text.__sbprintf
                0x000000000800765c       0x7c /usr/lib/gcc/arm-none-eabi/4.8.2/../../../arm-none-eabi/lib/armv7-m/libg.a(lib_a-vfprintf.o)
 .text          0x00000000080076d8        0x0 /usr/lib/gcc/arm-none-eabi/4.8.2/../../../arm-none-eabi/lib/armv7-m/libg.a(lib_a-wsetup.o)
 .text.__swsetup_r
                0x00000000080076d8       0xc8 /usr/lib/gcc/arm-none-eabi/4.8.2/../../../arm-none-eabi/lib/armv7-m/libg.a(lib_a-wsetup.o)
                0x00000000080076d8                __swsetup_r
 .text          0x00000000080077a0        0x0 /usr/lib/gcc/arm-none-eabi/4.8.2/../../../arm-none-eabi/lib/armv7-m/libg.a(lib_a-dtoa.o)
 .text.quorem   0x00000000080077a0      0x130 /usr/lib/gcc/arm-none-eabi/4.8.2/../../../arm-none-eabi/lib/armv7-m/libg.a(lib_a-dtoa.o)
 .text._dtoa_r  0x00000000080078d0      0xf58 /usr/lib/gcc/arm-none-eabi/4.8.2/../../../arm-none-eabi/lib/armv7-m/libg.a(lib_a-dtoa.o)
                0x00000000080078d0                _dtoa_r
 .text          0x0000000008008828        0x0 /usr/lib/gcc/arm-none-eabi/4.8.2/../../../arm-none-eabi/lib/armv7-m/libg.a(lib_a-fflush.o)
 .text.__sflush_r
                0x0000000008008828      0x14c /usr/lib/gcc/arm-none-eabi/4.8.2/../../../arm-none-eabi/lib/armv7-m/libg.a(lib_a-fflush.o)
                0x0000000008008828                __sflush_r
 .text._fflush_r
                0x0000000008008974       0x2c /usr/lib/gcc/arm-none-eabi/4.8.2/../../../arm-none-eabi/lib/armv7-m/libg.a(lib_a-fflush.o)
                0x0000000008008974                _fflush_r
 .text.fflush   0x00000000080089a0       0x28 /usr/lib/gcc/arm-none-eabi/4.8.2/../../../arm-none-eabi/lib/armv7-m/libg.a(lib_a-fflush.o)
                0x00000000080089a0                fflush
 .text          0x00000000080089c8        0x0 /usr/lib/gcc/arm-none-eabi/4.8.2/../../../arm-none-eabi/lib/armv7-m/libg.a(lib_a-findfp.o)
 .text.__fp_lock
                0x00000000080089c8        0x4 /usr/lib/gcc/arm-none-eabi/4.8.2/../../../arm-none-eabi/lib/armv7-m/libg.a(lib_a-findfp.o)
 .text.__fp_unlock
                0x00000000080089cc        0x4 /usr/lib/gcc/arm-none-eabi/4.8.2/../../../arm-none-eabi/lib/armv7-m/libg.a(lib_a-findfp.o)
 .text._cleanup_r
                0x00000000080089d0        0xc /usr/lib/gcc/arm-none-eabi/4.8.2/../../../arm-none-eabi/lib/armv7-m/libg.a(lib_a-findfp.o)
                0x00000000080089d0                _cleanup_r
 .text.__sfmoreglue
                0x00000000080089dc       0x30 /usr/lib/gcc/arm-none-eabi/4.8.2/../../../arm-none-eabi/lib/armv7-m/libg.a(lib_a-findfp.o)
                0x00000000080089dc                __sfmoreglue
 .text._cleanup
                0x0000000008008a0c       0x18 /usr/lib/gcc/arm-none-eabi/4.8.2/../../../arm-none-eabi/lib/armv7-m/libg.a(lib_a-findfp.o)
                0x0000000008008a0c                _cleanup
 .text.__sinit  0x0000000008008a24       0xf8 /usr/lib/gcc/arm-none-eabi/4.8.2/../../../arm-none-eabi/lib/armv7-m/libg.a(lib_a-findfp.o)
                0x0000000008008a24                __sinit
 .text.__sfp    0x0000000008008b1c       0x8c /usr/lib/gcc/arm-none-eabi/4.8.2/../../../arm-none-eabi/lib/armv7-m/libg.a(lib_a-findfp.o)
                0x0000000008008b1c                __sfp
 .text.__sfp_lock_acquire
                0x0000000008008ba8        0x4 /usr/lib/gcc/arm-none-eabi/4.8.2/../../../arm-none-eabi/lib/armv7-m/libg.a(lib_a-findfp.o)
                0x0000000008008ba8                __sfp_lock_acquire
 .text.__sfp_lock_release
                0x0000000008008bac        0x4 /usr/lib/gcc/arm-none-eabi/4.8.2/../../../arm-none-eabi/lib/armv7-m/libg.a(lib_a-findfp.o)
                0x0000000008008bac                __sfp_lock_release
 .text.__sinit_lock_acquire
                0x0000000008008bb0        0x4 /usr/lib/gcc/arm-none-eabi/4.8.2/../../../arm-none-eabi/lib/armv7-m/libg.a(lib_a-findfp.o)
                0x0000000008008bb0                __sinit_lock_acquire
 .text.__sinit_lock_release
                0x0000000008008bb4        0x4 /usr/lib/gcc/arm-none-eabi/4.8.2/../../../arm-none-eabi/lib/armv7-m/libg.a(lib_a-findfp.o)
                0x0000000008008bb4                __sinit_lock_release
 .text.__fp_lock_all
                0x0000000008008bb8       0x18 /usr/lib/gcc/arm-none-eabi/4.8.2/../../../arm-none-eabi/lib/armv7-m/libg.a(lib_a-findfp.o)
                0x0000000008008bb8                __fp_lock_all
 .text.__fp_unlock_all
                0x0000000008008bd0       0x18 /usr/lib/gcc/arm-none-eabi/4.8.2/../../../arm-none-eabi/lib/armv7-m/libg.a(lib_a-findfp.o)
                0x0000000008008bd0                __fp_unlock_all
 .text          0x0000000008008be8        0x0 /usr/lib/gcc/arm-none-eabi/4.8.2/../../../arm-none-eabi/lib/armv7-m/libg.a(lib_a-freer.o)
 .text._malloc_trim_r
                0x0000000008008be8       0xa4 /usr/lib/gcc/arm-none-eabi/4.8.2/../../../arm-none-eabi/lib/armv7-m/libg.a(lib_a-freer.o)
                0x0000000008008be8                _malloc_trim_r
 .text._free_r  0x0000000008008c8c      0x198 /usr/lib/gcc/arm-none-eabi/4.8.2/../../../arm-none-eabi/lib/armv7-m/libg.a(lib_a-freer.o)
                0x0000000008008c8c                _free_r
 .text          0x0000000008008e24        0x0 /usr/lib/gcc/arm-none-eabi/4.8.2/../../../arm-none-eabi/lib/armv7-m/libg.a(lib_a-fvwrite.o)
 .text.__sfvwrite_r
                0x0000000008008e24      0x314 /usr/lib/gcc/arm-none-eabi/4.8.2/../../../arm-none-eabi/lib/armv7-m/libg.a(lib_a-fvwrite.o)
                0x0000000008008e24                __sfvwrite_r
 .text          0x0000000008009138        0x0 /usr/lib/gcc/arm-none-eabi/4.8.2/../../../arm-none-eabi/lib/armv7-m/libg.a(lib_a-fwalk.o)
 .text._fwalk   0x0000000008009138       0x48 /usr/lib/gcc/arm-none-eabi/4.8.2/../../../arm-none-eabi/lib/armv7-m/libg.a(lib_a-fwalk.o)
                0x0000000008009138                _fwalk
 .text._fwalk_reent
                0x0000000008009180       0x4c /usr/lib/gcc/arm-none-eabi/4.8.2/../../../arm-none-eabi/lib/armv7-m/libg.a(lib_a-fwalk.o)
                0x0000000008009180                _fwalk_reent
 .text          0x00000000080091cc        0x0 /usr/lib/gcc/arm-none-eabi/4.8.2/../../../arm-none-eabi/lib/armv7-m/libg.a(lib_a-impure.o)
 .text          0x00000000080091cc        0x0 /usr/lib/gcc/arm-none-eabi/4.8.2/../../../arm-none-eabi/lib/armv7-m/libg.a(lib_a-locale.o)
 .text._setlocale_r
                0x00000000080091cc       0x54 /usr/lib/gcc/arm-none-eabi/4.8.2/../../../arm-none-eabi/lib/armv7-m/libg.a(lib_a-locale.o)
                0x00000000080091cc                _setlocale_r
 .text.__locale_charset
                0x0000000008009220        0xc /usr/lib/gcc/arm-none-eabi/4.8.2/../../../arm-none-eabi/lib/armv7-m/libg.a(lib_a-locale.o)
                0x0000000008009220                __locale_charset
 .text.__locale_mb_cur_max
                0x000000000800922c        0xc /usr/lib/gcc/arm-none-eabi/4.8.2/../../../arm-none-eabi/lib/armv7-m/libg.a(lib_a-locale.o)
                0x000000000800922c                __locale_mb_cur_max
 .text.__locale_msgcharset
                0x0000000008009238        0xc /usr/lib/gcc/arm-none-eabi/4.8.2/../../../arm-none-eabi/lib/armv7-m/libg.a(lib_a-locale.o)
                0x0000000008009238                __locale_msgcharset
 .text.__locale_cjk_lang
                0x0000000008009244        0x4 /usr/lib/gcc/arm-none-eabi/4.8.2/../../../arm-none-eabi/lib/armv7-m/libg.a(lib_a-locale.o)
                0x0000000008009244                __locale_cjk_lang
 .text._localeconv_r
                0x0000000008009248        0xc /usr/lib/gcc/arm-none-eabi/4.8.2/../../../arm-none-eabi/lib/armv7-m/libg.a(lib_a-locale.o)
                0x0000000008009248                _localeconv_r
 .text.setlocale
                0x0000000008009254       0x14 /usr/lib/gcc/arm-none-eabi/4.8.2/../../../arm-none-eabi/lib/armv7-m/libg.a(lib_a-locale.o)
                0x0000000008009254                setlocale
 .text.localeconv
                0x0000000008009268        0xc /usr/lib/gcc/arm-none-eabi/4.8.2/../../../arm-none-eabi/lib/armv7-m/libg.a(lib_a-locale.o)
                0x0000000008009268                localeconv
 .text          0x0000000008009274        0x0 /usr/lib/gcc/arm-none-eabi/4.8.2/../../../arm-none-eabi/lib/armv7-m/libg.a(lib_a-makebuf.o)
 .text.__smakebuf_r
                0x0000000008009274       0xe4 /usr/lib/gcc/arm-none-eabi/4.8.2/../../../arm-none-eabi/lib/armv7-m/libg.a(lib_a-makebuf.o)
                0x0000000008009274                __smakebuf_r
 .text          0x0000000008009358        0x0 /usr/lib/gcc/arm-none-eabi/4.8.2/../../../arm-none-eabi/lib/armv7-m/libg.a(lib_a-mallocr.o)
 .text._malloc_r
                0x0000000008009358      0x564 /usr/lib/gcc/arm-none-eabi/4.8.2/../../../arm-none-eabi/lib/armv7-m/libg.a(lib_a-mallocr.o)
                0x0000000008009358                _malloc_r
 .text          0x00000000080098bc        0x0 /usr/lib/gcc/arm-none-eabi/4.8.2/../../../arm-none-eabi/lib/armv7-m/libg.a(lib_a-memchr-stub.o)
 .text.memchr   0x00000000080098bc       0x94 /usr/lib/gcc/arm-none-eabi/4.8.2/../../../arm-none-eabi/lib/armv7-m/libg.a(lib_a-memchr-stub.o)
                0x00000000080098bc                memchr
 .text          0x0000000008009950        0x0 /usr/lib/gcc/arm-none-eabi/4.8.2/../../../arm-none-eabi/lib/armv7-m/libg.a(lib_a-memmove.o)
 .text.memmove  0x0000000008009950       0xcc /usr/lib/gcc/arm-none-eabi/4.8.2/../../../arm-none-eabi/lib/armv7-m/libg.a(lib_a-memmove.o)
                0x0000000008009950                memmove
 .text          0x0000000008009a1c        0x0 /usr/lib/gcc/arm-none-eabi/4.8.2/../../../arm-none-eabi/lib/armv7-m/libg.a(lib_a-mlock.o)
 .text.__malloc_lock
                0x0000000008009a1c        0x4 /usr/lib/gcc/arm-none-eabi/4.8.2/../../../arm-none-eabi/lib/armv7-m/libg.a(lib_a-mlock.o)
                0x0000000008009a1c                __malloc_lock
 .text.__malloc_unlock
                0x0000000008009a20        0x4 /usr/lib/gcc/arm-none-eabi/4.8.2/../../../arm-none-eabi/lib/armv7-m/libg.a(lib_a-mlock.o)
                0x0000000008009a20                __malloc_unlock
 .text          0x0000000008009a24        0x0 /usr/lib/gcc/arm-none-eabi/4.8.2/../../../arm-none-eabi/lib/armv7-m/libg.a(lib_a-mprec.o)
 .text._Balloc  0x0000000008009a24       0x4c /usr/lib/gcc/arm-none-eabi/4.8.2/../../../arm-none-eabi/lib/armv7-m/libg.a(lib_a-mprec.o)
                0x0000000008009a24                _Balloc
 .text._Bfree   0x0000000008009a70       0x14 /usr/lib/gcc/arm-none-eabi/4.8.2/../../../arm-none-eabi/lib/armv7-m/libg.a(lib_a-mprec.o)
                0x0000000008009a70                _Bfree
 .text.__multadd
                0x0000000008009a84       0x94 /usr/lib/gcc/arm-none-eabi/4.8.2/../../../arm-none-eabi/lib/armv7-m/libg.a(lib_a-mprec.o)
                0x0000000008009a84                __multadd
 .text.__s2b    0x0000000008009b18       0x9c /usr/lib/gcc/arm-none-eabi/4.8.2/../../../arm-none-eabi/lib/armv7-m/libg.a(lib_a-mprec.o)
                0x0000000008009b18                __s2b
 .text.__hi0bits
                0x0000000008009bb4       0x3c /usr/lib/gcc/arm-none-eabi/4.8.2/../../../arm-none-eabi/lib/armv7-m/libg.a(lib_a-mprec.o)
                0x0000000008009bb4                __hi0bits
 .text.__lo0bits
                0x0000000008009bf0       0x5c /usr/lib/gcc/arm-none-eabi/4.8.2/../../../arm-none-eabi/lib/armv7-m/libg.a(lib_a-mprec.o)
                0x0000000008009bf0                __lo0bits
 .text.__i2b    0x0000000008009c4c       0x14 /usr/lib/gcc/arm-none-eabi/4.8.2/../../../arm-none-eabi/lib/armv7-m/libg.a(lib_a-mprec.o)
                0x0000000008009c4c                __i2b
 .text.__multiply
                0x0000000008009c60      0x154 /usr/lib/gcc/arm-none-eabi/4.8.2/../../../arm-none-eabi/lib/armv7-m/libg.a(lib_a-mprec.o)
                0x0000000008009c60                __multiply
 .text.__pow5mult
                0x0000000008009db4       0xa0 /usr/lib/gcc/arm-none-eabi/4.8.2/../../../arm-none-eabi/lib/armv7-m/libg.a(lib_a-mprec.o)
                0x0000000008009db4                __pow5mult
 .text.__lshift
                0x0000000008009e54       0xbc /usr/lib/gcc/arm-none-eabi/4.8.2/../../../arm-none-eabi/lib/armv7-m/libg.a(lib_a-mprec.o)
                0x0000000008009e54                __lshift
 .text.__mcmp   0x0000000008009f10       0x44 /usr/lib/gcc/arm-none-eabi/4.8.2/../../../arm-none-eabi/lib/armv7-m/libg.a(lib_a-mprec.o)
                0x0000000008009f10                __mcmp
 .text.__mdiff  0x0000000008009f54       0xd4 /usr/lib/gcc/arm-none-eabi/4.8.2/../../../arm-none-eabi/lib/armv7-m/libg.a(lib_a-mprec.o)
                0x0000000008009f54                __mdiff
 .text.__ulp    0x000000000800a028       0x40 /usr/lib/gcc/arm-none-eabi/4.8.2/../../../arm-none-eabi/lib/armv7-m/libg.a(lib_a-mprec.o)
                0x000000000800a028                __ulp
 .text.__b2d    0x000000000800a068       0xb8 /usr/lib/gcc/arm-none-eabi/4.8.2/../../../arm-none-eabi/lib/armv7-m/libg.a(lib_a-mprec.o)
                0x000000000800a068                __b2d
 .text.__d2b    0x000000000800a120       0xbc /usr/lib/gcc/arm-none-eabi/4.8.2/../../../arm-none-eabi/lib/armv7-m/libg.a(lib_a-mprec.o)
                0x000000000800a120                __d2b
 .text.__ratio  0x000000000800a1dc       0x5c /usr/lib/gcc/arm-none-eabi/4.8.2/../../../arm-none-eabi/lib/armv7-m/libg.a(lib_a-mprec.o)
                0x000000000800a1dc                __ratio
 .text._mprec_log10
                0x000000000800a238       0x34 /usr/lib/gcc/arm-none-eabi/4.8.2/../../../arm-none-eabi/lib/armv7-m/libg.a(lib_a-mprec.o)
                0x000000000800a238                _mprec_log10
 .text.__copybits
                0x000000000800a26c       0x48 /usr/lib/gcc/arm-none-eabi/4.8.2/../../../arm-none-eabi/lib/armv7-m/libg.a(lib_a-mprec.o)
                0x000000000800a26c                __copybits
 .text.__any_on
                0x000000000800a2b4       0x5c /usr/lib/gcc/arm-none-eabi/4.8.2/../../../arm-none-eabi/lib/armv7-m/libg.a(lib_a-mprec.o)
                0x000000000800a2b4                __any_on
 .text          0x000000000800a310        0x0 /usr/lib/gcc/arm-none-eabi/4.8.2/../../../arm-none-eabi/lib/armv7-m/libg.a(lib_a-reallocr.o)
 .text._realloc_r
                0x000000000800a310      0x3e4 /usr/lib/gcc/arm-none-eabi/4.8.2/../../../arm-none-eabi/lib/armv7-m/libg.a(lib_a-reallocr.o)
                0x000000000800a310                _realloc_r
 .text          0x000000000800a6f4        0x0 /usr/lib/gcc/arm-none-eabi/4.8.2/../../../arm-none-eabi/lib/armv7-m/libg.a(lib_a-s_fpclassify.o)
 .text.__fpclassifyd
                0x000000000800a6f4       0x50 /usr/lib/gcc/arm-none-eabi/4.8.2/../../../arm-none-eabi/lib/armv7-m/libg.a(lib_a-s_fpclassify.o)
                0x000000000800a6f4                __fpclassifyd
 .text          0x000000000800a744        0x0 /usr/lib/gcc/arm-none-eabi/4.8.2/../../../arm-none-eabi/lib/armv7-m/libg.a(lib_a-sbrkr.o)
 .text._sbrk_r  0x000000000800a744       0x28 /usr/lib/gcc/arm-none-eabi/4.8.2/../../../arm-none-eabi/lib/armv7-m/libg.a(lib_a-sbrkr.o)
                0x000000000800a744                _sbrk_r
 .text          0x000000000800a76c        0x0 /usr/lib/gcc/arm-none-eabi/4.8.2/../../../arm-none-eabi/lib/armv7-m/libg.a(lib_a-stdio.o)
 .text.__sread  0x000000000800a76c       0x24 /usr/lib/gcc/arm-none-eabi/4.8.2/../../../arm-none-eabi/lib/armv7-m/libg.a(lib_a-stdio.o)
                0x000000000800a76c                __sread
 .text.__seofread
                0x000000000800a790        0x4 /usr/lib/gcc/arm-none-eabi/4.8.2/../../../arm-none-eabi/lib/armv7-m/libg.a(lib_a-stdio.o)
                0x000000000800a790                __seofread
 .text.__swrite
                0x000000000800a794       0x38 /usr/lib/gcc/arm-none-eabi/4.8.2/../../../arm-none-eabi/lib/armv7-m/libg.a(lib_a-stdio.o)
                0x000000000800a794                __swrite
 .text.__sseek  0x000000000800a7cc       0x20 /usr/lib/gcc/arm-none-eabi/4.8.2/../../../arm-none-eabi/lib/armv7-m/libg.a(lib_a-stdio.o)
                0x000000000800a7cc                __sseek
 .text.__sclose
                0x000000000800a7ec        0x8 /usr/lib/gcc/arm-none-eabi/4.8.2/../../../arm-none-eabi/lib/armv7-m/libg.a(lib_a-stdio.o)
                0x000000000800a7ec                __sclose
 .text          0x000000000800a7f4      0x23c /usr/lib/gcc/arm-none-eabi/4.8.2/../../../arm-none-eabi/lib/armv7-m/libg.a(lib_a-strcmp.o)
                0x000000000800a7f4                strcmp
 .text          0x000000000800aa30        0x0 /usr/lib/gcc/arm-none-eabi/4.8.2/../../../arm-none-eabi/lib/armv7-m/libg.a(lib_a-vfiprintf.o)
 .text.__sprint_r.part.0
                0x000000000800aa30       0x7c /usr/lib/gcc/arm-none-eabi/4.8.2/../../../arm-none-eabi/lib/armv7-m/libg.a(lib_a-vfiprintf.o)
 .text.__sprint_r
                0x000000000800aaac       0x18 /usr/lib/gcc/arm-none-eabi/4.8.2/../../../arm-none-eabi/lib/armv7-m/libg.a(lib_a-vfiprintf.o)
                0x000000000800aaac                __sprint_r
 .text._vfiprintf_r
                0x000000000800aac4      0xc04 /usr/lib/gcc/arm-none-eabi/4.8.2/../../../arm-none-eabi/lib/armv7-m/libg.a(lib_a-vfiprintf.o)
                0x000000000800aac4                _vfiprintf_r
 .text.vfiprintf
                0x000000000800b6c8       0x1c /usr/lib/gcc/arm-none-eabi/4.8.2/../../../arm-none-eabi/lib/armv7-m/libg.a(lib_a-vfiprintf.o)
                0x000000000800b6c8                vfiprintf
 .text.__sbprintf
                0x000000000800b6e4       0x7c /usr/lib/gcc/arm-none-eabi/4.8.2/../../../arm-none-eabi/lib/armv7-m/libg.a(lib_a-vfiprintf.o)
 .text          0x000000000800b760        0x0 /usr/lib/gcc/arm-none-eabi/4.8.2/../../../arm-none-eabi/lib/armv7-m/libg.a(lib_a-writer.o)
 .text._write_r
                0x000000000800b760       0x2c /usr/lib/gcc/arm-none-eabi/4.8.2/../../../arm-none-eabi/lib/armv7-m/libg.a(lib_a-writer.o)
                0x000000000800b760                _write_r
 .text          0x000000000800b78c        0x0 /usr/lib/gcc/arm-none-eabi/4.8.2/../../../arm-none-eabi/lib/armv7-m/libg.a(lib_a-callocr.o)
 .text._calloc_r
                0x000000000800b78c       0x60 /usr/lib/gcc/arm-none-eabi/4.8.2/../../../arm-none-eabi/lib/armv7-m/libg.a(lib_a-callocr.o)
                0x000000000800b78c                _calloc_r
 .text          0x000000000800b7ec        0x0 /usr/lib/gcc/arm-none-eabi/4.8.2/../../../arm-none-eabi/lib/armv7-m/libg.a(lib_a-closer.o)
 .text._close_r
                0x000000000800b7ec       0x28 /usr/lib/gcc/arm-none-eabi/4.8.2/../../../arm-none-eabi/lib/armv7-m/libg.a(lib_a-closer.o)
                0x000000000800b7ec                _close_r
 .text          0x000000000800b814        0x0 /usr/lib/gcc/arm-none-eabi/4.8.2/../../../arm-none-eabi/lib/armv7-m/libg.a(lib_a-fclose.o)
 .text._fclose_r
                0x000000000800b814       0x84 /usr/lib/gcc/arm-none-eabi/4.8.2/../../../arm-none-eabi/lib/armv7-m/libg.a(lib_a-fclose.o)
                0x000000000800b814                _fclose_r
 .text.fclose   0x000000000800b898       0x10 /usr/lib/gcc/arm-none-eabi/4.8.2/../../../arm-none-eabi/lib/armv7-m/libg.a(lib_a-fclose.o)
                0x000000000800b898                fclose
 .text          0x000000000800b8a8        0x0 /usr/lib/gcc/arm-none-eabi/4.8.2/../../../arm-none-eabi/lib/armv7-m/libg.a(lib_a-fputwc.o)
 .text._fputwc_r
                0x000000000800b8a8       0xc0 /usr/lib/gcc/arm-none-eabi/4.8.2/../../../arm-none-eabi/lib/armv7-m/libg.a(lib_a-fputwc.o)
                0x000000000800b8a8                _fputwc_r
 .text.fputwc   0x000000000800b968       0x2c /usr/lib/gcc/arm-none-eabi/4.8.2/../../../arm-none-eabi/lib/armv7-m/libg.a(lib_a-fputwc.o)
                0x000000000800b968                fputwc
 .text          0x000000000800b994        0x0 /usr/lib/gcc/arm-none-eabi/4.8.2/../../../arm-none-eabi/lib/armv7-m/libg.a(lib_a-fstatr.o)
 .text._fstat_r
                0x000000000800b994       0x28 /usr/lib/gcc/arm-none-eabi/4.8.2/../../../arm-none-eabi/lib/armv7-m/libg.a(lib_a-fstatr.o)
                0x000000000800b994                _fstat_r
 .text          0x000000000800b9bc        0x0 /usr/lib/gcc/arm-none-eabi/4.8.2/../../../arm-none-eabi/lib/armv7-m/libg.a(lib_a-isattyr.o)
 .text._isatty_r
                0x000000000800b9bc       0x28 /usr/lib/gcc/arm-none-eabi/4.8.2/../../../arm-none-eabi/lib/armv7-m/libg.a(lib_a-isattyr.o)
                0x000000000800b9bc                _isatty_r
 .text          0x000000000800b9e4        0x0 /usr/lib/gcc/arm-none-eabi/4.8.2/../../../arm-none-eabi/lib/armv7-m/libg.a(lib_a-lseekr.o)
 .text._lseek_r
                0x000000000800b9e4       0x2c /usr/lib/gcc/arm-none-eabi/4.8.2/../../../arm-none-eabi/lib/armv7-m/libg.a(lib_a-lseekr.o)
                0x000000000800b9e4                _lseek_r
 .text          0x000000000800ba10        0x0 /usr/lib/gcc/arm-none-eabi/4.8.2/../../../arm-none-eabi/lib/armv7-m/libg.a(lib_a-readr.o)
 .text._read_r  0x000000000800ba10       0x2c /usr/lib/gcc/arm-none-eabi/4.8.2/../../../arm-none-eabi/lib/armv7-m/libg.a(lib_a-readr.o)
                0x000000000800ba10                _read_r
 .text          0x000000000800ba3c        0x0 /usr/lib/gcc/arm-none-eabi/4.8.2/../../../arm-none-eabi/lib/armv7-m/libg.a(lib_a-reent.o)
 .text.cleanup_glue
                0x000000000800ba3c       0x1c /usr/lib/gcc/arm-none-eabi/4.8.2/../../../arm-none-eabi/lib/armv7-m/libg.a(lib_a-reent.o)
                0x000000000800ba3c                cleanup_glue
 .text._reclaim_reent
                0x000000000800ba58       0x94 /usr/lib/gcc/arm-none-eabi/4.8.2/../../../arm-none-eabi/lib/armv7-m/libg.a(lib_a-reent.o)
                0x000000000800ba58                _reclaim_reent
 .text          0x000000000800baec        0x0 /usr/lib/gcc/arm-none-eabi/4.8.2/../../../arm-none-eabi/lib/armv7-m/libg.a(lib_a-wbuf.o)
 .text.__swbuf_r
                0x000000000800baec       0xa4 /usr/lib/gcc/arm-none-eabi/4.8.2/../../../arm-none-eabi/lib/armv7-m/libg.a(lib_a-wbuf.o)
                0x000000000800baec                __swbuf_r
 .text.__swbuf  0x000000000800bb90       0x14 /usr/lib/gcc/arm-none-eabi/4.8.2/../../../arm-none-eabi/lib/armv7-m/libg.a(lib_a-wbuf.o)
                0x000000000800bb90                __swbuf
 .text          0x000000000800bba4        0x0 /usr/lib/gcc/arm-none-eabi/4.8.2/../../../arm-none-eabi/lib/armv7-m/libg.a(lib_a-wcrtomb.o)
 .text._wcrtomb_r
                0x000000000800bba4       0x58 /usr/lib/gcc/arm-none-eabi/4.8.2/../../../arm-none-eabi/lib/armv7-m/libg.a(lib_a-wcrtomb.o)
                0x000000000800bba4                _wcrtomb_r
 .text.wcrtomb  0x000000000800bbfc       0x5c /usr/lib/gcc/arm-none-eabi/4.8.2/../../../arm-none-eabi/lib/armv7-m/libg.a(lib_a-wcrtomb.o)
                0x000000000800bbfc                wcrtomb
 .text          0x000000000800bc58        0x0 /usr/lib/gcc/arm-none-eabi/4.8.2/../../../arm-none-eabi/lib/armv7-m/libg.a(lib_a-wctomb_r.o)
 .text.__ascii_wctomb
                0x000000000800bc58       0x1c /usr/lib/gcc/arm-none-eabi/4.8.2/../../../arm-none-eabi/lib/armv7-m/libg.a(lib_a-wctomb_r.o)
                0x000000000800bc58                __ascii_wctomb
 .text._wctomb_r
                0x000000000800bc74       0x30 /usr/lib/gcc/arm-none-eabi/4.8.2/../../../arm-none-eabi/lib/armv7-m/libg.a(lib_a-wctomb_r.o)
                0x000000000800bc74                _wctomb_r
 .text          0x000000000800bca4      0x370 /usr/lib/gcc/arm-none-eabi/4.8.2/armv7-m/libgcc.a(_arm_addsubdf3.o)
                0x000000000800bca4                __aeabi_drsub
                0x000000000800bcac                __aeabi_dsub
                0x000000000800bcac                __subdf3
                0x000000000800bcb0                __adddf3
                0x000000000800bcb0                __aeabi_dadd
                0x000000000800bf28                __aeabi_ui2d
                0x000000000800bf28                __floatunsidf
                0x000000000800bf48                __floatsidf
                0x000000000800bf48                __aeabi_i2d
                0x000000000800bf6c                __extendsfdf2
                0x000000000800bf6c                __aeabi_f2d
                0x000000000800bfa8                __aeabi_ul2d
                0x000000000800bfa8                __floatundidf
                0x000000000800bfb8                __floatdidf
                0x000000000800bfb8                __aeabi_l2d
 .text          0x000000000800c014      0x424 /usr/lib/gcc/arm-none-eabi/4.8.2/armv7-m/libgcc.a(_arm_muldivdf3.o)
                0x000000000800c014                __aeabi_dmul
                0x000000000800c014                __muldf3
                0x000000000800c268                __aeabi_ddiv
                0x000000000800c268                __divdf3
 .text          0x000000000800c438      0x110 /usr/lib/gcc/arm-none-eabi/4.8.2/armv7-m/libgcc.a(_arm_cmpdf2.o)
                0x000000000800c438                __gtdf2
                0x000000000800c438                __gedf2
                0x000000000800c440                __ltdf2
                0x000000000800c440                __ledf2
                0x000000000800c448                __cmpdf2
                0x000000000800c448                __eqdf2
                0x000000000800c448                __nedf2
                0x000000000800c4c4                __aeabi_cdrcmple
                0x000000000800c4d4                __aeabi_cdcmple
                0x000000000800c4d4                __aeabi_cdcmpeq
                0x000000000800c4e4                __aeabi_dcmpeq
                0x000000000800c4f8                __aeabi_dcmplt
                0x000000000800c50c                __aeabi_dcmple
                0x000000000800c520                __aeabi_dcmpge
                0x000000000800c534                __aeabi_dcmpgt
 .text          0x000000000800c548       0x50 /usr/lib/gcc/arm-none-eabi/4.8.2/armv7-m/libgcc.a(_arm_fixdfsi.o)
                0x000000000800c548                __fixdfsi
                0x000000000800c548                __aeabi_d2iz
 .text          0x000000000800c598       0x2c /usr/lib/gcc/arm-none-eabi/4.8.2/armv7-m/libgcc.a(_aeabi_uldivmod.o)
                0x000000000800c598                __aeabi_uldivmod
 .text          0x000000000800c5c4       0x60 /usr/lib/gcc/arm-none-eabi/4.8.2/armv7-m/libgcc.a(bpabi.o)
                0x000000000800c5c4                __gnu_ldivmod_helper
                0x000000000800c5f4                __gnu_uldivmod_helper
 .text          0x000000000800c624        0x4 /usr/lib/gcc/arm-none-eabi/4.8.2/armv7-m/libgcc.a(_dvmd_tls.o)
                0x000000000800c624                __aeabi_ldiv0
                0x000000000800c624                __aeabi_idiv0
 .text          0x000000000800c628      0x2bc /usr/lib/gcc/arm-none-eabi/4.8.2/armv7-m/libgcc.a(_divdi3.o)
                0x000000000800c628                __divdi3
 .text          0x000000000800c8e4      0x284 /usr/lib/gcc/arm-none-eabi/4.8.2/armv7-m/libgcc.a(_udivdi3.o)
                0x000000000800c8e4                __udivdi3
 *(.glue_7)
 .glue_7        0x0000000000000000        0x0 linker stubs
 *(.glue_7t)
 .glue_7t       0x0000000000000000        0x0 linker stubs
 *(.rodata .rodata* .gnu.linkonce.r*)
 .rodata        0x000000000800cb68        0x8 /tmp/ccisHkFI.o
 .rodata        0x000000000800cb70        0x4 /tmp/ccKufXV0.o
                0x000000000800cb70                ulKernelPriority
 .rodata        0x000000000800cb74      0x140 /tmp/ccOeehRB.o
 .rodata        0x000000000800ccb4       0x8c /tmp/cci0TnCw.o
 .rodata.str1.4
                0x000000000800cd40        0x2 /usr/lib/gcc/arm-none-eabi/4.8.2/../../../arm-none-eabi/lib/armv7-m/libg.a(lib_a-puts.o)
                                          0x4 (size before relaxing)
 *fill*         0x000000000800cd42        0x2 
 .rodata.zeroes.6775
                0x000000000800cd44       0x10 /usr/lib/gcc/arm-none-eabi/4.8.2/../../../arm-none-eabi/lib/armv7-m/libg.a(lib_a-vfprintf.o)
 .rodata.str1.4
                0x000000000800cd54       0x42 /usr/lib/gcc/arm-none-eabi/4.8.2/../../../arm-none-eabi/lib/armv7-m/libg.a(lib_a-vfprintf.o)
                                         0x44 (size before relaxing)
 *fill*         0x000000000800cd96        0x2 
 .rodata.blanks.6774
                0x000000000800cd98       0x10 /usr/lib/gcc/arm-none-eabi/4.8.2/../../../arm-none-eabi/lib/armv7-m/libg.a(lib_a-vfprintf.o)
 .rodata.str1.4
                0x000000000800cda8       0x10 /usr/lib/gcc/arm-none-eabi/4.8.2/../../../arm-none-eabi/lib/armv7-m/libg.a(lib_a-dtoa.o)
                                         0x14 (size before relaxing)
 .rodata.str1.4
                0x000000000800cdb8        0x2 /usr/lib/gcc/arm-none-eabi/4.8.2/../../../arm-none-eabi/lib/armv7-m/libg.a(lib_a-impure.o)
                                          0x4 (size before relaxing)
 *fill*         0x000000000800cdba        0x2 
 .rodata._global_impure_ptr
                0x000000000800cdbc        0x4 /usr/lib/gcc/arm-none-eabi/4.8.2/../../../arm-none-eabi/lib/armv7-m/libg.a(lib_a-impure.o)
                0x000000000800cdbc                _global_impure_ptr
 .rodata.str1.4
                0x000000000800cdc0        0xc /usr/lib/gcc/arm-none-eabi/4.8.2/../../../arm-none-eabi/lib/armv7-m/libg.a(lib_a-locale.o)
                                         0x14 (size before relaxing)
 *fill*         0x000000000800cdcc        0x4 
 .rodata.__mprec_tens
                0x000000000800cdd0       0xc8 /usr/lib/gcc/arm-none-eabi/4.8.2/../../../arm-none-eabi/lib/armv7-m/libg.a(lib_a-mprec.o)
                0x000000000800cdd0                __mprec_tens
 .rodata.__mprec_bigtens
                0x000000000800ce98       0x28 /usr/lib/gcc/arm-none-eabi/4.8.2/../../../arm-none-eabi/lib/armv7-m/libg.a(lib_a-mprec.o)
                0x000000000800ce98                __mprec_bigtens
 .rodata.p05.5266
                0x000000000800cec0        0xc /usr/lib/gcc/arm-none-eabi/4.8.2/../../../arm-none-eabi/lib/armv7-m/libg.a(lib_a-mprec.o)
 *fill*         0x000000000800cecc        0x4 
 .rodata.__mprec_tinytens
                0x000000000800ced0       0x28 /usr/lib/gcc/arm-none-eabi/4.8.2/../../../arm-none-eabi/lib/armv7-m/libg.a(lib_a-mprec.o)
                0x000000000800ced0                __mprec_tinytens
 .rodata.blanks.6717
                0x000000000800cef8       0x10 /usr/lib/gcc/arm-none-eabi/4.8.2/../../../arm-none-eabi/lib/armv7-m/libg.a(lib_a-vfiprintf.o)
 .rodata.str1.4
                0x0000000000000000       0x30 /usr/lib/gcc/arm-none-eabi/4.8.2/../../../arm-none-eabi/lib/armv7-m/libg.a(lib_a-vfiprintf.o)
 .rodata.zeroes.6718
                0x000000000800cf08       0x10 /usr/lib/gcc/arm-none-eabi/4.8.2/../../../arm-none-eabi/lib/armv7-m/libg.a(lib_a-vfiprintf.o)
                0x000000000800cf18                . = ALIGN (0x4)
 *(.init)
                0x000000000800cf18                . = ALIGN (0x4)
                0x000000000800cf18                __preinit_array_start = .
 *(.preinit_array)
                0x000000000800cf18                __preinit_array_end = .
                0x000000000800cf18                . = ALIGN (0x4)
                0x000000000800cf18                __init_array_start = .
 *(SORT(.init_array.*))
 *(.init_array)
                0x000000000800cf18                __init_array_end = .
                0x000000000800cf18                . = ALIGN (0x4)
 *(.fini)
                0x000000000800cf18                . = ALIGN (0x4)
                0x000000000800cf18                __fini_array_start = .
 *(SORT(.fini_array.*))
 *(.fini_array)
                0x000000000800cf18                __fini_array_end = .
                0x000000000800cf18                . = ALIGN (0x4)
 *crtbegin.o(.ctors)
 *(EXCLUDE_FILE(*crtend.o) .ctors)
 *(SORT(.ctors.*))
 *crtend.o(.ctors)
                0x000000000800cf18                . = ALIGN (0x4)
 *crtbegin.o(.dtors)
 *(EXCLUDE_FILE(*crtend.o) .dtors)
 *(SORT(.dtors.*))
 *crtend.o(.dtors)

.vfp11_veneer   0x000000000800cf18        0x0
 .vfp11_veneer  0x0000000000000000        0x0 linker stubs

.v4_bx          0x000000000800cf18        0x0
 .v4_bx         0x0000000000000000        0x0 linker stubs

.iplt           0x000000000800cf18        0x0
 .iplt          0x0000000000000000        0x0 /tmp/cc8SCMZU.o

.igot.plt       0x000000000800cf18        0x0
 .igot.plt      0x0000000000000000        0x0 /tmp/cc8SCMZU.o
                0x000000000800cf18                . = ALIGN (0x4)

.ARM.extab      0x000000000800cf18        0x0
 *(.ARM.extab* .gnu.linkonce.armextab.*)
 .ARM.extab     0x000000000800cf18        0x0 /usr/lib/gcc/arm-none-eabi/4.8.2/armv7-m/libgcc.a(_divdi3.o)
 .ARM.extab     0x000000000800cf18        0x0 /usr/lib/gcc/arm-none-eabi/4.8.2/armv7-m/libgcc.a(_udivdi3.o)

.ARM.exidx      0x000000000800cf18        0x8
                0x000000000800cf18                __exidx_start = .
 *(.ARM.exidx* .gnu.linkonce.armexidx.*)
 .ARM.exidx     0x000000000800cf18        0x8 /usr/lib/gcc/arm-none-eabi/4.8.2/armv7-m/libgcc.a(_divdi3.o)
 .ARM.exidx     0x000000000800cf20        0x0 /usr/lib/gcc/arm-none-eabi/4.8.2/armv7-m/libgcc.a(_udivdi3.o)
                                          0x8 (size before relaxing)
                0x000000000800cf20                __exidx_end = .
                0x000000000800cf20                _sidata = .

.rel.dyn        0x000000000800cf20        0x0
 .rel.iplt      0x0000000000000000        0x0 /tmp/cc8SCMZU.o

.relocate       0x0000000020000000      0x8fc load address 0x000000000800cf20
                0x0000000020000000                . = ALIGN (0x4)
                0x0000000020000000                _sdata = .
 *(.ramfunc .ramfunc.*)
 *(.data .data.*)
 .data          0x0000000020000000       0x14 /tmp/cc8SCMZU.o
                0x0000000020000000                SystemCoreClock
                0x0000000020000004                AHBPrescTable
 .data          0x0000000020000014        0x0 /tmp/ccmq0gqb.o
 .data          0x0000000020000014       0x10 /tmp/ccf6aV3r.o
 .data          0x0000000020000024        0x0 /tmp/ccXqE4VI.o
 .data          0x0000000020000024        0x0 /tmp/ccewRW4Z.o
 .data          0x0000000020000024        0x0 /tmp/cciNRtqh.o
 .data          0x0000000020000024        0x0 /tmp/ccbHfsZy.o
 .data          0x0000000020000024        0x0 /tmp/ccHG3MIQ.o
 .data          0x0000000020000024        0x0 /tmp/cciA8gx8.o
 .data          0x0000000020000024        0x0 /tmp/cclQzAuq.o
 .data          0x0000000020000024        0x4 /tmp/ccisHkFI.o
 .data          0x0000000020000028        0x4 /tmp/ccKufXV0.o
 .data          0x000000002000002c        0x0 /tmp/ccFDWphj.o
 .data          0x000000002000002c       0x14 /tmp/ccOeehRB.o
 .data          0x0000000020000040        0x0 /tmp/ccVQAlBU.o
 .data          0x0000000020000040        0x0 /tmp/cck4IXtd.o
 .data          0x0000000020000040        0x0 /tmp/cci0TnCw.o
 .data          0x0000000020000040        0x0 /usr/lib/gcc/arm-none-eabi/4.8.2/../../../arm-none-eabi/lib/armv7-m/libg.a(lib_a-memcpy.o)
 .data          0x0000000020000040        0x0 /usr/lib/gcc/arm-none-eabi/4.8.2/../../../arm-none-eabi/lib/armv7-m/libg.a(lib_a-memset.o)
 .data          0x0000000020000040        0x0 /usr/lib/gcc/arm-none-eabi/4.8.2/../../../arm-none-eabi/lib/armv7-m/libg.a(lib_a-printf.o)
 .data          0x0000000020000040        0x0 /usr/lib/gcc/arm-none-eabi/4.8.2/../../../arm-none-eabi/lib/armv7-m/libg.a(lib_a-puts.o)
 .data          0x0000000020000040        0x0 /usr/lib/gcc/arm-none-eabi/4.8.2/../../../arm-none-eabi/lib/armv7-m/libg.a(lib_a-strlen.o)
 .data          0x0000000020000040        0x0 /usr/lib/gcc/arm-none-eabi/4.8.2/../../../arm-none-eabi/lib/armv7-m/libg.a(lib_a-strncpy.o)
 .data          0x0000000020000040        0x0 /usr/lib/gcc/arm-none-eabi/4.8.2/../../../arm-none-eabi/lib/armv7-m/libg.a(lib_a-vfprintf.o)
 .data          0x0000000020000040        0x0 /usr/lib/gcc/arm-none-eabi/4.8.2/../../../arm-none-eabi/lib/armv7-m/libg.a(lib_a-wsetup.o)
 .data          0x0000000020000040        0x0 /usr/lib/gcc/arm-none-eabi/4.8.2/../../../arm-none-eabi/lib/armv7-m/libg.a(lib_a-dtoa.o)
 .data          0x0000000020000040        0x0 /usr/lib/gcc/arm-none-eabi/4.8.2/../../../arm-none-eabi/lib/armv7-m/libg.a(lib_a-fflush.o)
 .data          0x0000000020000040        0x0 /usr/lib/gcc/arm-none-eabi/4.8.2/../../../arm-none-eabi/lib/armv7-m/libg.a(lib_a-findfp.o)
 .data          0x0000000020000040        0x0 /usr/lib/gcc/arm-none-eabi/4.8.2/../../../arm-none-eabi/lib/armv7-m/libg.a(lib_a-freer.o)
 .data          0x0000000020000040        0x0 /usr/lib/gcc/arm-none-eabi/4.8.2/../../../arm-none-eabi/lib/armv7-m/libg.a(lib_a-fvwrite.o)
 .data          0x0000000020000040        0x0 /usr/lib/gcc/arm-none-eabi/4.8.2/../../../arm-none-eabi/lib/armv7-m/libg.a(lib_a-fwalk.o)
 .data          0x0000000020000040        0x0 /usr/lib/gcc/arm-none-eabi/4.8.2/../../../arm-none-eabi/lib/armv7-m/libg.a(lib_a-impure.o)
 .data.impure_data
                0x0000000020000040      0x428 /usr/lib/gcc/arm-none-eabi/4.8.2/../../../arm-none-eabi/lib/armv7-m/libg.a(lib_a-impure.o)
 .data._impure_ptr
                0x0000000020000468        0x4 /usr/lib/gcc/arm-none-eabi/4.8.2/../../../arm-none-eabi/lib/armv7-m/libg.a(lib_a-impure.o)
                0x0000000020000468                _impure_ptr
 .data          0x000000002000046c        0x0 /usr/lib/gcc/arm-none-eabi/4.8.2/../../../arm-none-eabi/lib/armv7-m/libg.a(lib_a-locale.o)
 .data.lc_message_charset
                0x000000002000046c       0x20 /usr/lib/gcc/arm-none-eabi/4.8.2/../../../arm-none-eabi/lib/armv7-m/libg.a(lib_a-locale.o)
 .data.lconv    0x000000002000048c       0x38 /usr/lib/gcc/arm-none-eabi/4.8.2/../../../arm-none-eabi/lib/armv7-m/libg.a(lib_a-locale.o)
 .data.lc_ctype_charset
                0x00000000200004c4       0x20 /usr/lib/gcc/arm-none-eabi/4.8.2/../../../arm-none-eabi/lib/armv7-m/libg.a(lib_a-locale.o)
 .data.__mb_cur_max
                0x00000000200004e4        0x4 /usr/lib/gcc/arm-none-eabi/4.8.2/../../../arm-none-eabi/lib/armv7-m/libg.a(lib_a-locale.o)
                0x00000000200004e4                __mb_cur_max
 .data          0x00000000200004e8        0x0 /usr/lib/gcc/arm-none-eabi/4.8.2/../../../arm-none-eabi/lib/armv7-m/libg.a(lib_a-makebuf.o)
 .data          0x00000000200004e8        0x0 /usr/lib/gcc/arm-none-eabi/4.8.2/../../../arm-none-eabi/lib/armv7-m/libg.a(lib_a-mallocr.o)
 .data.__malloc_av_
                0x00000000200004e8      0x408 /usr/lib/gcc/arm-none-eabi/4.8.2/../../../arm-none-eabi/lib/armv7-m/libg.a(lib_a-mallocr.o)
                0x00000000200004e8                __malloc_av_
 .data.__malloc_trim_threshold
                0x00000000200008f0        0x4 /usr/lib/gcc/arm-none-eabi/4.8.2/../../../arm-none-eabi/lib/armv7-m/libg.a(lib_a-mallocr.o)
                0x00000000200008f0                __malloc_trim_threshold
 .data.__malloc_sbrk_base
                0x00000000200008f4        0x4 /usr/lib/gcc/arm-none-eabi/4.8.2/../../../arm-none-eabi/lib/armv7-m/libg.a(lib_a-mallocr.o)
                0x00000000200008f4                __malloc_sbrk_base
 .data          0x00000000200008f8        0x0 /usr/lib/gcc/arm-none-eabi/4.8.2/../../../arm-none-eabi/lib/armv7-m/libg.a(lib_a-memchr-stub.o)
 .data          0x00000000200008f8        0x0 /usr/lib/gcc/arm-none-eabi/4.8.2/../../../arm-none-eabi/lib/armv7-m/libg.a(lib_a-memmove.o)
 .data          0x00000000200008f8        0x0 /usr/lib/gcc/arm-none-eabi/4.8.2/../../../arm-none-eabi/lib/armv7-m/libg.a(lib_a-mlock.o)
 .data          0x00000000200008f8        0x0 /usr/lib/gcc/arm-none-eabi/4.8.2/../../../arm-none-eabi/lib/armv7-m/libg.a(lib_a-mprec.o)
 .data          0x00000000200008f8        0x0 /usr/lib/gcc/arm-none-eabi/4.8.2/../../../arm-none-eabi/lib/armv7-m/libg.a(lib_a-reallocr.o)
 .data          0x00000000200008f8        0x0 /usr/lib/gcc/arm-none-eabi/4.8.2/../../../arm-none-eabi/lib/armv7-m/libg.a(lib_a-s_fpclassify.o)
 .data          0x00000000200008f8        0x0 /usr/lib/gcc/arm-none-eabi/4.8.2/../../../arm-none-eabi/lib/armv7-m/libg.a(lib_a-sbrkr.o)
 .data          0x00000000200008f8        0x0 /usr/lib/gcc/arm-none-eabi/4.8.2/../../../arm-none-eabi/lib/armv7-m/libg.a(lib_a-stdio.o)
 .data          0x00000000200008f8        0x0 /usr/lib/gcc/arm-none-eabi/4.8.2/../../../arm-none-eabi/lib/armv7-m/libg.a(lib_a-strcmp.o)
 .data          0x00000000200008f8        0x0 /usr/lib/gcc/arm-none-eabi/4.8.2/../../../arm-none-eabi/lib/armv7-m/libg.a(lib_a-vfiprintf.o)
 .data          0x00000000200008f8        0x0 /usr/lib/gcc/arm-none-eabi/4.8.2/../../../arm-none-eabi/lib/armv7-m/libg.a(lib_a-writer.o)
 .data          0x00000000200008f8        0x0 /usr/lib/gcc/arm-none-eabi/4.8.2/../../../arm-none-eabi/lib/armv7-m/libg.a(lib_a-callocr.o)
 .data          0x00000000200008f8        0x0 /usr/lib/gcc/arm-none-eabi/4.8.2/../../../arm-none-eabi/lib/armv7-m/libg.a(lib_a-closer.o)
 .data          0x00000000200008f8        0x0 /usr/lib/gcc/arm-none-eabi/4.8.2/../../../arm-none-eabi/lib/armv7-m/libg.a(lib_a-fclose.o)
 .data          0x00000000200008f8        0x0 /usr/lib/gcc/arm-none-eabi/4.8.2/../../../arm-none-eabi/lib/armv7-m/libg.a(lib_a-fputwc.o)
 .data          0x00000000200008f8        0x0 /usr/lib/gcc/arm-none-eabi/4.8.2/../../../arm-none-eabi/lib/armv7-m/libg.a(lib_a-fstatr.o)
 .data          0x00000000200008f8        0x0 /usr/lib/gcc/arm-none-eabi/4.8.2/../../../arm-none-eabi/lib/armv7-m/libg.a(lib_a-isattyr.o)
 .data          0x00000000200008f8        0x0 /usr/lib/gcc/arm-none-eabi/4.8.2/../../../arm-none-eabi/lib/armv7-m/libg.a(lib_a-lseekr.o)
 .data          0x00000000200008f8        0x0 /usr/lib/gcc/arm-none-eabi/4.8.2/../../../arm-none-eabi/lib/armv7-m/libg.a(lib_a-readr.o)
 .data          0x00000000200008f8        0x0 /usr/lib/gcc/arm-none-eabi/4.8.2/../../../arm-none-eabi/lib/armv7-m/libg.a(lib_a-reent.o)
 .data          0x00000000200008f8        0x0 /usr/lib/gcc/arm-none-eabi/4.8.2/../../../arm-none-eabi/lib/armv7-m/libg.a(lib_a-wbuf.o)
 .data          0x00000000200008f8        0x0 /usr/lib/gcc/arm-none-eabi/4.8.2/../../../arm-none-eabi/lib/armv7-m/libg.a(lib_a-wcrtomb.o)
 .data          0x00000000200008f8        0x0 /usr/lib/gcc/arm-none-eabi/4.8.2/../../../arm-none-eabi/lib/armv7-m/libg.a(lib_a-wctomb_r.o)
 .data.__wctomb
                0x00000000200008f8        0x4 /usr/lib/gcc/arm-none-eabi/4.8.2/../../../arm-none-eabi/lib/armv7-m/libg.a(lib_a-wctomb_r.o)
                0x00000000200008f8                __wctomb
 .data          0x00000000200008fc        0x0 /usr/lib/gcc/arm-none-eabi/4.8.2/armv7-m/libgcc.a(_arm_addsubdf3.o)
 .data          0x00000000200008fc        0x0 /usr/lib/gcc/arm-none-eabi/4.8.2/armv7-m/libgcc.a(_arm_muldivdf3.o)
 .data          0x00000000200008fc        0x0 /usr/lib/gcc/arm-none-eabi/4.8.2/armv7-m/libgcc.a(_arm_cmpdf2.o)
 .data          0x00000000200008fc        0x0 /usr/lib/gcc/arm-none-eabi/4.8.2/armv7-m/libgcc.a(_arm_fixdfsi.o)
 .data          0x00000000200008fc        0x0 /usr/lib/gcc/arm-none-eabi/4.8.2/armv7-m/libgcc.a(_aeabi_uldivmod.o)
 .data          0x00000000200008fc        0x0 /usr/lib/gcc/arm-none-eabi/4.8.2/armv7-m/libgcc.a(bpabi.o)
 .data          0x00000000200008fc        0x0 /usr/lib/gcc/arm-none-eabi/4.8.2/armv7-m/libgcc.a(_dvmd_tls.o)
 .data          0x00000000200008fc        0x0 /usr/lib/gcc/arm-none-eabi/4.8.2/armv7-m/libgcc.a(_divdi3.o)
 .data          0x00000000200008fc        0x0 /usr/lib/gcc/arm-none-eabi/4.8.2/armv7-m/libgcc.a(_udivdi3.o)
                0x00000000200008fc                . = ALIGN (0x4)
                0x00000000200008fc                _edata = .

.bss            0x0000000020000900    0x1eccc load address 0x000000000800d820
                0x0000000020000900                . = ALIGN (0x4)
                0x0000000020000900                _sbss = .
                0x0000000020000900                __bss_start__ = .
 *(.bss .bss.*)
 .bss           0x0000000020000900        0x0 /tmp/cc8SCMZU.o
 .bss           0x0000000020000900        0x0 /tmp/ccmq0gqb.o
 .bss           0x0000000020000900        0x0 /tmp/ccf6aV3r.o
 .bss           0x0000000020000900        0x0 /tmp/ccXqE4VI.o
 .bss           0x0000000020000900        0x0 /tmp/ccewRW4Z.o
 .bss           0x0000000020000900        0x0 /tmp/cciNRtqh.o
 .bss           0x0000000020000900        0x0 /tmp/ccbHfsZy.o
 .bss           0x0000000020000900       0x80 /tmp/ccHG3MIQ.o
                0x000000002000096c                pxCurrentCoRoutine
 .bss           0x0000000020000980        0x0 /tmp/cciA8gx8.o
 .bss           0x0000000020000980        0x0 /tmp/cclQzAuq.o
 .bss           0x0000000020000980      0x100 /tmp/ccisHkFI.o
                0x0000000020000980                pxCurrentTCB
 .bss           0x0000000020000a80        0x0 /tmp/ccKufXV0.o
 .bss           0x0000000020000a80    0x10008 /tmp/ccFDWphj.o
 .bss           0x0000000020010a88     0xea28 /tmp/ccOeehRB.o
 .bss           0x000000002001f4b0       0xd4 /tmp/ccVQAlBU.o
                0x000000002001f4b0                __stdout
                0x000000002001f518                __stderr
 .bss           0x000000002001f584        0x1 /tmp/cck4IXtd.o
 .bss           0x000000002001f585        0x0 /tmp/cci0TnCw.o
 .bss           0x000000002001f585        0x0 /usr/lib/gcc/arm-none-eabi/4.8.2/../../../arm-none-eabi/lib/armv7-m/libg.a(lib_a-memcpy.o)
 .bss           0x000000002001f585        0x0 /usr/lib/gcc/arm-none-eabi/4.8.2/../../../arm-none-eabi/lib/armv7-m/libg.a(lib_a-memset.o)
 .bss           0x000000002001f585        0x0 /usr/lib/gcc/arm-none-eabi/4.8.2/../../../arm-none-eabi/lib/armv7-m/libg.a(lib_a-printf.o)
 .bss           0x000000002001f585        0x0 /usr/lib/gcc/arm-none-eabi/4.8.2/../../../arm-none-eabi/lib/armv7-m/libg.a(lib_a-puts.o)
 .bss           0x000000002001f585        0x0 /usr/lib/gcc/arm-none-eabi/4.8.2/../../../arm-none-eabi/lib/armv7-m/libg.a(lib_a-strlen.o)
 .bss           0x000000002001f585        0x0 /usr/lib/gcc/arm-none-eabi/4.8.2/../../../arm-none-eabi/lib/armv7-m/libg.a(lib_a-strncpy.o)
 .bss           0x000000002001f585        0x0 /usr/lib/gcc/arm-none-eabi/4.8.2/../../../arm-none-eabi/lib/armv7-m/libg.a(lib_a-vfprintf.o)
 .bss           0x000000002001f585        0x0 /usr/lib/gcc/arm-none-eabi/4.8.2/../../../arm-none-eabi/lib/armv7-m/libg.a(lib_a-wsetup.o)
 .bss           0x000000002001f585        0x0 /usr/lib/gcc/arm-none-eabi/4.8.2/../../../arm-none-eabi/lib/armv7-m/libg.a(lib_a-dtoa.o)
 .bss           0x000000002001f585        0x0 /usr/lib/gcc/arm-none-eabi/4.8.2/../../../arm-none-eabi/lib/armv7-m/libg.a(lib_a-fflush.o)
 .bss           0x000000002001f585        0x0 /usr/lib/gcc/arm-none-eabi/4.8.2/../../../arm-none-eabi/lib/armv7-m/libg.a(lib_a-findfp.o)
 .bss           0x000000002001f585        0x0 /usr/lib/gcc/arm-none-eabi/4.8.2/../../../arm-none-eabi/lib/armv7-m/libg.a(lib_a-freer.o)
 .bss           0x000000002001f585        0x0 /usr/lib/gcc/arm-none-eabi/4.8.2/../../../arm-none-eabi/lib/armv7-m/libg.a(lib_a-fvwrite.o)
 .bss           0x000000002001f585        0x0 /usr/lib/gcc/arm-none-eabi/4.8.2/../../../arm-none-eabi/lib/armv7-m/libg.a(lib_a-fwalk.o)
 .bss           0x000000002001f585        0x0 /usr/lib/gcc/arm-none-eabi/4.8.2/../../../arm-none-eabi/lib/armv7-m/libg.a(lib_a-impure.o)
 .bss           0x000000002001f585        0x0 /usr/lib/gcc/arm-none-eabi/4.8.2/../../../arm-none-eabi/lib/armv7-m/libg.a(lib_a-locale.o)
 *fill*         0x000000002001f585        0x3 
 .bss._PathLocale
                0x000000002001f588        0x4 /usr/lib/gcc/arm-none-eabi/4.8.2/../../../arm-none-eabi/lib/armv7-m/libg.a(lib_a-locale.o)
                0x000000002001f588                _PathLocale
 .bss.__nlocale_changed
                0x000000002001f58c        0x4 /usr/lib/gcc/arm-none-eabi/4.8.2/../../../arm-none-eabi/lib/armv7-m/libg.a(lib_a-locale.o)
                0x000000002001f58c                __nlocale_changed
 .bss.__mlocale_changed
                0x000000002001f590        0x4 /usr/lib/gcc/arm-none-eabi/4.8.2/../../../arm-none-eabi/lib/armv7-m/libg.a(lib_a-locale.o)
                0x000000002001f590                __mlocale_changed
 .bss           0x000000002001f594        0x0 /usr/lib/gcc/arm-none-eabi/4.8.2/../../../arm-none-eabi/lib/armv7-m/libg.a(lib_a-makebuf.o)
 .bss           0x000000002001f594        0x0 /usr/lib/gcc/arm-none-eabi/4.8.2/../../../arm-none-eabi/lib/armv7-m/libg.a(lib_a-mallocr.o)
 .bss.__malloc_max_total_mem
                0x000000002001f594        0x4 /usr/lib/gcc/arm-none-eabi/4.8.2/../../../arm-none-eabi/lib/armv7-m/libg.a(lib_a-mallocr.o)
                0x000000002001f594                __malloc_max_total_mem
 .bss.__malloc_max_sbrked_mem
                0x000000002001f598        0x4 /usr/lib/gcc/arm-none-eabi/4.8.2/../../../arm-none-eabi/lib/armv7-m/libg.a(lib_a-mallocr.o)
                0x000000002001f598                __malloc_max_sbrked_mem
 .bss.__malloc_top_pad
                0x000000002001f59c        0x4 /usr/lib/gcc/arm-none-eabi/4.8.2/../../../arm-none-eabi/lib/armv7-m/libg.a(lib_a-mallocr.o)
                0x000000002001f59c                __malloc_top_pad
 .bss.__malloc_current_mallinfo
                0x000000002001f5a0       0x28 /usr/lib/gcc/arm-none-eabi/4.8.2/../../../arm-none-eabi/lib/armv7-m/libg.a(lib_a-mallocr.o)
                0x000000002001f5a0                __malloc_current_mallinfo
 .bss           0x000000002001f5c8        0x0 /usr/lib/gcc/arm-none-eabi/4.8.2/../../../arm-none-eabi/lib/armv7-m/libg.a(lib_a-memchr-stub.o)
 .bss           0x000000002001f5c8        0x0 /usr/lib/gcc/arm-none-eabi/4.8.2/../../../arm-none-eabi/lib/armv7-m/libg.a(lib_a-memmove.o)
 .bss           0x000000002001f5c8        0x0 /usr/lib/gcc/arm-none-eabi/4.8.2/../../../arm-none-eabi/lib/armv7-m/libg.a(lib_a-mlock.o)
 .bss           0x000000002001f5c8        0x0 /usr/lib/gcc/arm-none-eabi/4.8.2/../../../arm-none-eabi/lib/armv7-m/libg.a(lib_a-mprec.o)
 .bss           0x000000002001f5c8        0x0 /usr/lib/gcc/arm-none-eabi/4.8.2/../../../arm-none-eabi/lib/armv7-m/libg.a(lib_a-reallocr.o)
 .bss           0x000000002001f5c8        0x0 /usr/lib/gcc/arm-none-eabi/4.8.2/../../../arm-none-eabi/lib/armv7-m/libg.a(lib_a-s_fpclassify.o)
 .bss           0x000000002001f5c8        0x0 /usr/lib/gcc/arm-none-eabi/4.8.2/../../../arm-none-eabi/lib/armv7-m/libg.a(lib_a-sbrkr.o)
 .bss           0x000000002001f5c8        0x0 /usr/lib/gcc/arm-none-eabi/4.8.2/../../../arm-none-eabi/lib/armv7-m/libg.a(lib_a-stdio.o)
 .bss           0x000000002001f5c8        0x0 /usr/lib/gcc/arm-none-eabi/4.8.2/../../../arm-none-eabi/lib/armv7-m/libg.a(lib_a-strcmp.o)
 .bss           0x000000002001f5c8        0x0 /usr/lib/gcc/arm-none-eabi/4.8.2/../../../arm-none-eabi/lib/armv7-m/libg.a(lib_a-vfiprintf.o)
 .bss           0x000000002001f5c8        0x0 /usr/lib/gcc/arm-none-eabi/4.8.2/../../../arm-none-eabi/lib/armv7-m/libg.a(lib_a-writer.o)
 .bss           0x000000002001f5c8        0x0 /usr/lib/gcc/arm-none-eabi/4.8.2/../../../arm-none-eabi/lib/armv7-m/libg.a(lib_a-callocr.o)
 .bss           0x000000002001f5c8        0x0 /usr/lib/gcc/arm-none-eabi/4.8.2/../../../arm-none-eabi/lib/armv7-m/libg.a(lib_a-closer.o)
 .bss           0x000000002001f5c8        0x0 /usr/lib/gcc/arm-none-eabi/4.8.2/../../../arm-none-eabi/lib/armv7-m/libg.a(lib_a-fclose.o)
 .bss           0x000000002001f5c8        0x0 /usr/lib/gcc/arm-none-eabi/4.8.2/../../../arm-none-eabi/lib/armv7-m/libg.a(lib_a-fputwc.o)
 .bss           0x000000002001f5c8        0x0 /usr/lib/gcc/arm-none-eabi/4.8.2/../../../arm-none-eabi/lib/armv7-m/libg.a(lib_a-fstatr.o)
 .bss           0x000000002001f5c8        0x0 /usr/lib/gcc/arm-none-eabi/4.8.2/../../../arm-none-eabi/lib/armv7-m/libg.a(lib_a-isattyr.o)
 .bss           0x000000002001f5c8        0x0 /usr/lib/gcc/arm-none-eabi/4.8.2/../../../arm-none-eabi/lib/armv7-m/libg.a(lib_a-lseekr.o)
 .bss           0x000000002001f5c8        0x0 /usr/lib/gcc/arm-none-eabi/4.8.2/../../../arm-none-eabi/lib/armv7-m/libg.a(lib_a-readr.o)
 .bss           0x000000002001f5c8        0x0 /usr/lib/gcc/arm-none-eabi/4.8.2/../../../arm-none-eabi/lib/armv7-m/libg.a(lib_a-reent.o)
 .bss           0x000000002001f5c8        0x0 /usr/lib/gcc/arm-none-eabi/4.8.2/../../../arm-none-eabi/lib/armv7-m/libg.a(lib_a-wbuf.o)
 .bss           0x000000002001f5c8        0x0 /usr/lib/gcc/arm-none-eabi/4.8.2/../../../arm-none-eabi/lib/armv7-m/libg.a(lib_a-wcrtomb.o)
 .bss           0x000000002001f5c8        0x0 /usr/lib/gcc/arm-none-eabi/4.8.2/../../../arm-none-eabi/lib/armv7-m/libg.a(lib_a-wctomb_r.o)
 .bss           0x000000002001f5c8        0x0 /usr/lib/gcc/arm-none-eabi/4.8.2/armv7-m/libgcc.a(_arm_addsubdf3.o)
 .bss           0x000000002001f5c8        0x0 /usr/lib/gcc/arm-none-eabi/4.8.2/armv7-m/libgcc.a(_arm_muldivdf3.o)
 .bss           0x000000002001f5c8        0x0 /usr/lib/gcc/arm-none-eabi/4.8.2/armv7-m/libgcc.a(_arm_cmpdf2.o)
 .bss           0x000000002001f5c8        0x0 /usr/lib/gcc/arm-none-eabi/4.8.2/armv7-m/libgcc.a(_arm_fixdfsi.o)
 .bss           0x000000002001f5c8        0x0 /usr/lib/gcc/arm-none-eabi/4.8.2/armv7-m/libgcc.a(_aeabi_uldivmod.o)
 .bss           0x000000002001f5c8        0x0 /usr/lib/gcc/arm-none-eabi/4.8.2/armv7-m/libgcc.a(bpabi.o)
 .bss           0x000000002001f5c8        0x0 /usr/lib/gcc/arm-none-eabi/4.8.2/armv7-m/libgcc.a(_dvmd_tls.o)
 .bss           0x000000002001f5c8        0x0 /usr/lib/gcc/arm-none-eabi/4.8.2/armv7-m/libgcc.a(_divdi3.o)
 .bss           0x000000002001f5c8        0x0 /usr/lib/gcc/arm-none-eabi/4.8.2/armv7-m/libgcc.a(_udivdi3.o)
 *(COMMON)
 COMMON         0x000000002001f5c8        0x4 /usr/lib/gcc/arm-none-eabi/4.8.2/../../../arm-none-eabi/lib/armv7-m/libg.a(lib_a-reent.o)
                0x000000002001f5c8                errno
                0x000000002001f5cc                . = ALIGN (0x4)
                0x000000002001f5cc                _ebss = .
                0x000000002001f5cc                __bss_end__ = .
                0x0000000020030000                _estack = (ORIGIN (sram) + 0x30000)
                0x000000002001f5cc                . = ALIGN (0x4)
                0x000000002001f5cc                _end = .
LOAD /tmp/cc8SCMZU.o
LOAD /tmp/ccmq0gqb.o
LOAD /tmp/ccf6aV3r.o
LOAD /tmp/ccXqE4VI.o
LOAD /tmp/ccewRW4Z.o
LOAD /tmp/cciNRtqh.o
LOAD /tmp/ccbHfsZy.o
LOAD /tmp/ccHG3MIQ.o
LOAD /tmp/cciA8gx8.o
LOAD /tmp/cclQzAuq.o
LOAD /tmp/ccisHkFI.o
LOAD /tmp/ccKufXV0.o
LOAD /tmp/ccFDWphj.o
LOAD /tmp/ccOeehRB.o
LOAD /tmp/ccVQAlBU.o
LOAD /tmp/cck4IXtd.o
LOAD /tmp/cci0TnCw.o
START GROUP
LOAD /usr/lib/gcc/arm-none-eabi/4.8.2/armv7-m/libgcc.a
LOAD /usr/lib/gcc/arm-none-eabi/4.8.2/../../../arm-none-eabi/lib/armv7-m/libg.a
LOAD /usr/lib/gcc/arm-none-eabi/4.8.2/../../../arm-none-eabi/lib/armv7-m/libc.a
END GROUP
OUTPUT(main.elf elf32-littlearm)

.debug_info     0x0000000000000000    0x21ad1
 .debug_info    0x0000000000000000      0x654 /tmp/cc8SCMZU.o
 .debug_info    0x0000000000000654       0xb1 /tmp/ccmq0gqb.o
 .debug_info    0x0000000000000705      0xdc4 /tmp/ccf6aV3r.o
 .debug_info    0x00000000000014c9      0x673 /tmp/ccXqE4VI.o
 .debug_info    0x0000000000001b3c      0xa95 /tmp/ccewRW4Z.o
 .debug_info    0x00000000000025d1      0x38d /tmp/cciNRtqh.o
 .debug_info    0x000000000000295e      0x5b7 /tmp/ccbHfsZy.o
 .debug_info    0x0000000000002f15      0x4b6 /tmp/ccHG3MIQ.o
 .debug_info    0x00000000000033cb      0x2b6 /tmp/cciA8gx8.o
 .debug_info    0x0000000000003681      0x825 /tmp/cclQzAuq.o
 .debug_info    0x0000000000003ea6      0xd93 /tmp/ccisHkFI.o
 .debug_info    0x0000000000004c39      0x1ed /tmp/ccKufXV0.o
 .debug_info    0x0000000000004e26      0x183 /tmp/ccFDWphj.o
 .debug_info    0x0000000000004fa9     0x1890 /tmp/ccOeehRB.o
 .debug_info    0x0000000000006839      0xde7 /tmp/ccVQAlBU.o
 .debug_info    0x0000000000007620      0x50f /tmp/cck4IXtd.o
 .debug_info    0x0000000000007b2f      0x4ea /tmp/cci0TnCw.o
 .debug_info    0x0000000000008019       0xb2 /usr/lib/gcc/arm-none-eabi/4.8.2/../../../arm-none-eabi/lib/armv7-m/libg.a(lib_a-memcpy.o)
 .debug_info    0x00000000000080cb      0x117 /usr/lib/gcc/arm-none-eabi/4.8.2/../../../arm-none-eabi/lib/armv7-m/libg.a(lib_a-memset.o)
 .debug_info    0x00000000000081e2      0x9ab /usr/lib/gcc/arm-none-eabi/4.8.2/../../../arm-none-eabi/lib/armv7-m/libg.a(lib_a-printf.o)
 .debug_info    0x0000000000008b8d      0xa16 /usr/lib/gcc/arm-none-eabi/4.8.2/../../../arm-none-eabi/lib/armv7-m/libg.a(lib_a-puts.o)
 .debug_info    0x00000000000095a3       0xb5 /usr/lib/gcc/arm-none-eabi/4.8.2/../../../arm-none-eabi/lib/armv7-m/libg.a(lib_a-strlen.o)
 .debug_info    0x0000000000009658      0x128 /usr/lib/gcc/arm-none-eabi/4.8.2/../../../arm-none-eabi/lib/armv7-m/libg.a(lib_a-strncpy.o)
 .debug_info    0x0000000000009780     0x185a /usr/lib/gcc/arm-none-eabi/4.8.2/../../../arm-none-eabi/lib/armv7-m/libg.a(lib_a-vfprintf.o)
 .debug_info    0x000000000000afda      0x93b /usr/lib/gcc/arm-none-eabi/4.8.2/../../../arm-none-eabi/lib/armv7-m/libg.a(lib_a-wsetup.o)
 .debug_info    0x000000000000b915     0x1321 /usr/lib/gcc/arm-none-eabi/4.8.2/../../../arm-none-eabi/lib/armv7-m/libg.a(lib_a-dtoa.o)
 .debug_info    0x000000000000cc36      0xaba /usr/lib/gcc/arm-none-eabi/4.8.2/../../../arm-none-eabi/lib/armv7-m/libg.a(lib_a-fflush.o)
 .debug_info    0x000000000000d6f0      0xd35 /usr/lib/gcc/arm-none-eabi/4.8.2/../../../arm-none-eabi/lib/armv7-m/libg.a(lib_a-findfp.o)
 .debug_info    0x000000000000e425      0xc1c /usr/lib/gcc/arm-none-eabi/4.8.2/../../../arm-none-eabi/lib/armv7-m/libg.a(lib_a-freer.o)
 .debug_info    0x000000000000f041      0xc53 /usr/lib/gcc/arm-none-eabi/4.8.2/../../../arm-none-eabi/lib/armv7-m/libg.a(lib_a-fvwrite.o)
 .debug_info    0x000000000000fc94      0x99c /usr/lib/gcc/arm-none-eabi/4.8.2/../../../arm-none-eabi/lib/armv7-m/libg.a(lib_a-fwalk.o)
 .debug_info    0x0000000000010630      0x894 /usr/lib/gcc/arm-none-eabi/4.8.2/../../../arm-none-eabi/lib/armv7-m/libg.a(lib_a-impure.o)
 .debug_info    0x0000000000010ec4      0xbe5 /usr/lib/gcc/arm-none-eabi/4.8.2/../../../arm-none-eabi/lib/armv7-m/libg.a(lib_a-locale.o)
 .debug_info    0x0000000000011aa9      0xae6 /usr/lib/gcc/arm-none-eabi/4.8.2/../../../arm-none-eabi/lib/armv7-m/libg.a(lib_a-makebuf.o)
 .debug_info    0x000000000001258f      0xd7b /usr/lib/gcc/arm-none-eabi/4.8.2/../../../arm-none-eabi/lib/armv7-m/libg.a(lib_a-mallocr.o)
 .debug_info    0x000000000001330a      0x129 /usr/lib/gcc/arm-none-eabi/4.8.2/../../../arm-none-eabi/lib/armv7-m/libg.a(lib_a-memchr-stub.o)
 .debug_info    0x0000000000013433      0x131 /usr/lib/gcc/arm-none-eabi/4.8.2/../../../arm-none-eabi/lib/armv7-m/libg.a(lib_a-memmove.o)
 .debug_info    0x0000000000013564      0x8b4 /usr/lib/gcc/arm-none-eabi/4.8.2/../../../arm-none-eabi/lib/armv7-m/libg.a(lib_a-mlock.o)
 .debug_info    0x0000000000013e18     0x1675 /usr/lib/gcc/arm-none-eabi/4.8.2/../../../arm-none-eabi/lib/armv7-m/libg.a(lib_a-mprec.o)
 .debug_info    0x000000000001548d      0xcbb /usr/lib/gcc/arm-none-eabi/4.8.2/../../../arm-none-eabi/lib/armv7-m/libg.a(lib_a-reallocr.o)
 .debug_info    0x0000000000016148       0xdb /usr/lib/gcc/arm-none-eabi/4.8.2/../../../arm-none-eabi/lib/armv7-m/libg.a(lib_a-s_fpclassify.o)
 .debug_info    0x0000000000016223      0x8f4 /usr/lib/gcc/arm-none-eabi/4.8.2/../../../arm-none-eabi/lib/armv7-m/libg.a(lib_a-sbrkr.o)
 .debug_info    0x0000000000016b17      0xb8a /usr/lib/gcc/arm-none-eabi/4.8.2/../../../arm-none-eabi/lib/armv7-m/libg.a(lib_a-stdio.o)
 .debug_info    0x00000000000176a1       0xab /usr/lib/gcc/arm-none-eabi/4.8.2/../../../arm-none-eabi/lib/armv7-m/libg.a(lib_a-strcmp.o)
 .debug_info    0x000000000001774c     0x153c /usr/lib/gcc/arm-none-eabi/4.8.2/../../../arm-none-eabi/lib/armv7-m/libg.a(lib_a-vfiprintf.o)
 .debug_info    0x0000000000018c88      0x929 /usr/lib/gcc/arm-none-eabi/4.8.2/../../../arm-none-eabi/lib/armv7-m/libg.a(lib_a-writer.o)
 .debug_info    0x00000000000195b1      0x9e0 /usr/lib/gcc/arm-none-eabi/4.8.2/../../../arm-none-eabi/lib/armv7-m/libg.a(lib_a-callocr.o)
 .debug_info    0x0000000000019f91      0x8e0 /usr/lib/gcc/arm-none-eabi/4.8.2/../../../arm-none-eabi/lib/armv7-m/libg.a(lib_a-closer.o)
 .debug_info    0x000000000001a871      0x9e5 /usr/lib/gcc/arm-none-eabi/4.8.2/../../../arm-none-eabi/lib/armv7-m/libg.a(lib_a-fclose.o)
 .debug_info    0x000000000001b256      0xac7 /usr/lib/gcc/arm-none-eabi/4.8.2/../../../arm-none-eabi/lib/armv7-m/libg.a(lib_a-fputwc.o)
 .debug_info    0x000000000001bd1d      0xa5e /usr/lib/gcc/arm-none-eabi/4.8.2/../../../arm-none-eabi/lib/armv7-m/libg.a(lib_a-fstatr.o)
 .debug_info    0x000000000001c77b      0x8e0 /usr/lib/gcc/arm-none-eabi/4.8.2/../../../arm-none-eabi/lib/armv7-m/libg.a(lib_a-isattyr.o)
 .debug_info    0x000000000001d05b      0x90c /usr/lib/gcc/arm-none-eabi/4.8.2/../../../arm-none-eabi/lib/armv7-m/libg.a(lib_a-lseekr.o)
 .debug_info    0x000000000001d967      0x922 /usr/lib/gcc/arm-none-eabi/4.8.2/../../../arm-none-eabi/lib/armv7-m/libg.a(lib_a-readr.o)
 .debug_info    0x000000000001e289      0x9fb /usr/lib/gcc/arm-none-eabi/4.8.2/../../../arm-none-eabi/lib/armv7-m/libg.a(lib_a-reent.o)
 .debug_info    0x000000000001ec84      0x9cc /usr/lib/gcc/arm-none-eabi/4.8.2/../../../arm-none-eabi/lib/armv7-m/libg.a(lib_a-wbuf.o)
 .debug_info    0x000000000001f650      0xa75 /usr/lib/gcc/arm-none-eabi/4.8.2/../../../arm-none-eabi/lib/armv7-m/libg.a(lib_a-wcrtomb.o)
 .debug_info    0x00000000000200c5      0x9b5 /usr/lib/gcc/arm-none-eabi/4.8.2/../../../arm-none-eabi/lib/armv7-m/libg.a(lib_a-wctomb_r.o)
 .debug_info    0x0000000000020a7a       0xa0 /usr/lib/gcc/arm-none-eabi/4.8.2/armv7-m/libgcc.a(_arm_addsubdf3.o)
 .debug_info    0x0000000000020b1a       0xa0 /usr/lib/gcc/arm-none-eabi/4.8.2/armv7-m/libgcc.a(_arm_muldivdf3.o)
 .debug_info    0x0000000000020bba       0xa0 /usr/lib/gcc/arm-none-eabi/4.8.2/armv7-m/libgcc.a(_arm_cmpdf2.o)
 .debug_info    0x0000000000020c5a       0xa0 /usr/lib/gcc/arm-none-eabi/4.8.2/armv7-m/libgcc.a(_arm_fixdfsi.o)
 .debug_info    0x0000000000020cfa       0x9b /usr/lib/gcc/arm-none-eabi/4.8.2/armv7-m/libgcc.a(_aeabi_uldivmod.o)
 .debug_info    0x0000000000020d95      0x164 /usr/lib/gcc/arm-none-eabi/4.8.2/armv7-m/libgcc.a(bpabi.o)
 .debug_info    0x0000000000020ef9       0x9f /usr/lib/gcc/arm-none-eabi/4.8.2/armv7-m/libgcc.a(_dvmd_tls.o)
 .debug_info    0x0000000000020f98      0x5bd /usr/lib/gcc/arm-none-eabi/4.8.2/armv7-m/libgcc.a(_divdi3.o)
 .debug_info    0x0000000000021555      0x57c /usr/lib/gcc/arm-none-eabi/4.8.2/armv7-m/libgcc.a(_udivdi3.o)

.debug_abbrev   0x0000000000000000     0x6cb8
 .debug_abbrev  0x0000000000000000      0x13b /tmp/cc8SCMZU.o
 .debug_abbrev  0x000000000000013b       0x12 /tmp/ccmq0gqb.o
 .debug_abbrev  0x000000000000014d      0x1e8 /tmp/ccf6aV3r.o
 .debug_abbrev  0x0000000000000335      0x1a8 /tmp/ccXqE4VI.o
 .debug_abbrev  0x00000000000004dd      0x15a /tmp/ccewRW4Z.o
 .debug_abbrev  0x0000000000000637      0x1aa /tmp/cciNRtqh.o
 .debug_abbrev  0x00000000000007e1      0x12c /tmp/ccbHfsZy.o
 .debug_abbrev  0x000000000000090d      0x18a /tmp/ccHG3MIQ.o
 .debug_abbrev  0x0000000000000a97       0xbf /tmp/cciA8gx8.o
 .debug_abbrev  0x0000000000000b56      0x137 /tmp/cclQzAuq.o
 .debug_abbrev  0x0000000000000c8d      0x1d2 /tmp/ccisHkFI.o
 .debug_abbrev  0x0000000000000e5f      0x14b /tmp/ccKufXV0.o
 .debug_abbrev  0x0000000000000faa      0x10b /tmp/ccFDWphj.o
 .debug_abbrev  0x00000000000010b5      0x290 /tmp/ccOeehRB.o
 .debug_abbrev  0x0000000000001345      0x207 /tmp/ccVQAlBU.o
 .debug_abbrev  0x000000000000154c      0x112 /tmp/cck4IXtd.o
 .debug_abbrev  0x000000000000165e      0x112 /tmp/cci0TnCw.o
 .debug_abbrev  0x0000000000001770       0x14 /usr/lib/gcc/arm-none-eabi/4.8.2/../../../arm-none-eabi/lib/armv7-m/libg.a(lib_a-memcpy.o)
 .debug_abbrev  0x0000000000001784       0x9f /usr/lib/gcc/arm-none-eabi/4.8.2/../../../arm-none-eabi/lib/armv7-m/libg.a(lib_a-memset.o)
 .debug_abbrev  0x0000000000001823      0x227 /usr/lib/gcc/arm-none-eabi/4.8.2/../../../arm-none-eabi/lib/armv7-m/libg.a(lib_a-printf.o)
 .debug_abbrev  0x0000000000001a4a      0x235 /usr/lib/gcc/arm-none-eabi/4.8.2/../../../arm-none-eabi/lib/armv7-m/libg.a(lib_a-puts.o)
 .debug_abbrev  0x0000000000001c7f       0x70 /usr/lib/gcc/arm-none-eabi/4.8.2/../../../arm-none-eabi/lib/armv7-m/libg.a(lib_a-strlen.o)
 .debug_abbrev  0x0000000000001cef       0x9f /usr/lib/gcc/arm-none-eabi/4.8.2/../../../arm-none-eabi/lib/armv7-m/libg.a(lib_a-strncpy.o)
 .debug_abbrev  0x0000000000001d8e      0x3cd /usr/lib/gcc/arm-none-eabi/4.8.2/../../../arm-none-eabi/lib/armv7-m/libg.a(lib_a-vfprintf.o)
 .debug_abbrev  0x000000000000215b      0x20b /usr/lib/gcc/arm-none-eabi/4.8.2/../../../arm-none-eabi/lib/armv7-m/libg.a(lib_a-wsetup.o)
 .debug_abbrev  0x0000000000002366      0x2bc /usr/lib/gcc/arm-none-eabi/4.8.2/../../../arm-none-eabi/lib/armv7-m/libg.a(lib_a-dtoa.o)
 .debug_abbrev  0x0000000000002622      0x28e /usr/lib/gcc/arm-none-eabi/4.8.2/../../../arm-none-eabi/lib/armv7-m/libg.a(lib_a-fflush.o)
 .debug_abbrev  0x00000000000028b0      0x351 /usr/lib/gcc/arm-none-eabi/4.8.2/../../../arm-none-eabi/lib/armv7-m/libg.a(lib_a-findfp.o)
 .debug_abbrev  0x0000000000002c01      0x27b /usr/lib/gcc/arm-none-eabi/4.8.2/../../../arm-none-eabi/lib/armv7-m/libg.a(lib_a-freer.o)
 .debug_abbrev  0x0000000000002e7c      0x24a /usr/lib/gcc/arm-none-eabi/4.8.2/../../../arm-none-eabi/lib/armv7-m/libg.a(lib_a-fvwrite.o)
 .debug_abbrev  0x00000000000030c6      0x1d1 /usr/lib/gcc/arm-none-eabi/4.8.2/../../../arm-none-eabi/lib/armv7-m/libg.a(lib_a-fwalk.o)
 .debug_abbrev  0x0000000000003297      0x180 /usr/lib/gcc/arm-none-eabi/4.8.2/../../../arm-none-eabi/lib/armv7-m/libg.a(lib_a-impure.o)
 .debug_abbrev  0x0000000000003417      0x2a3 /usr/lib/gcc/arm-none-eabi/4.8.2/../../../arm-none-eabi/lib/armv7-m/libg.a(lib_a-locale.o)
 .debug_abbrev  0x00000000000036ba      0x206 /usr/lib/gcc/arm-none-eabi/4.8.2/../../../arm-none-eabi/lib/armv7-m/libg.a(lib_a-makebuf.o)
 .debug_abbrev  0x00000000000038c0      0x2a2 /usr/lib/gcc/arm-none-eabi/4.8.2/../../../arm-none-eabi/lib/armv7-m/libg.a(lib_a-mallocr.o)
 .debug_abbrev  0x0000000000003b62       0xba /usr/lib/gcc/arm-none-eabi/4.8.2/../../../arm-none-eabi/lib/armv7-m/libg.a(lib_a-memchr-stub.o)
 .debug_abbrev  0x0000000000003c1c       0xab /usr/lib/gcc/arm-none-eabi/4.8.2/../../../arm-none-eabi/lib/armv7-m/libg.a(lib_a-memmove.o)
 .debug_abbrev  0x0000000000003cc7      0x19a /usr/lib/gcc/arm-none-eabi/4.8.2/../../../arm-none-eabi/lib/armv7-m/libg.a(lib_a-mlock.o)
 .debug_abbrev  0x0000000000003e61      0x39d /usr/lib/gcc/arm-none-eabi/4.8.2/../../../arm-none-eabi/lib/armv7-m/libg.a(lib_a-mprec.o)
 .debug_abbrev  0x00000000000041fe      0x26b /usr/lib/gcc/arm-none-eabi/4.8.2/../../../arm-none-eabi/lib/armv7-m/libg.a(lib_a-reallocr.o)
 .debug_abbrev  0x0000000000004469       0x6f /usr/lib/gcc/arm-none-eabi/4.8.2/../../../arm-none-eabi/lib/armv7-m/libg.a(lib_a-s_fpclassify.o)
 .debug_abbrev  0x00000000000044d8      0x1fd /usr/lib/gcc/arm-none-eabi/4.8.2/../../../arm-none-eabi/lib/armv7-m/libg.a(lib_a-sbrkr.o)
 .debug_abbrev  0x00000000000046d5      0x246 /usr/lib/gcc/arm-none-eabi/4.8.2/../../../arm-none-eabi/lib/armv7-m/libg.a(lib_a-stdio.o)
 .debug_abbrev  0x000000000000491b       0x14 /usr/lib/gcc/arm-none-eabi/4.8.2/../../../arm-none-eabi/lib/armv7-m/libg.a(lib_a-strcmp.o)
 .debug_abbrev  0x000000000000492f      0x3cb /usr/lib/gcc/arm-none-eabi/4.8.2/../../../arm-none-eabi/lib/armv7-m/libg.a(lib_a-vfiprintf.o)
 .debug_abbrev  0x0000000000004cfa      0x1f4 /usr/lib/gcc/arm-none-eabi/4.8.2/../../../arm-none-eabi/lib/armv7-m/libg.a(lib_a-writer.o)
 .debug_abbrev  0x0000000000004eee      0x213 /usr/lib/gcc/arm-none-eabi/4.8.2/../../../arm-none-eabi/lib/armv7-m/libg.a(lib_a-callocr.o)
 .debug_abbrev  0x0000000000005101      0x1ef /usr/lib/gcc/arm-none-eabi/4.8.2/../../../arm-none-eabi/lib/armv7-m/libg.a(lib_a-closer.o)
 .debug_abbrev  0x00000000000052f0      0x273 /usr/lib/gcc/arm-none-eabi/4.8.2/../../../arm-none-eabi/lib/armv7-m/libg.a(lib_a-fclose.o)
 .debug_abbrev  0x0000000000005563      0x2ac /usr/lib/gcc/arm-none-eabi/4.8.2/../../../arm-none-eabi/lib/armv7-m/libg.a(lib_a-fputwc.o)
 .debug_abbrev  0x000000000000580f      0x1fe /usr/lib/gcc/arm-none-eabi/4.8.2/../../../arm-none-eabi/lib/armv7-m/libg.a(lib_a-fstatr.o)
 .debug_abbrev  0x0000000000005a0d      0x1ef /usr/lib/gcc/arm-none-eabi/4.8.2/../../../arm-none-eabi/lib/armv7-m/libg.a(lib_a-isattyr.o)
 .debug_abbrev  0x0000000000005bfc      0x1fe /usr/lib/gcc/arm-none-eabi/4.8.2/../../../arm-none-eabi/lib/armv7-m/libg.a(lib_a-lseekr.o)
 .debug_abbrev  0x0000000000005dfa      0x1ef /usr/lib/gcc/arm-none-eabi/4.8.2/../../../arm-none-eabi/lib/armv7-m/libg.a(lib_a-readr.o)
 .debug_abbrev  0x0000000000005fe9      0x258 /usr/lib/gcc/arm-none-eabi/4.8.2/../../../arm-none-eabi/lib/armv7-m/libg.a(lib_a-reent.o)
 .debug_abbrev  0x0000000000006241      0x25b /usr/lib/gcc/arm-none-eabi/4.8.2/../../../arm-none-eabi/lib/armv7-m/libg.a(lib_a-wbuf.o)
 .debug_abbrev  0x000000000000649c      0x222 /usr/lib/gcc/arm-none-eabi/4.8.2/../../../arm-none-eabi/lib/armv7-m/libg.a(lib_a-wcrtomb.o)
 .debug_abbrev  0x00000000000066be      0x212 /usr/lib/gcc/arm-none-eabi/4.8.2/../../../arm-none-eabi/lib/armv7-m/libg.a(lib_a-wctomb_r.o)
 .debug_abbrev  0x00000000000068d0       0x14 /usr/lib/gcc/arm-none-eabi/4.8.2/armv7-m/libgcc.a(_arm_addsubdf3.o)
 .debug_abbrev  0x00000000000068e4       0x14 /usr/lib/gcc/arm-none-eabi/4.8.2/armv7-m/libgcc.a(_arm_muldivdf3.o)
 .debug_abbrev  0x00000000000068f8       0x14 /usr/lib/gcc/arm-none-eabi/4.8.2/armv7-m/libgcc.a(_arm_cmpdf2.o)
 .debug_abbrev  0x000000000000690c       0x14 /usr/lib/gcc/arm-none-eabi/4.8.2/armv7-m/libgcc.a(_arm_fixdfsi.o)
 .debug_abbrev  0x0000000000006920       0x14 /usr/lib/gcc/arm-none-eabi/4.8.2/armv7-m/libgcc.a(_aeabi_uldivmod.o)
 .debug_abbrev  0x0000000000006934       0xb7 /usr/lib/gcc/arm-none-eabi/4.8.2/armv7-m/libgcc.a(bpabi.o)
 .debug_abbrev  0x00000000000069eb       0x14 /usr/lib/gcc/arm-none-eabi/4.8.2/armv7-m/libgcc.a(_dvmd_tls.o)
 .debug_abbrev  0x00000000000069ff      0x165 /usr/lib/gcc/arm-none-eabi/4.8.2/armv7-m/libgcc.a(_divdi3.o)
 .debug_abbrev  0x0000000000006b64      0x154 /usr/lib/gcc/arm-none-eabi/4.8.2/armv7-m/libgcc.a(_udivdi3.o)

.debug_loc      0x0000000000000000    0x11963
 .debug_loc     0x0000000000000000       0x9c /tmp/cc8SCMZU.o
 .debug_loc     0x000000000000009c      0x9b4 /tmp/ccf6aV3r.o
 .debug_loc     0x0000000000000a50      0x310 /tmp/ccXqE4VI.o
 .debug_loc     0x0000000000000d60      0x658 /tmp/ccewRW4Z.o
 .debug_loc     0x00000000000013b8      0x1b4 /tmp/cciNRtqh.o
 .debug_loc     0x000000000000156c      0x118 /tmp/ccbHfsZy.o
 .debug_loc     0x0000000000001684      0x188 /tmp/ccHG3MIQ.o
 .debug_loc     0x000000000000180c      0x118 /tmp/cciA8gx8.o
 .debug_loc     0x0000000000001924      0x3f0 /tmp/cclQzAuq.o
 .debug_loc     0x0000000000001d14      0x740 /tmp/ccisHkFI.o
 .debug_loc     0x0000000000002454      0x178 /tmp/ccKufXV0.o
 .debug_loc     0x00000000000025cc       0xc8 /tmp/ccFDWphj.o
 .debug_loc     0x0000000000002694      0x382 /tmp/ccOeehRB.o
 .debug_loc     0x0000000000002a16      0x294 /tmp/ccVQAlBU.o
 .debug_loc     0x0000000000002caa       0x64 /tmp/cck4IXtd.o
 .debug_loc     0x0000000000002d0e      0x1ca /tmp/cci0TnCw.o
 .debug_loc     0x0000000000002ed8      0x18b /usr/lib/gcc/arm-none-eabi/4.8.2/../../../arm-none-eabi/lib/armv7-m/libg.a(lib_a-memset.o)
 .debug_loc     0x0000000000003063       0x34 /usr/lib/gcc/arm-none-eabi/4.8.2/../../../arm-none-eabi/lib/armv7-m/libg.a(lib_a-printf.o)
 .debug_loc     0x0000000000003097       0xc4 /usr/lib/gcc/arm-none-eabi/4.8.2/../../../arm-none-eabi/lib/armv7-m/libg.a(lib_a-puts.o)
 .debug_loc     0x000000000000315b       0x21 /usr/lib/gcc/arm-none-eabi/4.8.2/../../../arm-none-eabi/lib/armv7-m/libg.a(lib_a-strlen.o)
 .debug_loc     0x000000000000317c      0x15b /usr/lib/gcc/arm-none-eabi/4.8.2/../../../arm-none-eabi/lib/armv7-m/libg.a(lib_a-strncpy.o)
 .debug_loc     0x00000000000032d7     0x27e6 /usr/lib/gcc/arm-none-eabi/4.8.2/../../../arm-none-eabi/lib/armv7-m/libg.a(lib_a-vfprintf.o)
 .debug_loc     0x0000000000005abd       0x86 /usr/lib/gcc/arm-none-eabi/4.8.2/../../../arm-none-eabi/lib/armv7-m/libg.a(lib_a-wsetup.o)
 .debug_loc     0x0000000000005b43     0x26ba /usr/lib/gcc/arm-none-eabi/4.8.2/../../../arm-none-eabi/lib/armv7-m/libg.a(lib_a-dtoa.o)
 .debug_loc     0x00000000000081fd      0x22f /usr/lib/gcc/arm-none-eabi/4.8.2/../../../arm-none-eabi/lib/armv7-m/libg.a(lib_a-fflush.o)
 .debug_loc     0x000000000000842c      0x2a7 /usr/lib/gcc/arm-none-eabi/4.8.2/../../../arm-none-eabi/lib/armv7-m/libg.a(lib_a-findfp.o)
 .debug_loc     0x00000000000086d3      0x450 /usr/lib/gcc/arm-none-eabi/4.8.2/../../../arm-none-eabi/lib/armv7-m/libg.a(lib_a-freer.o)
 .debug_loc     0x0000000000008b23      0x54b /usr/lib/gcc/arm-none-eabi/4.8.2/../../../arm-none-eabi/lib/armv7-m/libg.a(lib_a-fvwrite.o)
 .debug_loc     0x000000000000906e      0x1e3 /usr/lib/gcc/arm-none-eabi/4.8.2/../../../arm-none-eabi/lib/armv7-m/libg.a(lib_a-fwalk.o)
 .debug_loc     0x0000000000009251       0xd9 /usr/lib/gcc/arm-none-eabi/4.8.2/../../../arm-none-eabi/lib/armv7-m/libg.a(lib_a-locale.o)
 .debug_loc     0x000000000000932a      0x10c /usr/lib/gcc/arm-none-eabi/4.8.2/../../../arm-none-eabi/lib/armv7-m/libg.a(lib_a-makebuf.o)
 .debug_loc     0x0000000000009436      0xd1f /usr/lib/gcc/arm-none-eabi/4.8.2/../../../arm-none-eabi/lib/armv7-m/libg.a(lib_a-mallocr.o)
 .debug_loc     0x000000000000a155      0x17b /usr/lib/gcc/arm-none-eabi/4.8.2/../../../arm-none-eabi/lib/armv7-m/libg.a(lib_a-memchr-stub.o)
 .debug_loc     0x000000000000a2d0      0x2ca /usr/lib/gcc/arm-none-eabi/4.8.2/../../../arm-none-eabi/lib/armv7-m/libg.a(lib_a-memmove.o)
 .debug_loc     0x000000000000a59a     0x2462 /usr/lib/gcc/arm-none-eabi/4.8.2/../../../arm-none-eabi/lib/armv7-m/libg.a(lib_a-mprec.o)
 .debug_loc     0x000000000000c9fc      0xe59 /usr/lib/gcc/arm-none-eabi/4.8.2/../../../arm-none-eabi/lib/armv7-m/libg.a(lib_a-reallocr.o)
 .debug_loc     0x000000000000d855       0x84 /usr/lib/gcc/arm-none-eabi/4.8.2/../../../arm-none-eabi/lib/armv7-m/libg.a(lib_a-s_fpclassify.o)
 .debug_loc     0x000000000000d8d9       0x3f /usr/lib/gcc/arm-none-eabi/4.8.2/../../../arm-none-eabi/lib/armv7-m/libg.a(lib_a-sbrkr.o)
 .debug_loc     0x000000000000d918      0x29e /usr/lib/gcc/arm-none-eabi/4.8.2/../../../arm-none-eabi/lib/armv7-m/libg.a(lib_a-stdio.o)
 .debug_loc     0x000000000000dbb6     0x1b4d /usr/lib/gcc/arm-none-eabi/4.8.2/../../../arm-none-eabi/lib/armv7-m/libg.a(lib_a-vfiprintf.o)
 .debug_loc     0x000000000000f703       0x97 /usr/lib/gcc/arm-none-eabi/4.8.2/../../../arm-none-eabi/lib/armv7-m/libg.a(lib_a-writer.o)
 .debug_loc     0x000000000000f79a      0x1f4 /usr/lib/gcc/arm-none-eabi/4.8.2/../../../arm-none-eabi/lib/armv7-m/libg.a(lib_a-callocr.o)
 .debug_loc     0x000000000000f98e       0x3f /usr/lib/gcc/arm-none-eabi/4.8.2/../../../arm-none-eabi/lib/armv7-m/libg.a(lib_a-closer.o)
 .debug_loc     0x000000000000f9cd       0xfc /usr/lib/gcc/arm-none-eabi/4.8.2/../../../arm-none-eabi/lib/armv7-m/libg.a(lib_a-fclose.o)
 .debug_loc     0x000000000000fac9      0x159 /usr/lib/gcc/arm-none-eabi/4.8.2/../../../arm-none-eabi/lib/armv7-m/libg.a(lib_a-fputwc.o)
 .debug_loc     0x000000000000fc22       0x6b /usr/lib/gcc/arm-none-eabi/4.8.2/../../../arm-none-eabi/lib/armv7-m/libg.a(lib_a-fstatr.o)
 .debug_loc     0x000000000000fc8d       0x3f /usr/lib/gcc/arm-none-eabi/4.8.2/../../../arm-none-eabi/lib/armv7-m/libg.a(lib_a-isattyr.o)
 .debug_loc     0x000000000000fccc       0x97 /usr/lib/gcc/arm-none-eabi/4.8.2/../../../arm-none-eabi/lib/armv7-m/libg.a(lib_a-lseekr.o)
 .debug_loc     0x000000000000fd63       0x97 /usr/lib/gcc/arm-none-eabi/4.8.2/../../../arm-none-eabi/lib/armv7-m/libg.a(lib_a-readr.o)
 .debug_loc     0x000000000000fdfa      0x13b /usr/lib/gcc/arm-none-eabi/4.8.2/../../../arm-none-eabi/lib/armv7-m/libg.a(lib_a-reent.o)
 .debug_loc     0x000000000000ff35      0x112 /usr/lib/gcc/arm-none-eabi/4.8.2/../../../arm-none-eabi/lib/armv7-m/libg.a(lib_a-wbuf.o)
 .debug_loc     0x0000000000010047      0x1e9 /usr/lib/gcc/arm-none-eabi/4.8.2/../../../arm-none-eabi/lib/armv7-m/libg.a(lib_a-wcrtomb.o)
 .debug_loc     0x0000000000010230       0xde /usr/lib/gcc/arm-none-eabi/4.8.2/../../../arm-none-eabi/lib/armv7-m/libg.a(lib_a-wctomb_r.o)
 .debug_loc     0x000000000001030e       0xa0 /usr/lib/gcc/arm-none-eabi/4.8.2/armv7-m/libgcc.a(bpabi.o)
 .debug_loc     0x00000000000103ae      0xa76 /usr/lib/gcc/arm-none-eabi/4.8.2/armv7-m/libgcc.a(_divdi3.o)
 .debug_loc     0x0000000000010e24      0xb3f /usr/lib/gcc/arm-none-eabi/4.8.2/armv7-m/libgcc.a(_udivdi3.o)

.debug_aranges  0x0000000000000000      0xa48
 .debug_aranges
                0x0000000000000000       0x20 /tmp/cc8SCMZU.o
 .debug_aranges
                0x0000000000000020       0x28 /tmp/ccmq0gqb.o
 .debug_aranges
                0x0000000000000048       0x20 /tmp/ccf6aV3r.o
 .debug_aranges
                0x0000000000000068       0x20 /tmp/ccXqE4VI.o
 .debug_aranges
                0x0000000000000088       0x20 /tmp/ccewRW4Z.o
 .debug_aranges
                0x00000000000000a8       0x20 /tmp/cciNRtqh.o
 .debug_aranges
                0x00000000000000c8       0x20 /tmp/ccbHfsZy.o
 .debug_aranges
                0x00000000000000e8       0x20 /tmp/ccHG3MIQ.o
 .debug_aranges
                0x0000000000000108       0x20 /tmp/cciA8gx8.o
 .debug_aranges
                0x0000000000000128       0x20 /tmp/cclQzAuq.o
 .debug_aranges
                0x0000000000000148       0x20 /tmp/ccisHkFI.o
 .debug_aranges
                0x0000000000000168       0x20 /tmp/ccKufXV0.o
 .debug_aranges
                0x0000000000000188       0x20 /tmp/ccFDWphj.o
 .debug_aranges
                0x00000000000001a8       0x20 /tmp/ccOeehRB.o
 .debug_aranges
                0x00000000000001c8       0x20 /tmp/ccVQAlBU.o
 .debug_aranges
                0x00000000000001e8       0x20 /tmp/cck4IXtd.o
 .debug_aranges
                0x0000000000000208       0x20 /tmp/cci0TnCw.o
 .debug_aranges
                0x0000000000000228       0x20 /usr/lib/gcc/arm-none-eabi/4.8.2/../../../arm-none-eabi/lib/armv7-m/libg.a(lib_a-memcpy.o)
 .debug_aranges
                0x0000000000000248       0x20 /usr/lib/gcc/arm-none-eabi/4.8.2/../../../arm-none-eabi/lib/armv7-m/libg.a(lib_a-memset.o)
 .debug_aranges
                0x0000000000000268       0x28 /usr/lib/gcc/arm-none-eabi/4.8.2/../../../arm-none-eabi/lib/armv7-m/libg.a(lib_a-printf.o)
 .debug_aranges
                0x0000000000000290       0x28 /usr/lib/gcc/arm-none-eabi/4.8.2/../../../arm-none-eabi/lib/armv7-m/libg.a(lib_a-puts.o)
 .debug_aranges
                0x00000000000002b8       0x20 /usr/lib/gcc/arm-none-eabi/4.8.2/../../../arm-none-eabi/lib/armv7-m/libg.a(lib_a-strlen.o)
 .debug_aranges
                0x00000000000002d8       0x20 /usr/lib/gcc/arm-none-eabi/4.8.2/../../../arm-none-eabi/lib/armv7-m/libg.a(lib_a-strncpy.o)
 .debug_aranges
                0x00000000000002f8       0x30 /usr/lib/gcc/arm-none-eabi/4.8.2/../../../arm-none-eabi/lib/armv7-m/libg.a(lib_a-vfprintf.o)
 .debug_aranges
                0x0000000000000328       0x20 /usr/lib/gcc/arm-none-eabi/4.8.2/../../../arm-none-eabi/lib/armv7-m/libg.a(lib_a-wsetup.o)
 .debug_aranges
                0x0000000000000348       0x28 /usr/lib/gcc/arm-none-eabi/4.8.2/../../../arm-none-eabi/lib/armv7-m/libg.a(lib_a-dtoa.o)
 .debug_aranges
                0x0000000000000370       0x30 /usr/lib/gcc/arm-none-eabi/4.8.2/../../../arm-none-eabi/lib/armv7-m/libg.a(lib_a-fflush.o)
 .debug_aranges
                0x00000000000003a0       0x80 /usr/lib/gcc/arm-none-eabi/4.8.2/../../../arm-none-eabi/lib/armv7-m/libg.a(lib_a-findfp.o)
 .debug_aranges
                0x0000000000000420       0x28 /usr/lib/gcc/arm-none-eabi/4.8.2/../../../arm-none-eabi/lib/armv7-m/libg.a(lib_a-freer.o)
 .debug_aranges
                0x0000000000000448       0x20 /usr/lib/gcc/arm-none-eabi/4.8.2/../../../arm-none-eabi/lib/armv7-m/libg.a(lib_a-fvwrite.o)
 .debug_aranges
                0x0000000000000468       0x28 /usr/lib/gcc/arm-none-eabi/4.8.2/../../../arm-none-eabi/lib/armv7-m/libg.a(lib_a-fwalk.o)
 .debug_aranges
                0x0000000000000490       0x18 /usr/lib/gcc/arm-none-eabi/4.8.2/../../../arm-none-eabi/lib/armv7-m/libg.a(lib_a-impure.o)
 .debug_aranges
                0x00000000000004a8       0x58 /usr/lib/gcc/arm-none-eabi/4.8.2/../../../arm-none-eabi/lib/armv7-m/libg.a(lib_a-locale.o)
 .debug_aranges
                0x0000000000000500       0x20 /usr/lib/gcc/arm-none-eabi/4.8.2/../../../arm-none-eabi/lib/armv7-m/libg.a(lib_a-makebuf.o)
 .debug_aranges
                0x0000000000000520       0x20 /usr/lib/gcc/arm-none-eabi/4.8.2/../../../arm-none-eabi/lib/armv7-m/libg.a(lib_a-mallocr.o)
 .debug_aranges
                0x0000000000000540       0x20 /usr/lib/gcc/arm-none-eabi/4.8.2/../../../arm-none-eabi/lib/armv7-m/libg.a(lib_a-memchr-stub.o)
 .debug_aranges
                0x0000000000000560       0x20 /usr/lib/gcc/arm-none-eabi/4.8.2/../../../arm-none-eabi/lib/armv7-m/libg.a(lib_a-memmove.o)
 .debug_aranges
                0x0000000000000580       0x28 /usr/lib/gcc/arm-none-eabi/4.8.2/../../../arm-none-eabi/lib/armv7-m/libg.a(lib_a-mlock.o)
 .debug_aranges
                0x00000000000005a8       0xb0 /usr/lib/gcc/arm-none-eabi/4.8.2/../../../arm-none-eabi/lib/armv7-m/libg.a(lib_a-mprec.o)
 .debug_aranges
                0x0000000000000658       0x20 /usr/lib/gcc/arm-none-eabi/4.8.2/../../../arm-none-eabi/lib/armv7-m/libg.a(lib_a-reallocr.o)
 .debug_aranges
                0x0000000000000678       0x20 /usr/lib/gcc/arm-none-eabi/4.8.2/../../../arm-none-eabi/lib/armv7-m/libg.a(lib_a-s_fpclassify.o)
 .debug_aranges
                0x0000000000000698       0x20 /usr/lib/gcc/arm-none-eabi/4.8.2/../../../arm-none-eabi/lib/armv7-m/libg.a(lib_a-sbrkr.o)
 .debug_aranges
                0x00000000000006b8       0x40 /usr/lib/gcc/arm-none-eabi/4.8.2/../../../arm-none-eabi/lib/armv7-m/libg.a(lib_a-stdio.o)
 .debug_aranges
                0x00000000000006f8       0x20 /usr/lib/gcc/arm-none-eabi/4.8.2/../../../arm-none-eabi/lib/armv7-m/libg.a(lib_a-strcmp.o)
 .debug_aranges
                0x0000000000000718       0x40 /usr/lib/gcc/arm-none-eabi/4.8.2/../../../arm-none-eabi/lib/armv7-m/libg.a(lib_a-vfiprintf.o)
 .debug_aranges
                0x0000000000000758       0x20 /usr/lib/gcc/arm-none-eabi/4.8.2/../../../arm-none-eabi/lib/armv7-m/libg.a(lib_a-writer.o)
 .debug_aranges
                0x0000000000000778       0x20 /usr/lib/gcc/arm-none-eabi/4.8.2/../../../arm-none-eabi/lib/armv7-m/libg.a(lib_a-callocr.o)
 .debug_aranges
                0x0000000000000798       0x20 /usr/lib/gcc/arm-none-eabi/4.8.2/../../../arm-none-eabi/lib/armv7-m/libg.a(lib_a-closer.o)
 .debug_aranges
                0x00000000000007b8       0x28 /usr/lib/gcc/arm-none-eabi/4.8.2/../../../arm-none-eabi/lib/armv7-m/libg.a(lib_a-fclose.o)
 .debug_aranges
                0x00000000000007e0       0x28 /usr/lib/gcc/arm-none-eabi/4.8.2/../../../arm-none-eabi/lib/armv7-m/libg.a(lib_a-fputwc.o)
 .debug_aranges
                0x0000000000000808       0x20 /usr/lib/gcc/arm-none-eabi/4.8.2/../../../arm-none-eabi/lib/armv7-m/libg.a(lib_a-fstatr.o)
 .debug_aranges
                0x0000000000000828       0x20 /usr/lib/gcc/arm-none-eabi/4.8.2/../../../arm-none-eabi/lib/armv7-m/libg.a(lib_a-isattyr.o)
 .debug_aranges
                0x0000000000000848       0x20 /usr/lib/gcc/arm-none-eabi/4.8.2/../../../arm-none-eabi/lib/armv7-m/libg.a(lib_a-lseekr.o)
 .debug_aranges
                0x0000000000000868       0x20 /usr/lib/gcc/arm-none-eabi/4.8.2/../../../arm-none-eabi/lib/armv7-m/libg.a(lib_a-readr.o)
 .debug_aranges
                0x0000000000000888       0x28 /usr/lib/gcc/arm-none-eabi/4.8.2/../../../arm-none-eabi/lib/armv7-m/libg.a(lib_a-reent.o)
 .debug_aranges
                0x00000000000008b0       0x28 /usr/lib/gcc/arm-none-eabi/4.8.2/../../../arm-none-eabi/lib/armv7-m/libg.a(lib_a-wbuf.o)
 .debug_aranges
                0x00000000000008d8       0x28 /usr/lib/gcc/arm-none-eabi/4.8.2/../../../arm-none-eabi/lib/armv7-m/libg.a(lib_a-wcrtomb.o)
 .debug_aranges
                0x0000000000000900       0x28 /usr/lib/gcc/arm-none-eabi/4.8.2/../../../arm-none-eabi/lib/armv7-m/libg.a(lib_a-wctomb_r.o)
 .debug_aranges
                0x0000000000000928       0x20 /usr/lib/gcc/arm-none-eabi/4.8.2/armv7-m/libgcc.a(_arm_addsubdf3.o)
 .debug_aranges
                0x0000000000000948       0x20 /usr/lib/gcc/arm-none-eabi/4.8.2/armv7-m/libgcc.a(_arm_muldivdf3.o)
 .debug_aranges
                0x0000000000000968       0x20 /usr/lib/gcc/arm-none-eabi/4.8.2/armv7-m/libgcc.a(_arm_cmpdf2.o)
 .debug_aranges
                0x0000000000000988       0x20 /usr/lib/gcc/arm-none-eabi/4.8.2/armv7-m/libgcc.a(_arm_fixdfsi.o)
 .debug_aranges
                0x00000000000009a8       0x20 /usr/lib/gcc/arm-none-eabi/4.8.2/armv7-m/libgcc.a(_aeabi_uldivmod.o)
 .debug_aranges
                0x00000000000009c8       0x20 /usr/lib/gcc/arm-none-eabi/4.8.2/armv7-m/libgcc.a(bpabi.o)
 .debug_aranges
                0x00000000000009e8       0x20 /usr/lib/gcc/arm-none-eabi/4.8.2/armv7-m/libgcc.a(_dvmd_tls.o)
 .debug_aranges
                0x0000000000000a08       0x20 /usr/lib/gcc/arm-none-eabi/4.8.2/armv7-m/libgcc.a(_divdi3.o)
 .debug_aranges
                0x0000000000000a28       0x20 /usr/lib/gcc/arm-none-eabi/4.8.2/armv7-m/libgcc.a(_udivdi3.o)

.debug_macro    0x0000000000000000    0x15b09
 .debug_macro   0x0000000000000000       0xad /tmp/cc8SCMZU.o
 .debug_macro   0x00000000000000ad      0x844 /tmp/cc8SCMZU.o
 .debug_macro   0x00000000000008f1       0x63 /tmp/cc8SCMZU.o
 .debug_macro   0x0000000000000954       0x3b /tmp/cc8SCMZU.o
 .debug_macro   0x000000000000098f       0x16 /tmp/cc8SCMZU.o
 .debug_macro   0x00000000000009a5       0x44 /tmp/cc8SCMZU.o
 .debug_macro   0x00000000000009e9      0x209 /tmp/cc8SCMZU.o
 .debug_macro   0x0000000000000bf2       0x18 /tmp/cc8SCMZU.o
 .debug_macro   0x0000000000000c0a       0x42 /tmp/cc8SCMZU.o
 .debug_macro   0x0000000000000c4c      0xd39 /tmp/cc8SCMZU.o
 .debug_macro   0x0000000000001985     0x8264 /tmp/cc8SCMZU.o
 .debug_macro   0x0000000000009be9      0x155 /tmp/ccf6aV3r.o
 .debug_macro   0x0000000000009d3e      0x576 /tmp/ccf6aV3r.o
 .debug_macro   0x000000000000a2b4       0xa2 /tmp/ccXqE4VI.o
 .debug_macro   0x000000000000a356      0x282 /tmp/ccXqE4VI.o
 .debug_macro   0x000000000000a5d8      0x57c /tmp/ccXqE4VI.o
 .debug_macro   0x000000000000ab54       0xba /tmp/ccewRW4Z.o
 .debug_macro   0x000000000000ac0e      0x21d /tmp/ccewRW4Z.o
 .debug_macro   0x000000000000ae2b       0x9f /tmp/cciNRtqh.o
 .debug_macro   0x000000000000aeca       0xa8 /tmp/cciNRtqh.o
 .debug_macro   0x000000000000af72       0x9f /tmp/ccbHfsZy.o
 .debug_macro   0x000000000000b011       0x7c /tmp/ccbHfsZy.o
 .debug_macro   0x000000000000b08d       0x8b /tmp/ccHG3MIQ.o
 .debug_macro   0x000000000000b118      0x166 /tmp/ccHG3MIQ.o
 .debug_macro   0x000000000000b27e       0x46 /tmp/ccHG3MIQ.o
 .debug_macro   0x000000000000b2c4       0xc4 /tmp/ccHG3MIQ.o
 .debug_macro   0x000000000000b388       0xa4 /tmp/ccHG3MIQ.o
 .debug_macro   0x000000000000b42c       0x12 /tmp/ccHG3MIQ.o
 .debug_macro   0x000000000000b43e       0x1f /tmp/ccHG3MIQ.o
 .debug_macro   0x000000000000b45d      0x1ee /tmp/ccHG3MIQ.o
 .debug_macro   0x000000000000b64b       0x49 /tmp/ccHG3MIQ.o
 .debug_macro   0x000000000000b694       0x57 /tmp/ccHG3MIQ.o
 .debug_macro   0x000000000000b6eb       0x49 /tmp/ccHG3MIQ.o
 .debug_macro   0x000000000000b734      0x117 /tmp/cciA8gx8.o
 .debug_macro   0x000000000000b84b       0x58 /tmp/cciA8gx8.o
 .debug_macro   0x000000000000b8a3       0x35 /tmp/cciA8gx8.o
 .debug_macro   0x000000000000b8d8       0xa3 /tmp/cciA8gx8.o
 .debug_macro   0x000000000000b97b       0x16 /tmp/cciA8gx8.o
 .debug_macro   0x000000000000b991      0x10e /tmp/cciA8gx8.o
 .debug_macro   0x000000000000ba9f       0x7f /tmp/cciA8gx8.o
 .debug_macro   0x000000000000bb1e       0x4a /tmp/cciA8gx8.o
 .debug_macro   0x000000000000bb68       0x52 /tmp/cciA8gx8.o
 .debug_macro   0x000000000000bbba       0x16 /tmp/cciA8gx8.o
 .debug_macro   0x000000000000bbd0       0x43 /tmp/cciA8gx8.o
 .debug_macro   0x000000000000bc13      0x180 /tmp/cciA8gx8.o
 .debug_macro   0x000000000000bd93       0x22 /tmp/cciA8gx8.o
 .debug_macro   0x000000000000bdb5      0x1cf /tmp/cclQzAuq.o
 .debug_macro   0x000000000000bf84      0x2a3 /tmp/cclQzAuq.o
 .debug_macro   0x000000000000c227       0x10 /tmp/cclQzAuq.o
 .debug_macro   0x000000000000c237       0x35 /tmp/cclQzAuq.o
 .debug_macro   0x000000000000c26c      0x20c /tmp/ccisHkFI.o
 .debug_macro   0x000000000000c478       0x16 /tmp/ccisHkFI.o
 .debug_macro   0x000000000000c48e       0x97 /tmp/ccisHkFI.o
 .debug_macro   0x000000000000c525       0x10 /tmp/ccisHkFI.o
 .debug_macro   0x000000000000c535       0xef /tmp/ccisHkFI.o
 .debug_macro   0x000000000000c624       0x10 /tmp/ccisHkFI.o
 .debug_macro   0x000000000000c634       0x22 /tmp/ccisHkFI.o
 .debug_macro   0x000000000000c656       0xbd /tmp/ccisHkFI.o
 .debug_macro   0x000000000000c713       0x16 /tmp/ccisHkFI.o
 .debug_macro   0x000000000000c729      0x14a /tmp/ccisHkFI.o
 .debug_macro   0x000000000000c873       0x5b /tmp/ccisHkFI.o
 .debug_macro   0x000000000000c8ce       0x16 /tmp/ccisHkFI.o
 .debug_macro   0x000000000000c8e4       0xb8 /tmp/ccKufXV0.o
 .debug_macro   0x000000000000c99c      0x132 /tmp/ccFDWphj.o
 .debug_macro   0x000000000000cace      0x229 /tmp/ccOeehRB.o
 .debug_macro   0x000000000000ccf7      0x15c /tmp/ccVQAlBU.o
 .debug_macro   0x000000000000ce53       0x1c /tmp/ccVQAlBU.o
 .debug_macro   0x000000000000ce6f       0x16 /tmp/ccVQAlBU.o
 .debug_macro   0x000000000000ce85       0x10 /tmp/ccVQAlBU.o
 .debug_macro   0x000000000000ce95       0x3a /tmp/ccVQAlBU.o
 .debug_macro   0x000000000000cecf      0x120 /tmp/ccVQAlBU.o
 .debug_macro   0x000000000000cfef      0x20f /tmp/ccVQAlBU.o
 .debug_macro   0x000000000000d1fe       0x9f /tmp/cck4IXtd.o
 .debug_macro   0x000000000000d29d      0x259 /tmp/cci0TnCw.o
 .debug_macro   0x000000000000d4f6     0x822c /tmp/cci0TnCw.o
 .debug_macro   0x0000000000015722      0x223 /tmp/cci0TnCw.o
 .debug_macro   0x0000000000015945       0x3c /tmp/cci0TnCw.o
 .debug_macro   0x0000000000015981       0x96 /tmp/cci0TnCw.o
 .debug_macro   0x0000000000015a17       0x70 /tmp/cci0TnCw.o
 .debug_macro   0x0000000000015a87       0x82 /tmp/cci0TnCw.o

.debug_line     0x0000000000000000     0x8ad7
 .debug_line    0x0000000000000000      0x248 /tmp/cc8SCMZU.o
 .debug_line    0x0000000000000248       0xb9 /tmp/ccmq0gqb.o
 .debug_line    0x0000000000000301      0x38f /tmp/ccf6aV3r.o
 .debug_line    0x0000000000000690      0x2c2 /tmp/ccXqE4VI.o
 .debug_line    0x0000000000000952      0x359 /tmp/ccewRW4Z.o
 .debug_line    0x0000000000000cab      0x264 /tmp/cciNRtqh.o
 .debug_line    0x0000000000000f0f      0x22b /tmp/ccbHfsZy.o
 .debug_line    0x000000000000113a      0x220 /tmp/ccHG3MIQ.o
 .debug_line    0x000000000000135a      0x24c /tmp/cciA8gx8.o
 .debug_line    0x00000000000015a6      0x39a /tmp/cclQzAuq.o
 .debug_line    0x0000000000001940      0x5d6 /tmp/ccisHkFI.o
 .debug_line    0x0000000000001f16      0x167 /tmp/ccKufXV0.o
 .debug_line    0x000000000000207d      0x24f /tmp/ccFDWphj.o
 .debug_line    0x00000000000022cc      0x4dc /tmp/ccOeehRB.o
 .debug_line    0x00000000000027a8      0x1f4 /tmp/ccVQAlBU.o
 .debug_line    0x000000000000299c      0x1e8 /tmp/cck4IXtd.o
 .debug_line    0x0000000000002b84      0x434 /tmp/cci0TnCw.o
 .debug_line    0x0000000000002fb8       0xbb /usr/lib/gcc/arm-none-eabi/4.8.2/../../../arm-none-eabi/lib/armv7-m/libg.a(lib_a-memcpy.o)
 .debug_line    0x0000000000003073       0xff /usr/lib/gcc/arm-none-eabi/4.8.2/../../../arm-none-eabi/lib/armv7-m/libg.a(lib_a-memset.o)
 .debug_line    0x0000000000003172      0x157 /usr/lib/gcc/arm-none-eabi/4.8.2/../../../arm-none-eabi/lib/armv7-m/libg.a(lib_a-printf.o)
 .debug_line    0x00000000000032c9      0x173 /usr/lib/gcc/arm-none-eabi/4.8.2/../../../arm-none-eabi/lib/armv7-m/libg.a(lib_a-puts.o)
 .debug_line    0x000000000000343c       0xd7 /usr/lib/gcc/arm-none-eabi/4.8.2/../../../arm-none-eabi/lib/armv7-m/libg.a(lib_a-strlen.o)
 .debug_line    0x0000000000003513      0x101 /usr/lib/gcc/arm-none-eabi/4.8.2/../../../arm-none-eabi/lib/armv7-m/libg.a(lib_a-strncpy.o)
 .debug_line    0x0000000000003614      0x958 /usr/lib/gcc/arm-none-eabi/4.8.2/../../../arm-none-eabi/lib/armv7-m/libg.a(lib_a-vfprintf.o)
 .debug_line    0x0000000000003f6c      0x186 /usr/lib/gcc/arm-none-eabi/4.8.2/../../../arm-none-eabi/lib/armv7-m/libg.a(lib_a-wsetup.o)
 .debug_line    0x00000000000040f2      0x654 /usr/lib/gcc/arm-none-eabi/4.8.2/../../../arm-none-eabi/lib/armv7-m/libg.a(lib_a-dtoa.o)
 .debug_line    0x0000000000004746      0x224 /usr/lib/gcc/arm-none-eabi/4.8.2/../../../arm-none-eabi/lib/armv7-m/libg.a(lib_a-fflush.o)
 .debug_line    0x000000000000496a      0x2c9 /usr/lib/gcc/arm-none-eabi/4.8.2/../../../arm-none-eabi/lib/armv7-m/libg.a(lib_a-findfp.o)
 .debug_line    0x0000000000004c33      0x221 /usr/lib/gcc/arm-none-eabi/4.8.2/../../../arm-none-eabi/lib/armv7-m/libg.a(lib_a-freer.o)
 .debug_line    0x0000000000004e54      0x290 /usr/lib/gcc/arm-none-eabi/4.8.2/../../../arm-none-eabi/lib/armv7-m/libg.a(lib_a-fvwrite.o)
 .debug_line    0x00000000000050e4      0x191 /usr/lib/gcc/arm-none-eabi/4.8.2/../../../arm-none-eabi/lib/armv7-m/libg.a(lib_a-fwalk.o)
 .debug_line    0x0000000000005275       0xd6 /usr/lib/gcc/arm-none-eabi/4.8.2/../../../arm-none-eabi/lib/armv7-m/libg.a(lib_a-impure.o)
 .debug_line    0x000000000000534b      0x1c4 /usr/lib/gcc/arm-none-eabi/4.8.2/../../../arm-none-eabi/lib/armv7-m/libg.a(lib_a-locale.o)
 .debug_line    0x000000000000550f      0x1af /usr/lib/gcc/arm-none-eabi/4.8.2/../../../arm-none-eabi/lib/armv7-m/libg.a(lib_a-makebuf.o)
 .debug_line    0x00000000000056be      0x325 /usr/lib/gcc/arm-none-eabi/4.8.2/../../../arm-none-eabi/lib/armv7-m/libg.a(lib_a-mallocr.o)
 .debug_line    0x00000000000059e3      0x115 /usr/lib/gcc/arm-none-eabi/4.8.2/../../../arm-none-eabi/lib/armv7-m/libg.a(lib_a-memchr-stub.o)
 .debug_line    0x0000000000005af8      0x114 /usr/lib/gcc/arm-none-eabi/4.8.2/../../../arm-none-eabi/lib/armv7-m/libg.a(lib_a-memmove.o)
 .debug_line    0x0000000000005c0c       0xf4 /usr/lib/gcc/arm-none-eabi/4.8.2/../../../arm-none-eabi/lib/armv7-m/libg.a(lib_a-mlock.o)
 .debug_line    0x0000000000005d00      0x68f /usr/lib/gcc/arm-none-eabi/4.8.2/../../../arm-none-eabi/lib/armv7-m/libg.a(lib_a-mprec.o)
 .debug_line    0x000000000000638f      0x23c /usr/lib/gcc/arm-none-eabi/4.8.2/../../../arm-none-eabi/lib/armv7-m/libg.a(lib_a-reallocr.o)
 .debug_line    0x00000000000065cb       0xf7 /usr/lib/gcc/arm-none-eabi/4.8.2/../../../arm-none-eabi/lib/armv7-m/libg.a(lib_a-s_fpclassify.o)
 .debug_line    0x00000000000066c2      0x12c /usr/lib/gcc/arm-none-eabi/4.8.2/../../../arm-none-eabi/lib/armv7-m/libg.a(lib_a-sbrkr.o)
 .debug_line    0x00000000000067ee      0x19e /usr/lib/gcc/arm-none-eabi/4.8.2/../../../arm-none-eabi/lib/armv7-m/libg.a(lib_a-stdio.o)
 .debug_line    0x000000000000698c       0xfb /usr/lib/gcc/arm-none-eabi/4.8.2/../../../arm-none-eabi/lib/armv7-m/libg.a(lib_a-strcmp.o)
 .debug_line    0x0000000000006a87      0x6c3 /usr/lib/gcc/arm-none-eabi/4.8.2/../../../arm-none-eabi/lib/armv7-m/libg.a(lib_a-vfiprintf.o)
 .debug_line    0x000000000000714a      0x12f /usr/lib/gcc/arm-none-eabi/4.8.2/../../../arm-none-eabi/lib/armv7-m/libg.a(lib_a-writer.o)
 .debug_line    0x0000000000007279      0x111 /usr/lib/gcc/arm-none-eabi/4.8.2/../../../arm-none-eabi/lib/armv7-m/libg.a(lib_a-callocr.o)
 .debug_line    0x000000000000738a      0x12d /usr/lib/gcc/arm-none-eabi/4.8.2/../../../arm-none-eabi/lib/armv7-m/libg.a(lib_a-closer.o)
 .debug_line    0x00000000000074b7      0x18d /usr/lib/gcc/arm-none-eabi/4.8.2/../../../arm-none-eabi/lib/armv7-m/libg.a(lib_a-fclose.o)
 .debug_line    0x0000000000007644      0x18e /usr/lib/gcc/arm-none-eabi/4.8.2/../../../arm-none-eabi/lib/armv7-m/libg.a(lib_a-fputwc.o)
 .debug_line    0x00000000000077d2      0x142 /usr/lib/gcc/arm-none-eabi/4.8.2/../../../arm-none-eabi/lib/armv7-m/libg.a(lib_a-fstatr.o)
 .debug_line    0x0000000000007914      0x12e /usr/lib/gcc/arm-none-eabi/4.8.2/../../../arm-none-eabi/lib/armv7-m/libg.a(lib_a-isattyr.o)
 .debug_line    0x0000000000007a42      0x12f /usr/lib/gcc/arm-none-eabi/4.8.2/../../../arm-none-eabi/lib/armv7-m/libg.a(lib_a-lseekr.o)
 .debug_line    0x0000000000007b71      0x12e /usr/lib/gcc/arm-none-eabi/4.8.2/../../../arm-none-eabi/lib/armv7-m/libg.a(lib_a-readr.o)
 .debug_line    0x0000000000007c9f      0x162 /usr/lib/gcc/arm-none-eabi/4.8.2/../../../arm-none-eabi/lib/armv7-m/libg.a(lib_a-reent.o)
 .debug_line    0x0000000000007e01      0x191 /usr/lib/gcc/arm-none-eabi/4.8.2/../../../arm-none-eabi/lib/armv7-m/libg.a(lib_a-wbuf.o)
 .debug_line    0x0000000000007f92      0x16a /usr/lib/gcc/arm-none-eabi/4.8.2/../../../arm-none-eabi/lib/armv7-m/libg.a(lib_a-wcrtomb.o)
 .debug_line    0x00000000000080fc      0x15a /usr/lib/gcc/arm-none-eabi/4.8.2/../../../arm-none-eabi/lib/armv7-m/libg.a(lib_a-wctomb_r.o)
 .debug_line    0x0000000000008256      0x1fc /usr/lib/gcc/arm-none-eabi/4.8.2/armv7-m/libgcc.a(_arm_addsubdf3.o)
 .debug_line    0x0000000000008452      0x21d /usr/lib/gcc/arm-none-eabi/4.8.2/armv7-m/libgcc.a(_arm_muldivdf3.o)
 .debug_line    0x000000000000866f      0x103 /usr/lib/gcc/arm-none-eabi/4.8.2/armv7-m/libgcc.a(_arm_cmpdf2.o)
 .debug_line    0x0000000000008772       0x7d /usr/lib/gcc/arm-none-eabi/4.8.2/armv7-m/libgcc.a(_arm_fixdfsi.o)
 .debug_line    0x00000000000087ef       0x68 /usr/lib/gcc/arm-none-eabi/4.8.2/armv7-m/libgcc.a(_aeabi_uldivmod.o)
 .debug_line    0x0000000000008857       0x68 /usr/lib/gcc/arm-none-eabi/4.8.2/armv7-m/libgcc.a(bpabi.o)
 .debug_line    0x00000000000088bf       0x64 /usr/lib/gcc/arm-none-eabi/4.8.2/armv7-m/libgcc.a(_dvmd_tls.o)
 .debug_line    0x0000000000008923       0xdc /usr/lib/gcc/arm-none-eabi/4.8.2/armv7-m/libgcc.a(_divdi3.o)
 .debug_line    0x00000000000089ff       0xd8 /usr/lib/gcc/arm-none-eabi/4.8.2/armv7-m/libgcc.a(_udivdi3.o)

.debug_str      0x0000000000000000    0x48acb
 .debug_str     0x0000000000000000    0x3602c /tmp/cc8SCMZU.o
                                      0x361b1 (size before relaxing)
 .debug_str     0x000000000003602c     0x3b45 /tmp/ccf6aV3r.o
                                      0x39bae (size before relaxing)
 .debug_str     0x0000000000039b71     0x18a4 /tmp/ccXqE4VI.o
                                      0x3a7fd (size before relaxing)
 .debug_str     0x000000000003b415     0x195e /tmp/ccewRW4Z.o
                                      0x3a987 (size before relaxing)
 .debug_str     0x000000000003cd73      0x89d /tmp/cciNRtqh.o
                                      0x367c5 (size before relaxing)
 .debug_str     0x000000000003d610      0x686 /tmp/ccbHfsZy.o
                                      0x3662b (size before relaxing)
 .debug_str     0x000000000003dc96     0x283b /tmp/ccHG3MIQ.o
                                       0x4c14 (size before relaxing)
 .debug_str     0x00000000000404d1     0x1401 /tmp/cciA8gx8.o
                                       0x5509 (size before relaxing)
 .debug_str     0x00000000000418d2     0x160a /tmp/cclQzAuq.o
                                       0x6dd6 (size before relaxing)
 .debug_str     0x0000000000042edc     0x1aba /tmp/ccisHkFI.o
                                       0x827c (size before relaxing)
 .debug_str     0x0000000000044996      0x347 /tmp/ccKufXV0.o
                                       0x4559 (size before relaxing)
 .debug_str     0x0000000000044cdd       0xb2 /tmp/ccFDWphj.o
                                       0x57ef (size before relaxing)
 .debug_str     0x0000000000044d8f      0xcf8 /tmp/ccOeehRB.o
                                      0x39cc3 (size before relaxing)
 .debug_str     0x0000000000045a87      0x9b2 /tmp/ccVQAlBU.o
                                       0x58b0 (size before relaxing)
 .debug_str     0x0000000000046439       0x5c /tmp/cck4IXtd.o
                                      0x360cc (size before relaxing)
 .debug_str     0x0000000000046495      0xf00 /tmp/cci0TnCw.o
                                      0x3e8cc (size before relaxing)
 .debug_str     0x0000000000047395      0x117 /usr/lib/gcc/arm-none-eabi/4.8.2/../../../arm-none-eabi/lib/armv7-m/libg.a(lib_a-memset.o)
                                        0x1b0 (size before relaxing)
 .debug_str     0x00000000000474ac       0x91 /usr/lib/gcc/arm-none-eabi/4.8.2/../../../arm-none-eabi/lib/armv7-m/libg.a(lib_a-printf.o)
                                        0x596 (size before relaxing)
 .debug_str     0x000000000004753d       0x88 /usr/lib/gcc/arm-none-eabi/4.8.2/../../../arm-none-eabi/lib/armv7-m/libg.a(lib_a-puts.o)
                                        0x5bc (size before relaxing)
 .debug_str     0x00000000000475c5       0x85 /usr/lib/gcc/arm-none-eabi/4.8.2/../../../arm-none-eabi/lib/armv7-m/libg.a(lib_a-strlen.o)
                                        0x1a9 (size before relaxing)
 .debug_str     0x000000000004764a       0x59 /usr/lib/gcc/arm-none-eabi/4.8.2/../../../arm-none-eabi/lib/armv7-m/libg.a(lib_a-strncpy.o)
                                        0x1c6 (size before relaxing)
 .debug_str     0x00000000000476a3      0x348 /usr/lib/gcc/arm-none-eabi/4.8.2/../../../arm-none-eabi/lib/armv7-m/libg.a(lib_a-vfprintf.o)
                                        0x94f (size before relaxing)
 .debug_str     0x00000000000479eb       0x42 /usr/lib/gcc/arm-none-eabi/4.8.2/../../../arm-none-eabi/lib/armv7-m/libg.a(lib_a-wsetup.o)
                                        0x58c (size before relaxing)
 .debug_str     0x0000000000047a2d      0x19b /usr/lib/gcc/arm-none-eabi/4.8.2/../../../arm-none-eabi/lib/armv7-m/libg.a(lib_a-dtoa.o)
                                        0x6bf (size before relaxing)
 .debug_str     0x0000000000047bc8       0x5d /usr/lib/gcc/arm-none-eabi/4.8.2/../../../arm-none-eabi/lib/armv7-m/libg.a(lib_a-fflush.o)
                                        0x5cd (size before relaxing)
 .debug_str     0x0000000000047c25      0x10d /usr/lib/gcc/arm-none-eabi/4.8.2/../../../arm-none-eabi/lib/armv7-m/libg.a(lib_a-findfp.o)
                                        0x67a (size before relaxing)
 .debug_str     0x0000000000047d32      0x16c /usr/lib/gcc/arm-none-eabi/4.8.2/../../../arm-none-eabi/lib/armv7-m/libg.a(lib_a-freer.o)
                                        0x6c6 (size before relaxing)
 .debug_str     0x0000000000047e9e       0x5f /usr/lib/gcc/arm-none-eabi/4.8.2/../../../arm-none-eabi/lib/armv7-m/libg.a(lib_a-fvwrite.o)
                                        0x5ff (size before relaxing)
 .debug_str     0x0000000000047efd       0x3b /usr/lib/gcc/arm-none-eabi/4.8.2/../../../arm-none-eabi/lib/armv7-m/libg.a(lib_a-fwalk.o)
                                        0x572 (size before relaxing)
 .debug_str     0x0000000000047f38       0x82 /usr/lib/gcc/arm-none-eabi/4.8.2/../../../arm-none-eabi/lib/armv7-m/libg.a(lib_a-impure.o)
                                        0x56d (size before relaxing)
 .debug_str     0x0000000000047fba      0x15f /usr/lib/gcc/arm-none-eabi/4.8.2/../../../arm-none-eabi/lib/armv7-m/libg.a(lib_a-locale.o)
                                        0x7ca (size before relaxing)
 .debug_str     0x0000000000048119       0x4c /usr/lib/gcc/arm-none-eabi/4.8.2/../../../arm-none-eabi/lib/armv7-m/libg.a(lib_a-makebuf.o)
                                        0x66f (size before relaxing)
 .debug_str     0x0000000000048165       0xdf /usr/lib/gcc/arm-none-eabi/4.8.2/../../../arm-none-eabi/lib/armv7-m/libg.a(lib_a-mallocr.o)
                                        0x77c (size before relaxing)
 .debug_str     0x0000000000048244       0x49 /usr/lib/gcc/arm-none-eabi/4.8.2/../../../arm-none-eabi/lib/armv7-m/libg.a(lib_a-memchr-stub.o)
                                        0x1c8 (size before relaxing)
 .debug_str     0x000000000004828d       0x38 /usr/lib/gcc/arm-none-eabi/4.8.2/../../../arm-none-eabi/lib/armv7-m/libg.a(lib_a-memmove.o)
                                        0x1cf (size before relaxing)
 .debug_str     0x00000000000482c5       0x42 /usr/lib/gcc/arm-none-eabi/4.8.2/../../../arm-none-eabi/lib/armv7-m/libg.a(lib_a-mlock.o)
                                        0x576 (size before relaxing)
 .debug_str     0x0000000000048307       0x98 /usr/lib/gcc/arm-none-eabi/4.8.2/../../../arm-none-eabi/lib/armv7-m/libg.a(lib_a-mprec.o)
                                        0x679 (size before relaxing)
 .debug_str     0x000000000004839f       0x4e /usr/lib/gcc/arm-none-eabi/4.8.2/../../../arm-none-eabi/lib/armv7-m/libg.a(lib_a-reallocr.o)
                                        0x64e (size before relaxing)
 .debug_str     0x00000000000483ed       0x7e /usr/lib/gcc/arm-none-eabi/4.8.2/../../../arm-none-eabi/lib/armv7-m/libg.a(lib_a-s_fpclassify.o)
                                        0x1c6 (size before relaxing)
 .debug_str     0x000000000004846b       0x2c /usr/lib/gcc/arm-none-eabi/4.8.2/../../../arm-none-eabi/lib/armv7-m/libg.a(lib_a-sbrkr.o)
                                        0x564 (size before relaxing)
 .debug_str     0x0000000000048497       0x7c /usr/lib/gcc/arm-none-eabi/4.8.2/../../../arm-none-eabi/lib/armv7-m/libg.a(lib_a-stdio.o)
                                        0x5c8 (size before relaxing)
 .debug_str     0x0000000000048513       0x21 /usr/lib/gcc/arm-none-eabi/4.8.2/../../../arm-none-eabi/lib/armv7-m/libg.a(lib_a-vfiprintf.o)
                                        0x741 (size before relaxing)
 .debug_str     0x0000000000048534       0x2d /usr/lib/gcc/arm-none-eabi/4.8.2/../../../arm-none-eabi/lib/armv7-m/libg.a(lib_a-writer.o)
                                        0x561 (size before relaxing)
 .debug_str     0x0000000000048561        0xf /usr/lib/gcc/arm-none-eabi/4.8.2/../../../arm-none-eabi/lib/armv7-m/libg.a(lib_a-callocr.o)
                                        0x5a6 (size before relaxing)
 .debug_str     0x0000000000048570       0x2d /usr/lib/gcc/arm-none-eabi/4.8.2/../../../arm-none-eabi/lib/armv7-m/libg.a(lib_a-closer.o)
                                        0x551 (size before relaxing)
 .debug_str     0x000000000004859d       0x3e /usr/lib/gcc/arm-none-eabi/4.8.2/../../../arm-none-eabi/lib/armv7-m/libg.a(lib_a-fclose.o)
                                        0x5b9 (size before relaxing)
 .debug_str     0x00000000000485db       0x4b /usr/lib/gcc/arm-none-eabi/4.8.2/../../../arm-none-eabi/lib/armv7-m/libg.a(lib_a-fputwc.o)
                                        0x5cd (size before relaxing)
 .debug_str     0x0000000000048626       0x33 /usr/lib/gcc/arm-none-eabi/4.8.2/../../../arm-none-eabi/lib/armv7-m/libg.a(lib_a-fstatr.o)
                                        0x644 (size before relaxing)
 .debug_str     0x0000000000048659       0x2e /usr/lib/gcc/arm-none-eabi/4.8.2/../../../arm-none-eabi/lib/armv7-m/libg.a(lib_a-isattyr.o)
                                        0x55b (size before relaxing)
 .debug_str     0x0000000000048687       0x2d /usr/lib/gcc/arm-none-eabi/4.8.2/../../../arm-none-eabi/lib/armv7-m/libg.a(lib_a-lseekr.o)
                                        0x55f (size before relaxing)
 .debug_str     0x00000000000486b4       0x2c /usr/lib/gcc/arm-none-eabi/4.8.2/../../../arm-none-eabi/lib/armv7-m/libg.a(lib_a-readr.o)
                                        0x55f (size before relaxing)
 .debug_str     0x00000000000486e0       0x58 /usr/lib/gcc/arm-none-eabi/4.8.2/../../../arm-none-eabi/lib/armv7-m/libg.a(lib_a-reent.o)
                                        0x58c (size before relaxing)
 .debug_str     0x0000000000048738       0x33 /usr/lib/gcc/arm-none-eabi/4.8.2/../../../arm-none-eabi/lib/armv7-m/libg.a(lib_a-wbuf.o)
                                        0x591 (size before relaxing)
 .debug_str     0x000000000004876b       0x47 /usr/lib/gcc/arm-none-eabi/4.8.2/../../../arm-none-eabi/lib/armv7-m/libg.a(lib_a-wcrtomb.o)
                                        0x5a4 (size before relaxing)
 .debug_str     0x00000000000487b2       0x50 /usr/lib/gcc/arm-none-eabi/4.8.2/../../../arm-none-eabi/lib/armv7-m/libg.a(lib_a-wctomb_r.o)
                                        0x5ad (size before relaxing)
 .debug_str     0x0000000000048802      0x16f /usr/lib/gcc/arm-none-eabi/4.8.2/armv7-m/libgcc.a(bpabi.o)
                                        0x19e (size before relaxing)
 .debug_str     0x0000000000048971      0x15a /usr/lib/gcc/arm-none-eabi/4.8.2/armv7-m/libgcc.a(_divdi3.o)
                                        0x24c (size before relaxing)
 .debug_str     0x0000000000000000      0x24d /usr/lib/gcc/arm-none-eabi/4.8.2/armv7-m/libgcc.a(_udivdi3.o)

.comment        0x0000000000000000       0x1f
 .comment       0x0000000000000000       0x1f /tmp/cc8SCMZU.o
                                         0x20 (size before relaxing)
 .comment       0x0000000000000000       0x20 /tmp/ccf6aV3r.o
 .comment       0x0000000000000000       0x20 /tmp/ccXqE4VI.o
 .comment       0x0000000000000000       0x20 /tmp/ccewRW4Z.o
 .comment       0x0000000000000000       0x20 /tmp/cciNRtqh.o
 .comment       0x0000000000000000       0x20 /tmp/ccbHfsZy.o
 .comment       0x0000000000000000       0x20 /tmp/ccHG3MIQ.o
 .comment       0x0000000000000000       0x20 /tmp/cciA8gx8.o
 .comment       0x0000000000000000       0x20 /tmp/cclQzAuq.o
 .comment       0x0000000000000000       0x20 /tmp/ccisHkFI.o
 .comment       0x0000000000000000       0x20 /tmp/ccKufXV0.o
 .comment       0x0000000000000000       0x20 /tmp/ccFDWphj.o
 .comment       0x0000000000000000       0x20 /tmp/ccOeehRB.o
 .comment       0x0000000000000000       0x20 /tmp/ccVQAlBU.o
 .comment       0x0000000000000000       0x20 /tmp/cck4IXtd.o
 .comment       0x0000000000000000       0x20 /tmp/cci0TnCw.o
 .comment       0x0000000000000000       0x20 /usr/lib/gcc/arm-none-eabi/4.8.2/../../../arm-none-eabi/lib/armv7-m/libg.a(lib_a-memset.o)
 .comment       0x0000000000000000       0x20 /usr/lib/gcc/arm-none-eabi/4.8.2/../../../arm-none-eabi/lib/armv7-m/libg.a(lib_a-printf.o)
 .comment       0x0000000000000000       0x20 /usr/lib/gcc/arm-none-eabi/4.8.2/../../../arm-none-eabi/lib/armv7-m/libg.a(lib_a-puts.o)
 .comment       0x0000000000000000       0x20 /usr/lib/gcc/arm-none-eabi/4.8.2/../../../arm-none-eabi/lib/armv7-m/libg.a(lib_a-strlen.o)
 .comment       0x0000000000000000       0x20 /usr/lib/gcc/arm-none-eabi/4.8.2/../../../arm-none-eabi/lib/armv7-m/libg.a(lib_a-strncpy.o)
 .comment       0x0000000000000000       0x20 /usr/lib/gcc/arm-none-eabi/4.8.2/../../../arm-none-eabi/lib/armv7-m/libg.a(lib_a-vfprintf.o)
 .comment       0x0000000000000000       0x20 /usr/lib/gcc/arm-none-eabi/4.8.2/../../../arm-none-eabi/lib/armv7-m/libg.a(lib_a-wsetup.o)
 .comment       0x0000000000000000       0x20 /usr/lib/gcc/arm-none-eabi/4.8.2/../../../arm-none-eabi/lib/armv7-m/libg.a(lib_a-dtoa.o)
 .comment       0x0000000000000000       0x20 /usr/lib/gcc/arm-none-eabi/4.8.2/../../../arm-none-eabi/lib/armv7-m/libg.a(lib_a-fflush.o)
 .comment       0x0000000000000000       0x20 /usr/lib/gcc/arm-none-eabi/4.8.2/../../../arm-none-eabi/lib/armv7-m/libg.a(lib_a-findfp.o)
 .comment       0x0000000000000000       0x20 /usr/lib/gcc/arm-none-eabi/4.8.2/../../../arm-none-eabi/lib/armv7-m/libg.a(lib_a-freer.o)
 .comment       0x0000000000000000       0x20 /usr/lib/gcc/arm-none-eabi/4.8.2/../../../arm-none-eabi/lib/armv7-m/libg.a(lib_a-fvwrite.o)
 .comment       0x0000000000000000       0x20 /usr/lib/gcc/arm-none-eabi/4.8.2/../../../arm-none-eabi/lib/armv7-m/libg.a(lib_a-fwalk.o)
 .comment       0x0000000000000000       0x20 /usr/lib/gcc/arm-none-eabi/4.8.2/../../../arm-none-eabi/lib/armv7-m/libg.a(lib_a-impure.o)
 .comment       0x0000000000000000       0x20 /usr/lib/gcc/arm-none-eabi/4.8.2/../../../arm-none-eabi/lib/armv7-m/libg.a(lib_a-locale.o)
 .comment       0x0000000000000000       0x20 /usr/lib/gcc/arm-none-eabi/4.8.2/../../../arm-none-eabi/lib/armv7-m/libg.a(lib_a-makebuf.o)
 .comment       0x0000000000000000       0x20 /usr/lib/gcc/arm-none-eabi/4.8.2/../../../arm-none-eabi/lib/armv7-m/libg.a(lib_a-mallocr.o)
 .comment       0x0000000000000000       0x20 /usr/lib/gcc/arm-none-eabi/4.8.2/../../../arm-none-eabi/lib/armv7-m/libg.a(lib_a-memchr-stub.o)
 .comment       0x0000000000000000       0x20 /usr/lib/gcc/arm-none-eabi/4.8.2/../../../arm-none-eabi/lib/armv7-m/libg.a(lib_a-memmove.o)
 .comment       0x0000000000000000       0x20 /usr/lib/gcc/arm-none-eabi/4.8.2/../../../arm-none-eabi/lib/armv7-m/libg.a(lib_a-mlock.o)
 .comment       0x0000000000000000       0x20 /usr/lib/gcc/arm-none-eabi/4.8.2/../../../arm-none-eabi/lib/armv7-m/libg.a(lib_a-mprec.o)
 .comment       0x0000000000000000       0x20 /usr/lib/gcc/arm-none-eabi/4.8.2/../../../arm-none-eabi/lib/armv7-m/libg.a(lib_a-reallocr.o)
 .comment       0x0000000000000000       0x20 /usr/lib/gcc/arm-none-eabi/4.8.2/../../../arm-none-eabi/lib/armv7-m/libg.a(lib_a-s_fpclassify.o)
 .comment       0x0000000000000000       0x20 /usr/lib/gcc/arm-none-eabi/4.8.2/../../../arm-none-eabi/lib/armv7-m/libg.a(lib_a-sbrkr.o)
 .comment       0x0000000000000000       0x20 /usr/lib/gcc/arm-none-eabi/4.8.2/../../../arm-none-eabi/lib/armv7-m/libg.a(lib_a-stdio.o)
 .comment       0x0000000000000000       0x20 /usr/lib/gcc/arm-none-eabi/4.8.2/../../../arm-none-eabi/lib/armv7-m/libg.a(lib_a-vfiprintf.o)
 .comment       0x0000000000000000       0x20 /usr/lib/gcc/arm-none-eabi/4.8.2/../../../arm-none-eabi/lib/armv7-m/libg.a(lib_a-writer.o)
 .comment       0x0000000000000000       0x20 /usr/lib/gcc/arm-none-eabi/4.8.2/../../../arm-none-eabi/lib/armv7-m/libg.a(lib_a-callocr.o)
 .comment       0x0000000000000000       0x20 /usr/lib/gcc/arm-none-eabi/4.8.2/../../../arm-none-eabi/lib/armv7-m/libg.a(lib_a-closer.o)
 .comment       0x0000000000000000       0x20 /usr/lib/gcc/arm-none-eabi/4.8.2/../../../arm-none-eabi/lib/armv7-m/libg.a(lib_a-fclose.o)
 .comment       0x0000000000000000       0x20 /usr/lib/gcc/arm-none-eabi/4.8.2/../../../arm-none-eabi/lib/armv7-m/libg.a(lib_a-fputwc.o)
 .comment       0x0000000000000000       0x20 /usr/lib/gcc/arm-none-eabi/4.8.2/../../../arm-none-eabi/lib/armv7-m/libg.a(lib_a-fstatr.o)
 .comment       0x0000000000000000       0x20 /usr/lib/gcc/arm-none-eabi/4.8.2/../../../arm-none-eabi/lib/armv7-m/libg.a(lib_a-isattyr.o)
 .comment       0x0000000000000000       0x20 /usr/lib/gcc/arm-none-eabi/4.8.2/../../../arm-none-eabi/lib/armv7-m/libg.a(lib_a-lseekr.o)
 .comment       0x0000000000000000       0x20 /usr/lib/gcc/arm-none-eabi/4.8.2/../../../arm-none-eabi/lib/armv7-m/libg.a(lib_a-readr.o)
 .comment       0x0000000000000000       0x20 /usr/lib/gcc/arm-none-eabi/4.8.2/../../../arm-none-eabi/lib/armv7-m/libg.a(lib_a-reent.o)
 .comment       0x0000000000000000       0x20 /usr/lib/gcc/arm-none-eabi/4.8.2/../../../arm-none-eabi/lib/armv7-m/libg.a(lib_a-wbuf.o)
 .comment       0x0000000000000000       0x20 /usr/lib/gcc/arm-none-eabi/4.8.2/../../../arm-none-eabi/lib/armv7-m/libg.a(lib_a-wcrtomb.o)
 .comment       0x0000000000000000       0x20 /usr/lib/gcc/arm-none-eabi/4.8.2/../../../arm-none-eabi/lib/armv7-m/libg.a(lib_a-wctomb_r.o)
 .comment       0x0000000000000000       0x20 /usr/lib/gcc/arm-none-eabi/4.8.2/armv7-m/libgcc.a(bpabi.o)
 .comment       0x0000000000000000       0x20 /usr/lib/gcc/arm-none-eabi/4.8.2/armv7-m/libgcc.a(_divdi3.o)
 .comment       0x0000000000000000       0x20 /usr/lib/gcc/arm-none-eabi/4.8.2/armv7-m/libgcc.a(_udivdi3.o)

.ARM.attributes
                0x0000000000000000       0x31
 .ARM.attributes
                0x0000000000000000       0x33 /tmp/cc8SCMZU.o
 .ARM.attributes
                0x0000000000000033       0x21 /tmp/ccmq0gqb.o
 .ARM.attributes
                0x0000000000000054       0x33 /tmp/ccf6aV3r.o
 .ARM.attributes
                0x0000000000000087       0x33 /tmp/ccXqE4VI.o
 .ARM.attributes
                0x00000000000000ba       0x33 /tmp/ccewRW4Z.o
 .ARM.attributes
                0x00000000000000ed       0x33 /tmp/cciNRtqh.o
 .ARM.attributes
                0x0000000000000120       0x33 /tmp/ccbHfsZy.o
 .ARM.attributes
                0x0000000000000153       0x33 /tmp/ccHG3MIQ.o
 .ARM.attributes
                0x0000000000000186       0x33 /tmp/cciA8gx8.o
 .ARM.attributes
                0x00000000000001b9       0x33 /tmp/cclQzAuq.o
 .ARM.attributes
                0x00000000000001ec       0x33 /tmp/ccisHkFI.o
 .ARM.attributes
                0x000000000000021f       0x33 /tmp/ccKufXV0.o
 .ARM.attributes
                0x0000000000000252       0x33 /tmp/ccFDWphj.o
 .ARM.attributes
                0x0000000000000285       0x33 /tmp/ccOeehRB.o
 .ARM.attributes
                0x00000000000002b8       0x33 /tmp/ccVQAlBU.o
 .ARM.attributes
                0x00000000000002eb       0x33 /tmp/cck4IXtd.o
 .ARM.attributes
                0x000000000000031e       0x33 /tmp/cci0TnCw.o
 .ARM.attributes
                0x0000000000000351       0x1b /usr/lib/gcc/arm-none-eabi/4.8.2/../../../arm-none-eabi/lib/armv7-m/libg.a(lib_a-memcpy.o)
 .ARM.attributes
                0x000000000000036c       0x2d /usr/lib/gcc/arm-none-eabi/4.8.2/../../../arm-none-eabi/lib/armv7-m/libg.a(lib_a-memset.o)
 .ARM.attributes
                0x0000000000000399       0x2d /usr/lib/gcc/arm-none-eabi/4.8.2/../../../arm-none-eabi/lib/armv7-m/libg.a(lib_a-printf.o)
 .ARM.attributes
                0x00000000000003c6       0x2d /usr/lib/gcc/arm-none-eabi/4.8.2/../../../arm-none-eabi/lib/armv7-m/libg.a(lib_a-puts.o)
 .ARM.attributes
                0x00000000000003f3       0x2d /usr/lib/gcc/arm-none-eabi/4.8.2/../../../arm-none-eabi/lib/armv7-m/libg.a(lib_a-strlen.o)
 .ARM.attributes
                0x0000000000000420       0x2d /usr/lib/gcc/arm-none-eabi/4.8.2/../../../arm-none-eabi/lib/armv7-m/libg.a(lib_a-strncpy.o)
 .ARM.attributes
                0x000000000000044d       0x2d /usr/lib/gcc/arm-none-eabi/4.8.2/../../../arm-none-eabi/lib/armv7-m/libg.a(lib_a-vfprintf.o)
 .ARM.attributes
                0x000000000000047a       0x2d /usr/lib/gcc/arm-none-eabi/4.8.2/../../../arm-none-eabi/lib/armv7-m/libg.a(lib_a-wsetup.o)
 .ARM.attributes
                0x00000000000004a7       0x2d /usr/lib/gcc/arm-none-eabi/4.8.2/../../../arm-none-eabi/lib/armv7-m/libg.a(lib_a-dtoa.o)
 .ARM.attributes
                0x00000000000004d4       0x2d /usr/lib/gcc/arm-none-eabi/4.8.2/../../../arm-none-eabi/lib/armv7-m/libg.a(lib_a-fflush.o)
 .ARM.attributes
                0x0000000000000501       0x2d /usr/lib/gcc/arm-none-eabi/4.8.2/../../../arm-none-eabi/lib/armv7-m/libg.a(lib_a-findfp.o)
 .ARM.attributes
                0x000000000000052e       0x2d /usr/lib/gcc/arm-none-eabi/4.8.2/../../../arm-none-eabi/lib/armv7-m/libg.a(lib_a-freer.o)
 .ARM.attributes
                0x000000000000055b       0x2d /usr/lib/gcc/arm-none-eabi/4.8.2/../../../arm-none-eabi/lib/armv7-m/libg.a(lib_a-fvwrite.o)
 .ARM.attributes
                0x0000000000000588       0x2d /usr/lib/gcc/arm-none-eabi/4.8.2/../../../arm-none-eabi/lib/armv7-m/libg.a(lib_a-fwalk.o)
 .ARM.attributes
                0x00000000000005b5       0x2d /usr/lib/gcc/arm-none-eabi/4.8.2/../../../arm-none-eabi/lib/armv7-m/libg.a(lib_a-impure.o)
 .ARM.attributes
                0x00000000000005e2       0x2d /usr/lib/gcc/arm-none-eabi/4.8.2/../../../arm-none-eabi/lib/armv7-m/libg.a(lib_a-locale.o)
 .ARM.attributes
                0x000000000000060f       0x2d /usr/lib/gcc/arm-none-eabi/4.8.2/../../../arm-none-eabi/lib/armv7-m/libg.a(lib_a-makebuf.o)
 .ARM.attributes
                0x000000000000063c       0x2d /usr/lib/gcc/arm-none-eabi/4.8.2/../../../arm-none-eabi/lib/armv7-m/libg.a(lib_a-mallocr.o)
 .ARM.attributes
                0x0000000000000669       0x2d /usr/lib/gcc/arm-none-eabi/4.8.2/../../../arm-none-eabi/lib/armv7-m/libg.a(lib_a-memchr-stub.o)
 .ARM.attributes
                0x0000000000000696       0x2d /usr/lib/gcc/arm-none-eabi/4.8.2/../../../arm-none-eabi/lib/armv7-m/libg.a(lib_a-memmove.o)
 .ARM.attributes
                0x00000000000006c3       0x2d /usr/lib/gcc/arm-none-eabi/4.8.2/../../../arm-none-eabi/lib/armv7-m/libg.a(lib_a-mlock.o)
 .ARM.attributes
                0x00000000000006f0       0x2d /usr/lib/gcc/arm-none-eabi/4.8.2/../../../arm-none-eabi/lib/armv7-m/libg.a(lib_a-mprec.o)
 .ARM.attributes
                0x000000000000071d       0x2d /usr/lib/gcc/arm-none-eabi/4.8.2/../../../arm-none-eabi/lib/armv7-m/libg.a(lib_a-reallocr.o)
 .ARM.attributes
                0x000000000000074a       0x2d /usr/lib/gcc/arm-none-eabi/4.8.2/../../../arm-none-eabi/lib/armv7-m/libg.a(lib_a-s_fpclassify.o)
 .ARM.attributes
                0x0000000000000777       0x2d /usr/lib/gcc/arm-none-eabi/4.8.2/../../../arm-none-eabi/lib/armv7-m/libg.a(lib_a-sbrkr.o)
 .ARM.attributes
                0x00000000000007a4       0x2d /usr/lib/gcc/arm-none-eabi/4.8.2/../../../arm-none-eabi/lib/armv7-m/libg.a(lib_a-stdio.o)
 .ARM.attributes
                0x00000000000007d1       0x1b /usr/lib/gcc/arm-none-eabi/4.8.2/../../../arm-none-eabi/lib/armv7-m/libg.a(lib_a-strcmp.o)
 .ARM.attributes
                0x00000000000007ec       0x2d /usr/lib/gcc/arm-none-eabi/4.8.2/../../../arm-none-eabi/lib/armv7-m/libg.a(lib_a-vfiprintf.o)
 .ARM.attributes
                0x0000000000000819       0x2d /usr/lib/gcc/arm-none-eabi/4.8.2/../../../arm-none-eabi/lib/armv7-m/libg.a(lib_a-writer.o)
 .ARM.attributes
                0x0000000000000846       0x2d /usr/lib/gcc/arm-none-eabi/4.8.2/../../../arm-none-eabi/lib/armv7-m/libg.a(lib_a-callocr.o)
 .ARM.attributes
                0x0000000000000873       0x2d /usr/lib/gcc/arm-none-eabi/4.8.2/../../../arm-none-eabi/lib/armv7-m/libg.a(lib_a-closer.o)
 .ARM.attributes
                0x00000000000008a0       0x2d /usr/lib/gcc/arm-none-eabi/4.8.2/../../../arm-none-eabi/lib/armv7-m/libg.a(lib_a-fclose.o)
 .ARM.attributes
                0x00000000000008cd       0x2d /usr/lib/gcc/arm-none-eabi/4.8.2/../../../arm-none-eabi/lib/armv7-m/libg.a(lib_a-fputwc.o)
 .ARM.attributes
                0x00000000000008fa       0x2d /usr/lib/gcc/arm-none-eabi/4.8.2/../../../arm-none-eabi/lib/armv7-m/libg.a(lib_a-fstatr.o)
 .ARM.attributes
                0x0000000000000927       0x2d /usr/lib/gcc/arm-none-eabi/4.8.2/../../../arm-none-eabi/lib/armv7-m/libg.a(lib_a-isattyr.o)
 .ARM.attributes
                0x0000000000000954       0x2d /usr/lib/gcc/arm-none-eabi/4.8.2/../../../arm-none-eabi/lib/armv7-m/libg.a(lib_a-lseekr.o)
 .ARM.attributes
                0x0000000000000981       0x2d /usr/lib/gcc/arm-none-eabi/4.8.2/../../../arm-none-eabi/lib/armv7-m/libg.a(lib_a-readr.o)
 .ARM.attributes
                0x00000000000009ae       0x2d /usr/lib/gcc/arm-none-eabi/4.8.2/../../../arm-none-eabi/lib/armv7-m/libg.a(lib_a-reent.o)
 .ARM.attributes
                0x00000000000009db       0x2d /usr/lib/gcc/arm-none-eabi/4.8.2/../../../arm-none-eabi/lib/armv7-m/libg.a(lib_a-wbuf.o)
 .ARM.attributes
                0x0000000000000a08       0x2d /usr/lib/gcc/arm-none-eabi/4.8.2/../../../arm-none-eabi/lib/armv7-m/libg.a(lib_a-wcrtomb.o)
 .ARM.attributes
                0x0000000000000a35       0x2d /usr/lib/gcc/arm-none-eabi/4.8.2/../../../arm-none-eabi/lib/armv7-m/libg.a(lib_a-wctomb_r.o)
 .ARM.attributes
                0x0000000000000a62       0x1d /usr/lib/gcc/arm-none-eabi/4.8.2/armv7-m/libgcc.a(_arm_addsubdf3.o)
 .ARM.attributes
                0x0000000000000a7f       0x1d /usr/lib/gcc/arm-none-eabi/4.8.2/armv7-m/libgcc.a(_arm_muldivdf3.o)
 .ARM.attributes
                0x0000000000000a9c       0x1d /usr/lib/gcc/arm-none-eabi/4.8.2/armv7-m/libgcc.a(_arm_cmpdf2.o)
 .ARM.attributes
                0x0000000000000ab9       0x1d /usr/lib/gcc/arm-none-eabi/4.8.2/armv7-m/libgcc.a(_arm_fixdfsi.o)
 .ARM.attributes
                0x0000000000000ad6       0x1d /usr/lib/gcc/arm-none-eabi/4.8.2/armv7-m/libgcc.a(_aeabi_uldivmod.o)
 .ARM.attributes
                0x0000000000000af3       0x2d /usr/lib/gcc/arm-none-eabi/4.8.2/armv7-m/libgcc.a(bpabi.o)
 .ARM.attributes
                0x0000000000000b20       0x1d /usr/lib/gcc/arm-none-eabi/4.8.2/armv7-m/libgcc.a(_dvmd_tls.o)
 .ARM.attributes
                0x0000000000000b3d       0x2d /usr/lib/gcc/arm-none-eabi/4.8.2/armv7-m/libgcc.a(_divdi3.o)
 .ARM.attributes
                0x0000000000000b6a       0x2d /usr/lib/gcc/arm-none-eabi/4.8.2/armv7-m/libgcc.a(_udivdi3.o)

.debug_frame    0x0000000000000000     0x2768
 .debug_frame   0x0000000000000000       0x64 /tmp/cc8SCMZU.o
 .debug_frame   0x0000000000000064      0x4f4 /tmp/ccf6aV3r.o
 .debug_frame   0x0000000000000558      0x19c /tmp/ccXqE4VI.o
 .debug_frame   0x00000000000006f4      0x344 /tmp/ccewRW4Z.o
 .debug_frame   0x0000000000000a38       0xec /tmp/cciNRtqh.o
 .debug_frame   0x0000000000000b24       0x9c /tmp/ccbHfsZy.o
 .debug_frame   0x0000000000000bc0       0xf0 /tmp/ccHG3MIQ.o
 .debug_frame   0x0000000000000cb0       0x9c /tmp/cciA8gx8.o
 .debug_frame   0x0000000000000d4c      0x244 /tmp/cclQzAuq.o
 .debug_frame   0x0000000000000f90      0x424 /tmp/ccisHkFI.o
 .debug_frame   0x00000000000013b4      0x110 /tmp/ccKufXV0.o
 .debug_frame   0x00000000000014c4       0x7c /tmp/ccFDWphj.o
 .debug_frame   0x0000000000001540      0x1fc /tmp/ccOeehRB.o
 .debug_frame   0x000000000000173c      0x160 /tmp/ccVQAlBU.o
 .debug_frame   0x000000000000189c       0x48 /tmp/cck4IXtd.o
 .debug_frame   0x00000000000018e4      0x110 /tmp/cci0TnCw.o
 .debug_frame   0x00000000000019f4       0x2c /usr/lib/gcc/arm-none-eabi/4.8.2/../../../arm-none-eabi/lib/armv7-m/libg.a(lib_a-memset.o)
 .debug_frame   0x0000000000001a20       0x5c /usr/lib/gcc/arm-none-eabi/4.8.2/../../../arm-none-eabi/lib/armv7-m/libg.a(lib_a-printf.o)
 .debug_frame   0x0000000000001a7c       0x40 /usr/lib/gcc/arm-none-eabi/4.8.2/../../../arm-none-eabi/lib/armv7-m/libg.a(lib_a-puts.o)
 .debug_frame   0x0000000000001abc       0x20 /usr/lib/gcc/arm-none-eabi/4.8.2/../../../arm-none-eabi/lib/armv7-m/libg.a(lib_a-strlen.o)
 .debug_frame   0x0000000000001adc       0x2c /usr/lib/gcc/arm-none-eabi/4.8.2/../../../arm-none-eabi/lib/armv7-m/libg.a(lib_a-strncpy.o)
 .debug_frame   0x0000000000001b08       0x7c /usr/lib/gcc/arm-none-eabi/4.8.2/../../../arm-none-eabi/lib/armv7-m/libg.a(lib_a-vfprintf.o)
 .debug_frame   0x0000000000001b84       0x2c /usr/lib/gcc/arm-none-eabi/4.8.2/../../../arm-none-eabi/lib/armv7-m/libg.a(lib_a-wsetup.o)
 .debug_frame   0x0000000000001bb0       0x64 /usr/lib/gcc/arm-none-eabi/4.8.2/../../../arm-none-eabi/lib/armv7-m/libg.a(lib_a-dtoa.o)
 .debug_frame   0x0000000000001c14       0x5c /usr/lib/gcc/arm-none-eabi/4.8.2/../../../arm-none-eabi/lib/armv7-m/libg.a(lib_a-fflush.o)
 .debug_frame   0x0000000000001c70      0x110 /usr/lib/gcc/arm-none-eabi/4.8.2/../../../arm-none-eabi/lib/armv7-m/libg.a(lib_a-findfp.o)
 .debug_frame   0x0000000000001d80       0x54 /usr/lib/gcc/arm-none-eabi/4.8.2/../../../arm-none-eabi/lib/armv7-m/libg.a(lib_a-freer.o)
 .debug_frame   0x0000000000001dd4       0x38 /usr/lib/gcc/arm-none-eabi/4.8.2/../../../arm-none-eabi/lib/armv7-m/libg.a(lib_a-fvwrite.o)
 .debug_frame   0x0000000000001e0c       0x54 /usr/lib/gcc/arm-none-eabi/4.8.2/../../../arm-none-eabi/lib/armv7-m/libg.a(lib_a-fwalk.o)
 .debug_frame   0x0000000000001e60       0x98 /usr/lib/gcc/arm-none-eabi/4.8.2/../../../arm-none-eabi/lib/armv7-m/libg.a(lib_a-locale.o)
 .debug_frame   0x0000000000001ef8       0x30 /usr/lib/gcc/arm-none-eabi/4.8.2/../../../arm-none-eabi/lib/armv7-m/libg.a(lib_a-makebuf.o)
 .debug_frame   0x0000000000001f28       0x38 /usr/lib/gcc/arm-none-eabi/4.8.2/../../../arm-none-eabi/lib/armv7-m/libg.a(lib_a-mallocr.o)
 .debug_frame   0x0000000000001f60       0x2c /usr/lib/gcc/arm-none-eabi/4.8.2/../../../arm-none-eabi/lib/armv7-m/libg.a(lib_a-memchr-stub.o)
 .debug_frame   0x0000000000001f8c       0x2c /usr/lib/gcc/arm-none-eabi/4.8.2/../../../arm-none-eabi/lib/armv7-m/libg.a(lib_a-memmove.o)
 .debug_frame   0x0000000000001fb8       0x30 /usr/lib/gcc/arm-none-eabi/4.8.2/../../../arm-none-eabi/lib/armv7-m/libg.a(lib_a-mlock.o)
 .debug_frame   0x0000000000001fe8      0x228 /usr/lib/gcc/arm-none-eabi/4.8.2/../../../arm-none-eabi/lib/armv7-m/libg.a(lib_a-mprec.o)
 .debug_frame   0x0000000000002210       0x38 /usr/lib/gcc/arm-none-eabi/4.8.2/../../../arm-none-eabi/lib/armv7-m/libg.a(lib_a-reallocr.o)
 .debug_frame   0x0000000000002248       0x20 /usr/lib/gcc/arm-none-eabi/4.8.2/../../../arm-none-eabi/lib/armv7-m/libg.a(lib_a-s_fpclassify.o)
 .debug_frame   0x0000000000002268       0x2c /usr/lib/gcc/arm-none-eabi/4.8.2/../../../arm-none-eabi/lib/armv7-m/libg.a(lib_a-sbrkr.o)
 .debug_frame   0x0000000000002294       0x80 /usr/lib/gcc/arm-none-eabi/4.8.2/../../../arm-none-eabi/lib/armv7-m/libg.a(lib_a-stdio.o)
 .debug_frame   0x0000000000002314       0xb8 /usr/lib/gcc/arm-none-eabi/4.8.2/../../../arm-none-eabi/lib/armv7-m/libg.a(lib_a-vfiprintf.o)
 .debug_frame   0x00000000000023cc       0x2c /usr/lib/gcc/arm-none-eabi/4.8.2/../../../arm-none-eabi/lib/armv7-m/libg.a(lib_a-writer.o)
 .debug_frame   0x00000000000023f8       0x28 /usr/lib/gcc/arm-none-eabi/4.8.2/../../../arm-none-eabi/lib/armv7-m/libg.a(lib_a-callocr.o)
 .debug_frame   0x0000000000002420       0x2c /usr/lib/gcc/arm-none-eabi/4.8.2/../../../arm-none-eabi/lib/armv7-m/libg.a(lib_a-closer.o)
 .debug_frame   0x000000000000244c       0x3c /usr/lib/gcc/arm-none-eabi/4.8.2/../../../arm-none-eabi/lib/armv7-m/libg.a(lib_a-fclose.o)
 .debug_frame   0x0000000000002488       0x50 /usr/lib/gcc/arm-none-eabi/4.8.2/../../../arm-none-eabi/lib/armv7-m/libg.a(lib_a-fputwc.o)
 .debug_frame   0x00000000000024d8       0x2c /usr/lib/gcc/arm-none-eabi/4.8.2/../../../arm-none-eabi/lib/armv7-m/libg.a(lib_a-fstatr.o)
 .debug_frame   0x0000000000002504       0x2c /usr/lib/gcc/arm-none-eabi/4.8.2/../../../arm-none-eabi/lib/armv7-m/libg.a(lib_a-isattyr.o)
 .debug_frame   0x0000000000002530       0x2c /usr/lib/gcc/arm-none-eabi/4.8.2/../../../arm-none-eabi/lib/armv7-m/libg.a(lib_a-lseekr.o)
 .debug_frame   0x000000000000255c       0x2c /usr/lib/gcc/arm-none-eabi/4.8.2/../../../arm-none-eabi/lib/armv7-m/libg.a(lib_a-readr.o)
 .debug_frame   0x0000000000002588       0x48 /usr/lib/gcc/arm-none-eabi/4.8.2/../../../arm-none-eabi/lib/armv7-m/libg.a(lib_a-reent.o)
 .debug_frame   0x00000000000025d0       0x40 /usr/lib/gcc/arm-none-eabi/4.8.2/../../../arm-none-eabi/lib/armv7-m/libg.a(lib_a-wbuf.o)
 .debug_frame   0x0000000000002610       0x58 /usr/lib/gcc/arm-none-eabi/4.8.2/../../../arm-none-eabi/lib/armv7-m/libg.a(lib_a-wcrtomb.o)
 .debug_frame   0x0000000000002668       0x44 /usr/lib/gcc/arm-none-eabi/4.8.2/../../../arm-none-eabi/lib/armv7-m/libg.a(lib_a-wctomb_r.o)
 .debug_frame   0x00000000000026ac       0x58 /usr/lib/gcc/arm-none-eabi/4.8.2/armv7-m/libgcc.a(bpabi.o)
 .debug_frame   0x0000000000002704       0x34 /usr/lib/gcc/arm-none-eabi/4.8.2/armv7-m/libgcc.a(_divdi3.o)
 .debug_frame   0x0000000000002738       0x30 /usr/lib/gcc/arm-none-eabi/4.8.2/armv7-m/libgcc.a(_udivdi3.o)

.debug_ranges   0x0000000000000000      0xc08
 .debug_ranges  0x0000000000000000       0x20 /tmp/ccmq0gqb.o
 .debug_ranges  0x0000000000000020       0x10 /usr/lib/gcc/arm-none-eabi/4.8.2/../../../arm-none-eabi/lib/armv7-m/libg.a(lib_a-memset.o)
 .debug_ranges  0x0000000000000030       0x18 /usr/lib/gcc/arm-none-eabi/4.8.2/../../../arm-none-eabi/lib/armv7-m/libg.a(lib_a-printf.o)
 .debug_ranges  0x0000000000000048       0x18 /usr/lib/gcc/arm-none-eabi/4.8.2/../../../arm-none-eabi/lib/armv7-m/libg.a(lib_a-puts.o)
 .debug_ranges  0x0000000000000060       0x10 /usr/lib/gcc/arm-none-eabi/4.8.2/../../../arm-none-eabi/lib/armv7-m/libg.a(lib_a-strlen.o)
 .debug_ranges  0x0000000000000070       0x10 /usr/lib/gcc/arm-none-eabi/4.8.2/../../../arm-none-eabi/lib/armv7-m/libg.a(lib_a-strncpy.o)
 .debug_ranges  0x0000000000000080      0x178 /usr/lib/gcc/arm-none-eabi/4.8.2/../../../arm-none-eabi/lib/armv7-m/libg.a(lib_a-vfprintf.o)
 .debug_ranges  0x00000000000001f8       0x30 /usr/lib/gcc/arm-none-eabi/4.8.2/../../../arm-none-eabi/lib/armv7-m/libg.a(lib_a-wsetup.o)
 .debug_ranges  0x0000000000000228       0x18 /usr/lib/gcc/arm-none-eabi/4.8.2/../../../arm-none-eabi/lib/armv7-m/libg.a(lib_a-dtoa.o)
 .debug_ranges  0x0000000000000240       0x58 /usr/lib/gcc/arm-none-eabi/4.8.2/../../../arm-none-eabi/lib/armv7-m/libg.a(lib_a-fflush.o)
 .debug_ranges  0x0000000000000298       0xe8 /usr/lib/gcc/arm-none-eabi/4.8.2/../../../arm-none-eabi/lib/armv7-m/libg.a(lib_a-findfp.o)
 .debug_ranges  0x0000000000000380       0x18 /usr/lib/gcc/arm-none-eabi/4.8.2/../../../arm-none-eabi/lib/armv7-m/libg.a(lib_a-freer.o)
 .debug_ranges  0x0000000000000398       0x30 /usr/lib/gcc/arm-none-eabi/4.8.2/../../../arm-none-eabi/lib/armv7-m/libg.a(lib_a-fvwrite.o)
 .debug_ranges  0x00000000000003c8       0x18 /usr/lib/gcc/arm-none-eabi/4.8.2/../../../arm-none-eabi/lib/armv7-m/libg.a(lib_a-fwalk.o)
 .debug_ranges  0x00000000000003e0       0x48 /usr/lib/gcc/arm-none-eabi/4.8.2/../../../arm-none-eabi/lib/armv7-m/libg.a(lib_a-locale.o)
 .debug_ranges  0x0000000000000428       0x10 /usr/lib/gcc/arm-none-eabi/4.8.2/../../../arm-none-eabi/lib/armv7-m/libg.a(lib_a-makebuf.o)
 .debug_ranges  0x0000000000000438       0x38 /usr/lib/gcc/arm-none-eabi/4.8.2/../../../arm-none-eabi/lib/armv7-m/libg.a(lib_a-mallocr.o)
 .debug_ranges  0x0000000000000470       0x10 /usr/lib/gcc/arm-none-eabi/4.8.2/../../../arm-none-eabi/lib/armv7-m/libg.a(lib_a-memchr-stub.o)
 .debug_ranges  0x0000000000000480       0x10 /usr/lib/gcc/arm-none-eabi/4.8.2/../../../arm-none-eabi/lib/armv7-m/libg.a(lib_a-memmove.o)
 .debug_ranges  0x0000000000000490       0x18 /usr/lib/gcc/arm-none-eabi/4.8.2/../../../arm-none-eabi/lib/armv7-m/libg.a(lib_a-mlock.o)
 .debug_ranges  0x00000000000004a8      0x108 /usr/lib/gcc/arm-none-eabi/4.8.2/../../../arm-none-eabi/lib/armv7-m/libg.a(lib_a-mprec.o)
 .debug_ranges  0x00000000000005b0       0xe8 /usr/lib/gcc/arm-none-eabi/4.8.2/../../../arm-none-eabi/lib/armv7-m/libg.a(lib_a-reallocr.o)
 .debug_ranges  0x0000000000000698       0x10 /usr/lib/gcc/arm-none-eabi/4.8.2/../../../arm-none-eabi/lib/armv7-m/libg.a(lib_a-s_fpclassify.o)
 .debug_ranges  0x00000000000006a8       0x10 /usr/lib/gcc/arm-none-eabi/4.8.2/../../../arm-none-eabi/lib/armv7-m/libg.a(lib_a-sbrkr.o)
 .debug_ranges  0x00000000000006b8       0x30 /usr/lib/gcc/arm-none-eabi/4.8.2/../../../arm-none-eabi/lib/armv7-m/libg.a(lib_a-stdio.o)
 .debug_ranges  0x00000000000006e8      0x208 /usr/lib/gcc/arm-none-eabi/4.8.2/../../../arm-none-eabi/lib/armv7-m/libg.a(lib_a-vfiprintf.o)
 .debug_ranges  0x00000000000008f0       0x10 /usr/lib/gcc/arm-none-eabi/4.8.2/../../../arm-none-eabi/lib/armv7-m/libg.a(lib_a-writer.o)
 .debug_ranges  0x0000000000000900       0x40 /usr/lib/gcc/arm-none-eabi/4.8.2/../../../arm-none-eabi/lib/armv7-m/libg.a(lib_a-callocr.o)
 .debug_ranges  0x0000000000000940       0x10 /usr/lib/gcc/arm-none-eabi/4.8.2/../../../arm-none-eabi/lib/armv7-m/libg.a(lib_a-closer.o)
 .debug_ranges  0x0000000000000950       0x30 /usr/lib/gcc/arm-none-eabi/4.8.2/../../../arm-none-eabi/lib/armv7-m/libg.a(lib_a-fclose.o)
 .debug_ranges  0x0000000000000980       0x38 /usr/lib/gcc/arm-none-eabi/4.8.2/../../../arm-none-eabi/lib/armv7-m/libg.a(lib_a-fputwc.o)
 .debug_ranges  0x00000000000009b8       0x10 /usr/lib/gcc/arm-none-eabi/4.8.2/../../../arm-none-eabi/lib/armv7-m/libg.a(lib_a-fstatr.o)
 .debug_ranges  0x00000000000009c8       0x10 /usr/lib/gcc/arm-none-eabi/4.8.2/../../../arm-none-eabi/lib/armv7-m/libg.a(lib_a-isattyr.o)
 .debug_ranges  0x00000000000009d8       0x10 /usr/lib/gcc/arm-none-eabi/4.8.2/../../../arm-none-eabi/lib/armv7-m/libg.a(lib_a-lseekr.o)
 .debug_ranges  0x00000000000009e8       0x10 /usr/lib/gcc/arm-none-eabi/4.8.2/../../../arm-none-eabi/lib/armv7-m/libg.a(lib_a-readr.o)
 .debug_ranges  0x00000000000009f8       0x30 /usr/lib/gcc/arm-none-eabi/4.8.2/../../../arm-none-eabi/lib/armv7-m/libg.a(lib_a-reent.o)
 .debug_ranges  0x0000000000000a28       0x30 /usr/lib/gcc/arm-none-eabi/4.8.2/../../../arm-none-eabi/lib/armv7-m/libg.a(lib_a-wbuf.o)
 .debug_ranges  0x0000000000000a58       0x18 /usr/lib/gcc/arm-none-eabi/4.8.2/../../../arm-none-eabi/lib/armv7-m/libg.a(lib_a-wcrtomb.o)
 .debug_ranges  0x0000000000000a70       0x18 /usr/lib/gcc/arm-none-eabi/4.8.2/../../../arm-none-eabi/lib/armv7-m/libg.a(lib_a-wctomb_r.o)
 .debug_ranges  0x0000000000000a88       0xa8 /usr/lib/gcc/arm-none-eabi/4.8.2/armv7-m/libgcc.a(_divdi3.o)
 .debug_ranges  0x0000000000000b30       0xd8 /usr/lib/gcc/arm-none-eabi/4.8.2/armv7-m/libgcc.a(_udivdi3.o)

Cross Reference Table

Symbol                                            File
ADC_IRQHandler                                    /tmp/ccmq0gqb.o
AHBPrescTable                                     /tmp/cc8SCMZU.o
BusFault_Handler                                  /tmp/ccmq0gqb.o
CAN1_RX0_IRQHandler                               /tmp/ccmq0gqb.o
CAN1_RX1_IRQHandler                               /tmp/ccmq0gqb.o
CAN1_SCE_IRQHandler                               /tmp/ccmq0gqb.o
CAN1_TX_IRQHandler                                /tmp/ccmq0gqb.o
CAN2_RX0_IRQHandler                               /tmp/ccmq0gqb.o
CAN2_RX1_IRQHandler                               /tmp/ccmq0gqb.o
CAN2_SCE_IRQHandler                               /tmp/ccmq0gqb.o
CAN2_TX_IRQHandler                                /tmp/ccmq0gqb.o
CRYP_IRQHandler                                   /tmp/ccmq0gqb.o
DCMI_IRQHandler                                   /tmp/ccmq0gqb.o
DMA1_Stream0_IRQHandler                           /tmp/ccmq0gqb.o
DMA1_Stream1_IRQHandler                           /tmp/ccmq0gqb.o
DMA1_Stream2_IRQHandler                           /tmp/ccmq0gqb.o
DMA1_Stream3_IRQHandler                           /tmp/ccmq0gqb.o
DMA1_Stream4_IRQHandler                           /tmp/ccmq0gqb.o
DMA1_Stream5_IRQHandler                           /tmp/ccmq0gqb.o
DMA1_Stream6_IRQHandler                           /tmp/ccmq0gqb.o
DMA1_Stream7_IRQHandler                           /tmp/ccmq0gqb.o
DMA2_Stream0_IRQHandler                           /tmp/ccmq0gqb.o
DMA2_Stream1_IRQHandler                           /tmp/ccmq0gqb.o
DMA2_Stream2_IRQHandler                           /tmp/ccmq0gqb.o
DMA2_Stream3_IRQHandler                           /tmp/ccmq0gqb.o
DMA2_Stream4_IRQHandler                           /tmp/ccmq0gqb.o
DMA2_Stream5_IRQHandler                           /tmp/ccmq0gqb.o
DMA2_Stream6_IRQHandler                           /tmp/ccmq0gqb.o
DMA2_Stream7_IRQHandler                           /tmp/ccmq0gqb.o
DebugMon_Handler                                  /tmp/ccmq0gqb.o
Default_Handler                                   /tmp/ccmq0gqb.o
ETH_IRQHandler                                    /tmp/ccOeehRB.o
                                                  /tmp/ccmq0gqb.o
ETH_WKUP_IRQHandler                               /tmp/ccmq0gqb.o
EXTI0_IRQHandler                                  /tmp/ccmq0gqb.o
EXTI15_10_IRQHandler                              /tmp/ccmq0gqb.o
EXTI1_IRQHandler                                  /tmp/ccmq0gqb.o
EXTI2_IRQHandler                                  /tmp/ccmq0gqb.o
EXTI3_IRQHandler                                  /tmp/ccmq0gqb.o
EXTI4_IRQHandler                                  /tmp/ccmq0gqb.o
EXTI9_5_IRQHandler                                /tmp/ccmq0gqb.o
EXTI_ClearFlag                                    /tmp/cciNRtqh.o
EXTI_ClearITPendingBit                            /tmp/cciNRtqh.o
EXTI_DeInit                                       /tmp/cciNRtqh.o
EXTI_GenerateSWInterrupt                          /tmp/cciNRtqh.o
EXTI_GetFlagStatus                                /tmp/cciNRtqh.o
EXTI_GetITStatus                                  /tmp/cciNRtqh.o
EXTI_Init                                         /tmp/cciNRtqh.o
EXTI_StructInit                                   /tmp/cciNRtqh.o
FLASH_IRQHandler                                  /tmp/ccmq0gqb.o
FPU_IRQHandler                                    /tmp/ccmq0gqb.o
FSMC_IRQHandler                                   /tmp/ccmq0gqb.o
GPIO_DeInit                                       /tmp/ccXqE4VI.o
GPIO_Init                                         /tmp/ccXqE4VI.o
GPIO_PinAFConfig                                  /tmp/ccXqE4VI.o
GPIO_PinLockConfig                                /tmp/ccXqE4VI.o
GPIO_ReadInputData                                /tmp/ccXqE4VI.o
GPIO_ReadInputDataBit                             /tmp/ccXqE4VI.o
GPIO_ReadOutputData                               /tmp/ccXqE4VI.o
GPIO_ReadOutputDataBit                            /tmp/ccXqE4VI.o
GPIO_ResetBits                                    /tmp/ccXqE4VI.o
GPIO_SetBits                                      /tmp/ccXqE4VI.o
GPIO_StructInit                                   /tmp/ccXqE4VI.o
GPIO_ToggleBits                                   /tmp/ccXqE4VI.o
GPIO_Write                                        /tmp/ccXqE4VI.o
GPIO_WriteBit                                     /tmp/ccXqE4VI.o
HASH_RNG_IRQHandler                               /tmp/ccmq0gqb.o
HardFault_Handler                                 /tmp/ccmq0gqb.o
I2C1_ER_IRQHandler                                /tmp/ccmq0gqb.o
I2C1_EV_IRQHandler                                /tmp/ccmq0gqb.o
I2C2_ER_IRQHandler                                /tmp/ccmq0gqb.o
I2C2_EV_IRQHandler                                /tmp/ccmq0gqb.o
I2C3_ER_IRQHandler                                /tmp/ccmq0gqb.o
I2C3_EV_IRQHandler                                /tmp/ccmq0gqb.o
MemManage_Handler                                 /tmp/ccmq0gqb.o
NMI_Handler                                       /tmp/ccmq0gqb.o
NVIC_Init                                         /tmp/ccbHfsZy.o
NVIC_PriorityGroupConfig                          /tmp/ccbHfsZy.o
                                                  /tmp/cci0TnCw.o
NVIC_SetVectorTable                               /tmp/ccbHfsZy.o
NVIC_SystemLPConfig                               /tmp/ccbHfsZy.o
OTG_FS_IRQHandler                                 /tmp/ccmq0gqb.o
OTG_FS_WKUP_IRQHandler                            /tmp/ccmq0gqb.o
OTG_HS_EP1_IN_IRQHandler                          /tmp/ccmq0gqb.o
OTG_HS_EP1_OUT_IRQHandler                         /tmp/ccmq0gqb.o
OTG_HS_IRQHandler                                 /tmp/ccmq0gqb.o
OTG_HS_WKUP_IRQHandler                            /tmp/ccmq0gqb.o
PVD_IRQHandler                                    /tmp/ccmq0gqb.o
PendSV_Handler                                    /tmp/ccKufXV0.o
                                                  /tmp/ccmq0gqb.o
RCC_AHB1PeriphClockCmd                            /tmp/ccf6aV3r.o
RCC_AHB1PeriphClockLPModeCmd                      /tmp/ccf6aV3r.o
RCC_AHB1PeriphResetCmd                            /tmp/ccf6aV3r.o
                                                  /tmp/ccXqE4VI.o
RCC_AHB2PeriphClockCmd                            /tmp/ccf6aV3r.o
RCC_AHB2PeriphClockLPModeCmd                      /tmp/ccf6aV3r.o
RCC_AHB2PeriphResetCmd                            /tmp/ccf6aV3r.o
RCC_AHB3PeriphClockCmd                            /tmp/ccf6aV3r.o
RCC_AHB3PeriphClockLPModeCmd                      /tmp/ccf6aV3r.o
RCC_AHB3PeriphResetCmd                            /tmp/ccf6aV3r.o
RCC_APB1PeriphClockCmd                            /tmp/ccf6aV3r.o
RCC_APB1PeriphClockLPModeCmd                      /tmp/ccf6aV3r.o
RCC_APB1PeriphResetCmd                            /tmp/ccf6aV3r.o
                                                  /tmp/ccewRW4Z.o
RCC_APB2PeriphClockCmd                            /tmp/ccf6aV3r.o
RCC_APB2PeriphClockLPModeCmd                      /tmp/ccf6aV3r.o
RCC_APB2PeriphResetCmd                            /tmp/ccf6aV3r.o
                                                  /tmp/ccewRW4Z.o
RCC_AdjustHSICalibrationValue                     /tmp/ccf6aV3r.o
RCC_BackupResetCmd                                /tmp/ccf6aV3r.o
RCC_ClearFlag                                     /tmp/ccf6aV3r.o
RCC_ClearITPendingBit                             /tmp/ccf6aV3r.o
RCC_ClockSecuritySystemCmd                        /tmp/ccf6aV3r.o
RCC_DeInit                                        /tmp/ccf6aV3r.o
RCC_GetClocksFreq                                 /tmp/ccf6aV3r.o
                                                  /tmp/ccewRW4Z.o
RCC_GetFlagStatus                                 /tmp/ccf6aV3r.o
RCC_GetITStatus                                   /tmp/ccf6aV3r.o
RCC_GetSYSCLKSource                               /tmp/ccf6aV3r.o
RCC_HCLKConfig                                    /tmp/ccf6aV3r.o
RCC_HSEConfig                                     /tmp/ccf6aV3r.o
RCC_HSICmd                                        /tmp/ccf6aV3r.o
RCC_I2SCLKConfig                                  /tmp/ccf6aV3r.o
RCC_IRQHandler                                    /tmp/ccmq0gqb.o
RCC_ITConfig                                      /tmp/ccf6aV3r.o
RCC_LSEConfig                                     /tmp/ccf6aV3r.o
RCC_LSICmd                                        /tmp/ccf6aV3r.o
RCC_MCO1Config                                    /tmp/ccf6aV3r.o
RCC_MCO2Config                                    /tmp/ccf6aV3r.o
RCC_PCLK1Config                                   /tmp/ccf6aV3r.o
RCC_PCLK2Config                                   /tmp/ccf6aV3r.o
RCC_PLLCmd                                        /tmp/ccf6aV3r.o
RCC_PLLConfig                                     /tmp/ccf6aV3r.o
RCC_PLLI2SCmd                                     /tmp/ccf6aV3r.o
RCC_PLLI2SConfig                                  /tmp/ccf6aV3r.o
RCC_RTCCLKCmd                                     /tmp/ccf6aV3r.o
RCC_RTCCLKConfig                                  /tmp/ccf6aV3r.o
RCC_SYSCLKConfig                                  /tmp/ccf6aV3r.o
RCC_TIMCLKPresConfig                              /tmp/ccf6aV3r.o
RCC_WaitForHSEStartUp                             /tmp/ccf6aV3r.o
RTC_Alarm_IRQHandler                              /tmp/ccmq0gqb.o
RTC_WKUP_IRQHandler                               /tmp/ccmq0gqb.o
Reset_Handler                                     /tmp/ccmq0gqb.o
SDIO_IRQHandler                                   /tmp/ccmq0gqb.o
SPI1_IRQHandler                                   /tmp/ccmq0gqb.o
SPI2_IRQHandler                                   /tmp/ccmq0gqb.o
SPI3_IRQHandler                                   /tmp/ccmq0gqb.o
SVC_Handler                                       /tmp/ccKufXV0.o
                                                  /tmp/ccmq0gqb.o
SysTick_CLKSourceConfig                           /tmp/ccbHfsZy.o
SysTick_Handler                                   /tmp/ccKufXV0.o
                                                  /tmp/ccmq0gqb.o
SystemCoreClock                                   /tmp/cc8SCMZU.o
SystemCoreClockUpdate                             /tmp/cc8SCMZU.o
SystemInit                                        /tmp/cc8SCMZU.o
                                                  /tmp/ccmq0gqb.o
TAMP_STAMP_IRQHandler                             /tmp/ccmq0gqb.o
TIM1_BRK_TIM9_IRQHandler                          /tmp/ccmq0gqb.o
TIM1_CC_IRQHandler                                /tmp/ccmq0gqb.o
TIM1_TRG_COM_TIM11_IRQHandler                     /tmp/ccmq0gqb.o
TIM1_UP_TIM10_IRQHandler                          /tmp/ccmq0gqb.o
TIM2_IRQHandler                                   /tmp/ccmq0gqb.o
TIM3_IRQHandler                                   /tmp/ccmq0gqb.o
TIM4_IRQHandler                                   /tmp/ccmq0gqb.o
TIM5_IRQHandler                                   /tmp/ccmq0gqb.o
TIM6_DAC_IRQHandler                               /tmp/ccmq0gqb.o
TIM7_IRQHandler                                   /tmp/ccmq0gqb.o
TIM8_BRK_TIM12_IRQHandler                         /tmp/ccmq0gqb.o
TIM8_CC_IRQHandler                                /tmp/ccmq0gqb.o
TIM8_TRG_COM_TIM14_IRQHandler                     /tmp/ccmq0gqb.o
TIM8_UP_TIM13_IRQHandler                          /tmp/ccmq0gqb.o
UART4_IRQHandler                                  /tmp/ccmq0gqb.o
UART5_IRQHandler                                  /tmp/ccmq0gqb.o
USART1_IRQHandler                                 /tmp/ccmq0gqb.o
USART2_IRQHandler                                 /tmp/ccmq0gqb.o
USART3_IRQHandler                                 /tmp/ccmq0gqb.o
USART6_IRQHandler                                 /tmp/ccmq0gqb.o
USART_ClearFlag                                   /tmp/ccewRW4Z.o
USART_ClearITPendingBit                           /tmp/ccewRW4Z.o
USART_ClockInit                                   /tmp/ccewRW4Z.o
USART_ClockStructInit                             /tmp/ccewRW4Z.o
USART_Cmd                                         /tmp/ccewRW4Z.o
USART_DMACmd                                      /tmp/ccewRW4Z.o
USART_DeInit                                      /tmp/ccewRW4Z.o
USART_GetFlagStatus                               /tmp/ccewRW4Z.o
USART_GetITStatus                                 /tmp/ccewRW4Z.o
USART_HalfDuplexCmd                               /tmp/ccewRW4Z.o
USART_ITConfig                                    /tmp/ccewRW4Z.o
USART_Init                                        /tmp/ccewRW4Z.o
USART_IrDACmd                                     /tmp/ccewRW4Z.o
USART_IrDAConfig                                  /tmp/ccewRW4Z.o
USART_LINBreakDetectLengthConfig                  /tmp/ccewRW4Z.o
USART_LINCmd                                      /tmp/ccewRW4Z.o
USART_OneBitMethodCmd                             /tmp/ccewRW4Z.o
USART_OverSampling8Cmd                            /tmp/ccewRW4Z.o
USART_ReceiveData                                 /tmp/ccewRW4Z.o
USART_ReceiverWakeUpCmd                           /tmp/ccewRW4Z.o
USART_SendBreak                                   /tmp/ccewRW4Z.o
USART_SendData                                    /tmp/ccewRW4Z.o
USART_SetAddress                                  /tmp/ccewRW4Z.o
USART_SetGuardTime                                /tmp/ccewRW4Z.o
USART_SetPrescaler                                /tmp/ccewRW4Z.o
USART_SmartCardCmd                                /tmp/ccewRW4Z.o
USART_SmartCardNACKCmd                            /tmp/ccewRW4Z.o
USART_StructInit                                  /tmp/ccewRW4Z.o
USART_WakeUpConfig                                /tmp/ccewRW4Z.o
UsageFault_Handler                                /tmp/ccmq0gqb.o
WWDG_IRQHandler                                   /tmp/ccmq0gqb.o
_Balloc                                           /usr/lib/gcc/arm-none-eabi/4.8.2/../../../arm-none-eabi/lib/armv7-m/libg.a(lib_a-mprec.o)
                                                  /usr/lib/gcc/arm-none-eabi/4.8.2/../../../arm-none-eabi/lib/armv7-m/libg.a(lib_a-dtoa.o)
_Bfree                                            /usr/lib/gcc/arm-none-eabi/4.8.2/../../../arm-none-eabi/lib/armv7-m/libg.a(lib_a-mprec.o)
                                                  /usr/lib/gcc/arm-none-eabi/4.8.2/../../../arm-none-eabi/lib/armv7-m/libg.a(lib_a-dtoa.o)
_PathLocale                                       /usr/lib/gcc/arm-none-eabi/4.8.2/../../../arm-none-eabi/lib/armv7-m/libg.a(lib_a-locale.o)
__adddf3                                          /usr/lib/gcc/arm-none-eabi/4.8.2/armv7-m/libgcc.a(_arm_addsubdf3.o)
__aeabi_cdcmpeq                                   /usr/lib/gcc/arm-none-eabi/4.8.2/armv7-m/libgcc.a(_arm_cmpdf2.o)
__aeabi_cdcmple                                   /usr/lib/gcc/arm-none-eabi/4.8.2/armv7-m/libgcc.a(_arm_cmpdf2.o)
__aeabi_cdrcmple                                  /usr/lib/gcc/arm-none-eabi/4.8.2/armv7-m/libgcc.a(_arm_cmpdf2.o)
__aeabi_d2iz                                      /usr/lib/gcc/arm-none-eabi/4.8.2/armv7-m/libgcc.a(_arm_fixdfsi.o)
                                                  /usr/lib/gcc/arm-none-eabi/4.8.2/../../../arm-none-eabi/lib/armv7-m/libg.a(lib_a-dtoa.o)
__aeabi_dadd                                      /usr/lib/gcc/arm-none-eabi/4.8.2/armv7-m/libgcc.a(_arm_addsubdf3.o)
                                                  /usr/lib/gcc/arm-none-eabi/4.8.2/../../../arm-none-eabi/lib/armv7-m/libg.a(lib_a-dtoa.o)
__aeabi_dcmpeq                                    /usr/lib/gcc/arm-none-eabi/4.8.2/armv7-m/libgcc.a(_arm_cmpdf2.o)
                                                  /usr/lib/gcc/arm-none-eabi/4.8.2/../../../arm-none-eabi/lib/armv7-m/libg.a(lib_a-dtoa.o)
                                                  /usr/lib/gcc/arm-none-eabi/4.8.2/../../../arm-none-eabi/lib/armv7-m/libg.a(lib_a-vfprintf.o)
__aeabi_dcmpge                                    /usr/lib/gcc/arm-none-eabi/4.8.2/armv7-m/libgcc.a(_arm_cmpdf2.o)
                                                  /usr/lib/gcc/arm-none-eabi/4.8.2/../../../arm-none-eabi/lib/armv7-m/libg.a(lib_a-dtoa.o)
__aeabi_dcmpgt                                    /usr/lib/gcc/arm-none-eabi/4.8.2/armv7-m/libgcc.a(_arm_cmpdf2.o)
                                                  /usr/lib/gcc/arm-none-eabi/4.8.2/../../../arm-none-eabi/lib/armv7-m/libg.a(lib_a-dtoa.o)
__aeabi_dcmple                                    /usr/lib/gcc/arm-none-eabi/4.8.2/armv7-m/libgcc.a(_arm_cmpdf2.o)
__aeabi_dcmplt                                    /usr/lib/gcc/arm-none-eabi/4.8.2/armv7-m/libgcc.a(_arm_cmpdf2.o)
                                                  /usr/lib/gcc/arm-none-eabi/4.8.2/../../../arm-none-eabi/lib/armv7-m/libg.a(lib_a-dtoa.o)
                                                  /usr/lib/gcc/arm-none-eabi/4.8.2/../../../arm-none-eabi/lib/armv7-m/libg.a(lib_a-vfprintf.o)
__aeabi_ddiv                                      /usr/lib/gcc/arm-none-eabi/4.8.2/armv7-m/libgcc.a(_arm_muldivdf3.o)
                                                  /usr/lib/gcc/arm-none-eabi/4.8.2/../../../arm-none-eabi/lib/armv7-m/libg.a(lib_a-mprec.o)
                                                  /usr/lib/gcc/arm-none-eabi/4.8.2/../../../arm-none-eabi/lib/armv7-m/libg.a(lib_a-dtoa.o)
__aeabi_dmul                                      /usr/lib/gcc/arm-none-eabi/4.8.2/armv7-m/libgcc.a(_arm_muldivdf3.o)
                                                  /usr/lib/gcc/arm-none-eabi/4.8.2/../../../arm-none-eabi/lib/armv7-m/libg.a(lib_a-mprec.o)
                                                  /usr/lib/gcc/arm-none-eabi/4.8.2/../../../arm-none-eabi/lib/armv7-m/libg.a(lib_a-dtoa.o)
__aeabi_drsub                                     /usr/lib/gcc/arm-none-eabi/4.8.2/armv7-m/libgcc.a(_arm_addsubdf3.o)
__aeabi_dsub                                      /usr/lib/gcc/arm-none-eabi/4.8.2/armv7-m/libgcc.a(_arm_addsubdf3.o)
                                                  /usr/lib/gcc/arm-none-eabi/4.8.2/../../../arm-none-eabi/lib/armv7-m/libg.a(lib_a-dtoa.o)
__aeabi_f2d                                       /usr/lib/gcc/arm-none-eabi/4.8.2/armv7-m/libgcc.a(_arm_addsubdf3.o)
__aeabi_i2d                                       /usr/lib/gcc/arm-none-eabi/4.8.2/armv7-m/libgcc.a(_arm_addsubdf3.o)
                                                  /usr/lib/gcc/arm-none-eabi/4.8.2/../../../arm-none-eabi/lib/armv7-m/libg.a(lib_a-dtoa.o)
__aeabi_idiv0                                     /usr/lib/gcc/arm-none-eabi/4.8.2/armv7-m/libgcc.a(_dvmd_tls.o)
__aeabi_l2d                                       /usr/lib/gcc/arm-none-eabi/4.8.2/armv7-m/libgcc.a(_arm_addsubdf3.o)
__aeabi_ldiv0                                     /usr/lib/gcc/arm-none-eabi/4.8.2/armv7-m/libgcc.a(_dvmd_tls.o)
                                                  /usr/lib/gcc/arm-none-eabi/4.8.2/armv7-m/libgcc.a(_aeabi_uldivmod.o)
__aeabi_ui2d                                      /usr/lib/gcc/arm-none-eabi/4.8.2/armv7-m/libgcc.a(_arm_addsubdf3.o)
                                                  /usr/lib/gcc/arm-none-eabi/4.8.2/../../../arm-none-eabi/lib/armv7-m/libg.a(lib_a-dtoa.o)
__aeabi_ul2d                                      /usr/lib/gcc/arm-none-eabi/4.8.2/armv7-m/libgcc.a(_arm_addsubdf3.o)
__aeabi_uldivmod                                  /usr/lib/gcc/arm-none-eabi/4.8.2/armv7-m/libgcc.a(_aeabi_uldivmod.o)
                                                  /usr/lib/gcc/arm-none-eabi/4.8.2/../../../arm-none-eabi/lib/armv7-m/libg.a(lib_a-vfiprintf.o)
                                                  /usr/lib/gcc/arm-none-eabi/4.8.2/../../../arm-none-eabi/lib/armv7-m/libg.a(lib_a-vfprintf.o)
__any_on                                          /usr/lib/gcc/arm-none-eabi/4.8.2/../../../arm-none-eabi/lib/armv7-m/libg.a(lib_a-mprec.o)
__ascii_wctomb                                    /usr/lib/gcc/arm-none-eabi/4.8.2/../../../arm-none-eabi/lib/armv7-m/libg.a(lib_a-wctomb_r.o)
__b2d                                             /usr/lib/gcc/arm-none-eabi/4.8.2/../../../arm-none-eabi/lib/armv7-m/libg.a(lib_a-mprec.o)
__cmpdf2                                          /usr/lib/gcc/arm-none-eabi/4.8.2/armv7-m/libgcc.a(_arm_cmpdf2.o)
__copybits                                        /usr/lib/gcc/arm-none-eabi/4.8.2/../../../arm-none-eabi/lib/armv7-m/libg.a(lib_a-mprec.o)
__d2b                                             /usr/lib/gcc/arm-none-eabi/4.8.2/../../../arm-none-eabi/lib/armv7-m/libg.a(lib_a-mprec.o)
                                                  /usr/lib/gcc/arm-none-eabi/4.8.2/../../../arm-none-eabi/lib/armv7-m/libg.a(lib_a-dtoa.o)
__divdf3                                          /usr/lib/gcc/arm-none-eabi/4.8.2/armv7-m/libgcc.a(_arm_muldivdf3.o)
__divdi3                                          /usr/lib/gcc/arm-none-eabi/4.8.2/armv7-m/libgcc.a(_divdi3.o)
                                                  /usr/lib/gcc/arm-none-eabi/4.8.2/armv7-m/libgcc.a(bpabi.o)
__eqdf2                                           /usr/lib/gcc/arm-none-eabi/4.8.2/armv7-m/libgcc.a(_arm_cmpdf2.o)
__extendsfdf2                                     /usr/lib/gcc/arm-none-eabi/4.8.2/armv7-m/libgcc.a(_arm_addsubdf3.o)
__fixdfsi                                         /usr/lib/gcc/arm-none-eabi/4.8.2/armv7-m/libgcc.a(_arm_fixdfsi.o)
__floatdidf                                       /usr/lib/gcc/arm-none-eabi/4.8.2/armv7-m/libgcc.a(_arm_addsubdf3.o)
__floatsidf                                       /usr/lib/gcc/arm-none-eabi/4.8.2/armv7-m/libgcc.a(_arm_addsubdf3.o)
__floatundidf                                     /usr/lib/gcc/arm-none-eabi/4.8.2/armv7-m/libgcc.a(_arm_addsubdf3.o)
__floatunsidf                                     /usr/lib/gcc/arm-none-eabi/4.8.2/armv7-m/libgcc.a(_arm_addsubdf3.o)
__fp_lock_all                                     /usr/lib/gcc/arm-none-eabi/4.8.2/../../../arm-none-eabi/lib/armv7-m/libg.a(lib_a-findfp.o)
__fp_unlock_all                                   /usr/lib/gcc/arm-none-eabi/4.8.2/../../../arm-none-eabi/lib/armv7-m/libg.a(lib_a-findfp.o)
__fpclassifyd                                     /usr/lib/gcc/arm-none-eabi/4.8.2/../../../arm-none-eabi/lib/armv7-m/libg.a(lib_a-s_fpclassify.o)
                                                  /usr/lib/gcc/arm-none-eabi/4.8.2/../../../arm-none-eabi/lib/armv7-m/libg.a(lib_a-vfprintf.o)
__gedf2                                           /usr/lib/gcc/arm-none-eabi/4.8.2/armv7-m/libgcc.a(_arm_cmpdf2.o)
__gnu_ldivmod_helper                              /usr/lib/gcc/arm-none-eabi/4.8.2/armv7-m/libgcc.a(bpabi.o)
__gnu_uldivmod_helper                             /usr/lib/gcc/arm-none-eabi/4.8.2/armv7-m/libgcc.a(bpabi.o)
                                                  /usr/lib/gcc/arm-none-eabi/4.8.2/armv7-m/libgcc.a(_aeabi_uldivmod.o)
__gtdf2                                           /usr/lib/gcc/arm-none-eabi/4.8.2/armv7-m/libgcc.a(_arm_cmpdf2.o)
__hi0bits                                         /usr/lib/gcc/arm-none-eabi/4.8.2/../../../arm-none-eabi/lib/armv7-m/libg.a(lib_a-mprec.o)
                                                  /usr/lib/gcc/arm-none-eabi/4.8.2/../../../arm-none-eabi/lib/armv7-m/libg.a(lib_a-dtoa.o)
__i2b                                             /usr/lib/gcc/arm-none-eabi/4.8.2/../../../arm-none-eabi/lib/armv7-m/libg.a(lib_a-mprec.o)
                                                  /usr/lib/gcc/arm-none-eabi/4.8.2/../../../arm-none-eabi/lib/armv7-m/libg.a(lib_a-dtoa.o)
__ledf2                                           /usr/lib/gcc/arm-none-eabi/4.8.2/armv7-m/libgcc.a(_arm_cmpdf2.o)
__lo0bits                                         /usr/lib/gcc/arm-none-eabi/4.8.2/../../../arm-none-eabi/lib/armv7-m/libg.a(lib_a-mprec.o)
__locale_charset                                  /usr/lib/gcc/arm-none-eabi/4.8.2/../../../arm-none-eabi/lib/armv7-m/libg.a(lib_a-locale.o)
                                                  /usr/lib/gcc/arm-none-eabi/4.8.2/../../../arm-none-eabi/lib/armv7-m/libg.a(lib_a-wctomb_r.o)
                                                  /usr/lib/gcc/arm-none-eabi/4.8.2/../../../arm-none-eabi/lib/armv7-m/libg.a(lib_a-wcrtomb.o)
__locale_cjk_lang                                 /usr/lib/gcc/arm-none-eabi/4.8.2/../../../arm-none-eabi/lib/armv7-m/libg.a(lib_a-locale.o)
__locale_mb_cur_max                               /usr/lib/gcc/arm-none-eabi/4.8.2/../../../arm-none-eabi/lib/armv7-m/libg.a(lib_a-locale.o)
                                                  /usr/lib/gcc/arm-none-eabi/4.8.2/../../../arm-none-eabi/lib/armv7-m/libg.a(lib_a-fputwc.o)
__locale_msgcharset                               /usr/lib/gcc/arm-none-eabi/4.8.2/../../../arm-none-eabi/lib/armv7-m/libg.a(lib_a-locale.o)
__lshift                                          /usr/lib/gcc/arm-none-eabi/4.8.2/../../../arm-none-eabi/lib/armv7-m/libg.a(lib_a-mprec.o)
                                                  /usr/lib/gcc/arm-none-eabi/4.8.2/../../../arm-none-eabi/lib/armv7-m/libg.a(lib_a-dtoa.o)
__ltdf2                                           /usr/lib/gcc/arm-none-eabi/4.8.2/armv7-m/libgcc.a(_arm_cmpdf2.o)
__malloc_av_                                      /usr/lib/gcc/arm-none-eabi/4.8.2/../../../arm-none-eabi/lib/armv7-m/libg.a(lib_a-mallocr.o)
                                                  /usr/lib/gcc/arm-none-eabi/4.8.2/../../../arm-none-eabi/lib/armv7-m/libg.a(lib_a-reallocr.o)
                                                  /usr/lib/gcc/arm-none-eabi/4.8.2/../../../arm-none-eabi/lib/armv7-m/libg.a(lib_a-freer.o)
__malloc_current_mallinfo                         /usr/lib/gcc/arm-none-eabi/4.8.2/../../../arm-none-eabi/lib/armv7-m/libg.a(lib_a-mallocr.o)
                                                  /usr/lib/gcc/arm-none-eabi/4.8.2/../../../arm-none-eabi/lib/armv7-m/libg.a(lib_a-freer.o)
__malloc_lock                                     /usr/lib/gcc/arm-none-eabi/4.8.2/../../../arm-none-eabi/lib/armv7-m/libg.a(lib_a-mlock.o)
                                                  /usr/lib/gcc/arm-none-eabi/4.8.2/../../../arm-none-eabi/lib/armv7-m/libg.a(lib_a-reallocr.o)
                                                  /usr/lib/gcc/arm-none-eabi/4.8.2/../../../arm-none-eabi/lib/armv7-m/libg.a(lib_a-mallocr.o)
                                                  /usr/lib/gcc/arm-none-eabi/4.8.2/../../../arm-none-eabi/lib/armv7-m/libg.a(lib_a-freer.o)
__malloc_max_sbrked_mem                           /usr/lib/gcc/arm-none-eabi/4.8.2/../../../arm-none-eabi/lib/armv7-m/libg.a(lib_a-mallocr.o)
__malloc_max_total_mem                            /usr/lib/gcc/arm-none-eabi/4.8.2/../../../arm-none-eabi/lib/armv7-m/libg.a(lib_a-mallocr.o)
__malloc_sbrk_base                                /usr/lib/gcc/arm-none-eabi/4.8.2/../../../arm-none-eabi/lib/armv7-m/libg.a(lib_a-mallocr.o)
                                                  /usr/lib/gcc/arm-none-eabi/4.8.2/../../../arm-none-eabi/lib/armv7-m/libg.a(lib_a-freer.o)
__malloc_top_pad                                  /usr/lib/gcc/arm-none-eabi/4.8.2/../../../arm-none-eabi/lib/armv7-m/libg.a(lib_a-mallocr.o)
                                                  /usr/lib/gcc/arm-none-eabi/4.8.2/../../../arm-none-eabi/lib/armv7-m/libg.a(lib_a-freer.o)
__malloc_trim_threshold                           /usr/lib/gcc/arm-none-eabi/4.8.2/../../../arm-none-eabi/lib/armv7-m/libg.a(lib_a-mallocr.o)
                                                  /usr/lib/gcc/arm-none-eabi/4.8.2/../../../arm-none-eabi/lib/armv7-m/libg.a(lib_a-freer.o)
__malloc_unlock                                   /usr/lib/gcc/arm-none-eabi/4.8.2/../../../arm-none-eabi/lib/armv7-m/libg.a(lib_a-mlock.o)
                                                  /usr/lib/gcc/arm-none-eabi/4.8.2/../../../arm-none-eabi/lib/armv7-m/libg.a(lib_a-reallocr.o)
                                                  /usr/lib/gcc/arm-none-eabi/4.8.2/../../../arm-none-eabi/lib/armv7-m/libg.a(lib_a-mallocr.o)
                                                  /usr/lib/gcc/arm-none-eabi/4.8.2/../../../arm-none-eabi/lib/armv7-m/libg.a(lib_a-freer.o)
__mb_cur_max                                      /usr/lib/gcc/arm-none-eabi/4.8.2/../../../arm-none-eabi/lib/armv7-m/libg.a(lib_a-locale.o)
__mcmp                                            /usr/lib/gcc/arm-none-eabi/4.8.2/../../../arm-none-eabi/lib/armv7-m/libg.a(lib_a-mprec.o)
                                                  /usr/lib/gcc/arm-none-eabi/4.8.2/../../../arm-none-eabi/lib/armv7-m/libg.a(lib_a-dtoa.o)
__mdiff                                           /usr/lib/gcc/arm-none-eabi/4.8.2/../../../arm-none-eabi/lib/armv7-m/libg.a(lib_a-mprec.o)
                                                  /usr/lib/gcc/arm-none-eabi/4.8.2/../../../arm-none-eabi/lib/armv7-m/libg.a(lib_a-dtoa.o)
__mlocale_changed                                 /usr/lib/gcc/arm-none-eabi/4.8.2/../../../arm-none-eabi/lib/armv7-m/libg.a(lib_a-locale.o)
__mprec_bigtens                                   /usr/lib/gcc/arm-none-eabi/4.8.2/../../../arm-none-eabi/lib/armv7-m/libg.a(lib_a-mprec.o)
                                                  /usr/lib/gcc/arm-none-eabi/4.8.2/../../../arm-none-eabi/lib/armv7-m/libg.a(lib_a-dtoa.o)
__mprec_tens                                      /usr/lib/gcc/arm-none-eabi/4.8.2/../../../arm-none-eabi/lib/armv7-m/libg.a(lib_a-mprec.o)
                                                  /usr/lib/gcc/arm-none-eabi/4.8.2/../../../arm-none-eabi/lib/armv7-m/libg.a(lib_a-dtoa.o)
__mprec_tinytens                                  /usr/lib/gcc/arm-none-eabi/4.8.2/../../../arm-none-eabi/lib/armv7-m/libg.a(lib_a-mprec.o)
__muldf3                                          /usr/lib/gcc/arm-none-eabi/4.8.2/armv7-m/libgcc.a(_arm_muldivdf3.o)
__multadd                                         /usr/lib/gcc/arm-none-eabi/4.8.2/../../../arm-none-eabi/lib/armv7-m/libg.a(lib_a-mprec.o)
                                                  /usr/lib/gcc/arm-none-eabi/4.8.2/../../../arm-none-eabi/lib/armv7-m/libg.a(lib_a-dtoa.o)
__multiply                                        /usr/lib/gcc/arm-none-eabi/4.8.2/../../../arm-none-eabi/lib/armv7-m/libg.a(lib_a-mprec.o)
                                                  /usr/lib/gcc/arm-none-eabi/4.8.2/../../../arm-none-eabi/lib/armv7-m/libg.a(lib_a-dtoa.o)
__nedf2                                           /usr/lib/gcc/arm-none-eabi/4.8.2/armv7-m/libgcc.a(_arm_cmpdf2.o)
__nlocale_changed                                 /usr/lib/gcc/arm-none-eabi/4.8.2/../../../arm-none-eabi/lib/armv7-m/libg.a(lib_a-locale.o)
__pow5mult                                        /usr/lib/gcc/arm-none-eabi/4.8.2/../../../arm-none-eabi/lib/armv7-m/libg.a(lib_a-mprec.o)
                                                  /usr/lib/gcc/arm-none-eabi/4.8.2/../../../arm-none-eabi/lib/armv7-m/libg.a(lib_a-dtoa.o)
__ratio                                           /usr/lib/gcc/arm-none-eabi/4.8.2/../../../arm-none-eabi/lib/armv7-m/libg.a(lib_a-mprec.o)
__s2b                                             /usr/lib/gcc/arm-none-eabi/4.8.2/../../../arm-none-eabi/lib/armv7-m/libg.a(lib_a-mprec.o)
__sclose                                          /usr/lib/gcc/arm-none-eabi/4.8.2/../../../arm-none-eabi/lib/armv7-m/libg.a(lib_a-stdio.o)
                                                  /usr/lib/gcc/arm-none-eabi/4.8.2/../../../arm-none-eabi/lib/armv7-m/libg.a(lib_a-findfp.o)
__seofread                                        /usr/lib/gcc/arm-none-eabi/4.8.2/../../../arm-none-eabi/lib/armv7-m/libg.a(lib_a-stdio.o)
__sflush_r                                        /usr/lib/gcc/arm-none-eabi/4.8.2/../../../arm-none-eabi/lib/armv7-m/libg.a(lib_a-fflush.o)
__sfmoreglue                                      /usr/lib/gcc/arm-none-eabi/4.8.2/../../../arm-none-eabi/lib/armv7-m/libg.a(lib_a-findfp.o)
__sfp                                             /usr/lib/gcc/arm-none-eabi/4.8.2/../../../arm-none-eabi/lib/armv7-m/libg.a(lib_a-findfp.o)
__sfp_lock_acquire                                /usr/lib/gcc/arm-none-eabi/4.8.2/../../../arm-none-eabi/lib/armv7-m/libg.a(lib_a-findfp.o)
                                                  /usr/lib/gcc/arm-none-eabi/4.8.2/../../../arm-none-eabi/lib/armv7-m/libg.a(lib_a-fclose.o)
__sfp_lock_release                                /usr/lib/gcc/arm-none-eabi/4.8.2/../../../arm-none-eabi/lib/armv7-m/libg.a(lib_a-findfp.o)
                                                  /usr/lib/gcc/arm-none-eabi/4.8.2/../../../arm-none-eabi/lib/armv7-m/libg.a(lib_a-fclose.o)
__sfvwrite_r                                      /usr/lib/gcc/arm-none-eabi/4.8.2/../../../arm-none-eabi/lib/armv7-m/libg.a(lib_a-fvwrite.o)
                                                  /usr/lib/gcc/arm-none-eabi/4.8.2/../../../arm-none-eabi/lib/armv7-m/libg.a(lib_a-vfiprintf.o)
                                                  /usr/lib/gcc/arm-none-eabi/4.8.2/../../../arm-none-eabi/lib/armv7-m/libg.a(lib_a-puts.o)
__sinit                                           /usr/lib/gcc/arm-none-eabi/4.8.2/../../../arm-none-eabi/lib/armv7-m/libg.a(lib_a-findfp.o)
                                                  /usr/lib/gcc/arm-none-eabi/4.8.2/../../../arm-none-eabi/lib/armv7-m/libg.a(lib_a-wbuf.o)
                                                  /usr/lib/gcc/arm-none-eabi/4.8.2/../../../arm-none-eabi/lib/armv7-m/libg.a(lib_a-fputwc.o)
                                                  /usr/lib/gcc/arm-none-eabi/4.8.2/../../../arm-none-eabi/lib/armv7-m/libg.a(lib_a-fclose.o)
                                                  /usr/lib/gcc/arm-none-eabi/4.8.2/../../../arm-none-eabi/lib/armv7-m/libg.a(lib_a-vfiprintf.o)
                                                  /usr/lib/gcc/arm-none-eabi/4.8.2/../../../arm-none-eabi/lib/armv7-m/libg.a(lib_a-fflush.o)
                                                  /usr/lib/gcc/arm-none-eabi/4.8.2/../../../arm-none-eabi/lib/armv7-m/libg.a(lib_a-wsetup.o)
                                                  /usr/lib/gcc/arm-none-eabi/4.8.2/../../../arm-none-eabi/lib/armv7-m/libg.a(lib_a-vfprintf.o)
__sinit_lock_acquire                              /usr/lib/gcc/arm-none-eabi/4.8.2/../../../arm-none-eabi/lib/armv7-m/libg.a(lib_a-findfp.o)
__sinit_lock_release                              /usr/lib/gcc/arm-none-eabi/4.8.2/../../../arm-none-eabi/lib/armv7-m/libg.a(lib_a-findfp.o)
__smakebuf_r                                      /usr/lib/gcc/arm-none-eabi/4.8.2/../../../arm-none-eabi/lib/armv7-m/libg.a(lib_a-makebuf.o)
                                                  /usr/lib/gcc/arm-none-eabi/4.8.2/../../../arm-none-eabi/lib/armv7-m/libg.a(lib_a-wsetup.o)
__sprint_r                                        /usr/lib/gcc/arm-none-eabi/4.8.2/../../../arm-none-eabi/lib/armv7-m/libg.a(lib_a-vfiprintf.o)
                                                  /usr/lib/gcc/arm-none-eabi/4.8.2/../../../arm-none-eabi/lib/armv7-m/libg.a(lib_a-vfprintf.o)
__sread                                           /usr/lib/gcc/arm-none-eabi/4.8.2/../../../arm-none-eabi/lib/armv7-m/libg.a(lib_a-stdio.o)
                                                  /usr/lib/gcc/arm-none-eabi/4.8.2/../../../arm-none-eabi/lib/armv7-m/libg.a(lib_a-findfp.o)
__sseek                                           /usr/lib/gcc/arm-none-eabi/4.8.2/../../../arm-none-eabi/lib/armv7-m/libg.a(lib_a-stdio.o)
                                                  /usr/lib/gcc/arm-none-eabi/4.8.2/../../../arm-none-eabi/lib/armv7-m/libg.a(lib_a-makebuf.o)
                                                  /usr/lib/gcc/arm-none-eabi/4.8.2/../../../arm-none-eabi/lib/armv7-m/libg.a(lib_a-findfp.o)
__stderr                                          /tmp/ccVQAlBU.o
__stdout                                          /tmp/ccVQAlBU.o
__subdf3                                          /usr/lib/gcc/arm-none-eabi/4.8.2/armv7-m/libgcc.a(_arm_addsubdf3.o)
__swbuf                                           /usr/lib/gcc/arm-none-eabi/4.8.2/../../../arm-none-eabi/lib/armv7-m/libg.a(lib_a-wbuf.o)
__swbuf_r                                         /usr/lib/gcc/arm-none-eabi/4.8.2/../../../arm-none-eabi/lib/armv7-m/libg.a(lib_a-wbuf.o)
                                                  /usr/lib/gcc/arm-none-eabi/4.8.2/../../../arm-none-eabi/lib/armv7-m/libg.a(lib_a-fputwc.o)
__swrite                                          /usr/lib/gcc/arm-none-eabi/4.8.2/../../../arm-none-eabi/lib/armv7-m/libg.a(lib_a-stdio.o)
                                                  /usr/lib/gcc/arm-none-eabi/4.8.2/../../../arm-none-eabi/lib/armv7-m/libg.a(lib_a-findfp.o)
__swsetup_r                                       /usr/lib/gcc/arm-none-eabi/4.8.2/../../../arm-none-eabi/lib/armv7-m/libg.a(lib_a-wsetup.o)
                                                  /usr/lib/gcc/arm-none-eabi/4.8.2/../../../arm-none-eabi/lib/armv7-m/libg.a(lib_a-wbuf.o)
                                                  /usr/lib/gcc/arm-none-eabi/4.8.2/../../../arm-none-eabi/lib/armv7-m/libg.a(lib_a-vfiprintf.o)
                                                  /usr/lib/gcc/arm-none-eabi/4.8.2/../../../arm-none-eabi/lib/armv7-m/libg.a(lib_a-fvwrite.o)
                                                  /usr/lib/gcc/arm-none-eabi/4.8.2/../../../arm-none-eabi/lib/armv7-m/libg.a(lib_a-vfprintf.o)
__udivdi3                                         /usr/lib/gcc/arm-none-eabi/4.8.2/armv7-m/libgcc.a(_udivdi3.o)
                                                  /usr/lib/gcc/arm-none-eabi/4.8.2/armv7-m/libgcc.a(bpabi.o)
__ulp                                             /usr/lib/gcc/arm-none-eabi/4.8.2/../../../arm-none-eabi/lib/armv7-m/libg.a(lib_a-mprec.o)
__wctomb                                          /usr/lib/gcc/arm-none-eabi/4.8.2/../../../arm-none-eabi/lib/armv7-m/libg.a(lib_a-wctomb_r.o)
                                                  /usr/lib/gcc/arm-none-eabi/4.8.2/../../../arm-none-eabi/lib/armv7-m/libg.a(lib_a-wcrtomb.o)
_calloc_r                                         /usr/lib/gcc/arm-none-eabi/4.8.2/../../../arm-none-eabi/lib/armv7-m/libg.a(lib_a-callocr.o)
                                                  /usr/lib/gcc/arm-none-eabi/4.8.2/../../../arm-none-eabi/lib/armv7-m/libg.a(lib_a-mprec.o)
_cleanup                                          /usr/lib/gcc/arm-none-eabi/4.8.2/../../../arm-none-eabi/lib/armv7-m/libg.a(lib_a-findfp.o)
_cleanup_r                                        /usr/lib/gcc/arm-none-eabi/4.8.2/../../../arm-none-eabi/lib/armv7-m/libg.a(lib_a-findfp.o)
                                                  /usr/lib/gcc/arm-none-eabi/4.8.2/../../../arm-none-eabi/lib/armv7-m/libg.a(lib_a-makebuf.o)
_close                                            /tmp/ccVQAlBU.o
                                                  /usr/lib/gcc/arm-none-eabi/4.8.2/../../../arm-none-eabi/lib/armv7-m/libg.a(lib_a-closer.o)
_close_r                                          /usr/lib/gcc/arm-none-eabi/4.8.2/../../../arm-none-eabi/lib/armv7-m/libg.a(lib_a-closer.o)
                                                  /usr/lib/gcc/arm-none-eabi/4.8.2/../../../arm-none-eabi/lib/armv7-m/libg.a(lib_a-stdio.o)
_dtoa_r                                           /usr/lib/gcc/arm-none-eabi/4.8.2/../../../arm-none-eabi/lib/armv7-m/libg.a(lib_a-dtoa.o)
                                                  /usr/lib/gcc/arm-none-eabi/4.8.2/../../../arm-none-eabi/lib/armv7-m/libg.a(lib_a-vfprintf.o)
_ebss                                             /tmp/ccmq0gqb.o
_edata                                            /tmp/ccmq0gqb.o
_end                                              /tmp/ccVQAlBU.o
_estack                                           /tmp/ccmq0gqb.o
_exit                                             /tmp/ccVQAlBU.o
_fclose_r                                         /usr/lib/gcc/arm-none-eabi/4.8.2/../../../arm-none-eabi/lib/armv7-m/libg.a(lib_a-fclose.o)
_fflush_r                                         /usr/lib/gcc/arm-none-eabi/4.8.2/../../../arm-none-eabi/lib/armv7-m/libg.a(lib_a-fflush.o)
                                                  /usr/lib/gcc/arm-none-eabi/4.8.2/../../../arm-none-eabi/lib/armv7-m/libg.a(lib_a-wbuf.o)
                                                  /usr/lib/gcc/arm-none-eabi/4.8.2/../../../arm-none-eabi/lib/armv7-m/libg.a(lib_a-fclose.o)
                                                  /usr/lib/gcc/arm-none-eabi/4.8.2/../../../arm-none-eabi/lib/armv7-m/libg.a(lib_a-vfiprintf.o)
                                                  /usr/lib/gcc/arm-none-eabi/4.8.2/../../../arm-none-eabi/lib/armv7-m/libg.a(lib_a-fvwrite.o)
                                                  /usr/lib/gcc/arm-none-eabi/4.8.2/../../../arm-none-eabi/lib/armv7-m/libg.a(lib_a-vfprintf.o)
_fputwc_r                                         /usr/lib/gcc/arm-none-eabi/4.8.2/../../../arm-none-eabi/lib/armv7-m/libg.a(lib_a-fputwc.o)
                                                  /usr/lib/gcc/arm-none-eabi/4.8.2/../../../arm-none-eabi/lib/armv7-m/libg.a(lib_a-vfiprintf.o)
_free_r                                           /usr/lib/gcc/arm-none-eabi/4.8.2/../../../arm-none-eabi/lib/armv7-m/libg.a(lib_a-freer.o)
                                                  /usr/lib/gcc/arm-none-eabi/4.8.2/../../../arm-none-eabi/lib/armv7-m/libg.a(lib_a-reent.o)
                                                  /usr/lib/gcc/arm-none-eabi/4.8.2/../../../arm-none-eabi/lib/armv7-m/libg.a(lib_a-fclose.o)
                                                  /usr/lib/gcc/arm-none-eabi/4.8.2/../../../arm-none-eabi/lib/armv7-m/libg.a(lib_a-reallocr.o)
                                                  /usr/lib/gcc/arm-none-eabi/4.8.2/../../../arm-none-eabi/lib/armv7-m/libg.a(lib_a-mallocr.o)
                                                  /usr/lib/gcc/arm-none-eabi/4.8.2/../../../arm-none-eabi/lib/armv7-m/libg.a(lib_a-fvwrite.o)
                                                  /usr/lib/gcc/arm-none-eabi/4.8.2/../../../arm-none-eabi/lib/armv7-m/libg.a(lib_a-fflush.o)
                                                  /usr/lib/gcc/arm-none-eabi/4.8.2/../../../arm-none-eabi/lib/armv7-m/libg.a(lib_a-wsetup.o)
_fstat                                            /tmp/ccVQAlBU.o
                                                  /usr/lib/gcc/arm-none-eabi/4.8.2/../../../arm-none-eabi/lib/armv7-m/libg.a(lib_a-fstatr.o)
_fstat_r                                          /usr/lib/gcc/arm-none-eabi/4.8.2/../../../arm-none-eabi/lib/armv7-m/libg.a(lib_a-fstatr.o)
                                                  /usr/lib/gcc/arm-none-eabi/4.8.2/../../../arm-none-eabi/lib/armv7-m/libg.a(lib_a-makebuf.o)
_fwalk                                            /usr/lib/gcc/arm-none-eabi/4.8.2/../../../arm-none-eabi/lib/armv7-m/libg.a(lib_a-fwalk.o)
                                                  /usr/lib/gcc/arm-none-eabi/4.8.2/../../../arm-none-eabi/lib/armv7-m/libg.a(lib_a-findfp.o)
_fwalk_reent                                      /usr/lib/gcc/arm-none-eabi/4.8.2/../../../arm-none-eabi/lib/armv7-m/libg.a(lib_a-fwalk.o)
                                                  /usr/lib/gcc/arm-none-eabi/4.8.2/../../../arm-none-eabi/lib/armv7-m/libg.a(lib_a-fflush.o)
_getpid                                           /tmp/ccVQAlBU.o
_global_impure_ptr                                /usr/lib/gcc/arm-none-eabi/4.8.2/../../../arm-none-eabi/lib/armv7-m/libg.a(lib_a-impure.o)
                                                  /usr/lib/gcc/arm-none-eabi/4.8.2/../../../arm-none-eabi/lib/armv7-m/libg.a(lib_a-findfp.o)
                                                  /usr/lib/gcc/arm-none-eabi/4.8.2/../../../arm-none-eabi/lib/armv7-m/libg.a(lib_a-fflush.o)
_impure_ptr                                       /usr/lib/gcc/arm-none-eabi/4.8.2/../../../arm-none-eabi/lib/armv7-m/libg.a(lib_a-impure.o)
                                                  /usr/lib/gcc/arm-none-eabi/4.8.2/../../../arm-none-eabi/lib/armv7-m/libg.a(lib_a-wcrtomb.o)
                                                  /usr/lib/gcc/arm-none-eabi/4.8.2/../../../arm-none-eabi/lib/armv7-m/libg.a(lib_a-wbuf.o)
                                                  /usr/lib/gcc/arm-none-eabi/4.8.2/../../../arm-none-eabi/lib/armv7-m/libg.a(lib_a-reent.o)
                                                  /usr/lib/gcc/arm-none-eabi/4.8.2/../../../arm-none-eabi/lib/armv7-m/libg.a(lib_a-fputwc.o)
                                                  /usr/lib/gcc/arm-none-eabi/4.8.2/../../../arm-none-eabi/lib/armv7-m/libg.a(lib_a-fclose.o)
                                                  /usr/lib/gcc/arm-none-eabi/4.8.2/../../../arm-none-eabi/lib/armv7-m/libg.a(lib_a-vfiprintf.o)
                                                  /usr/lib/gcc/arm-none-eabi/4.8.2/../../../arm-none-eabi/lib/armv7-m/libg.a(lib_a-locale.o)
                                                  /usr/lib/gcc/arm-none-eabi/4.8.2/../../../arm-none-eabi/lib/armv7-m/libg.a(lib_a-findfp.o)
                                                  /usr/lib/gcc/arm-none-eabi/4.8.2/../../../arm-none-eabi/lib/armv7-m/libg.a(lib_a-fflush.o)
                                                  /usr/lib/gcc/arm-none-eabi/4.8.2/../../../arm-none-eabi/lib/armv7-m/libg.a(lib_a-wsetup.o)
                                                  /usr/lib/gcc/arm-none-eabi/4.8.2/../../../arm-none-eabi/lib/armv7-m/libg.a(lib_a-vfprintf.o)
                                                  /usr/lib/gcc/arm-none-eabi/4.8.2/../../../arm-none-eabi/lib/armv7-m/libg.a(lib_a-puts.o)
                                                  /usr/lib/gcc/arm-none-eabi/4.8.2/../../../arm-none-eabi/lib/armv7-m/libg.a(lib_a-printf.o)
_isatty                                           /tmp/ccVQAlBU.o
                                                  /usr/lib/gcc/arm-none-eabi/4.8.2/../../../arm-none-eabi/lib/armv7-m/libg.a(lib_a-isattyr.o)
_isatty_r                                         /usr/lib/gcc/arm-none-eabi/4.8.2/../../../arm-none-eabi/lib/armv7-m/libg.a(lib_a-isattyr.o)
                                                  /usr/lib/gcc/arm-none-eabi/4.8.2/../../../arm-none-eabi/lib/armv7-m/libg.a(lib_a-makebuf.o)
_kill                                             /tmp/ccVQAlBU.o
_localeconv_r                                     /usr/lib/gcc/arm-none-eabi/4.8.2/../../../arm-none-eabi/lib/armv7-m/libg.a(lib_a-locale.o)
                                                  /usr/lib/gcc/arm-none-eabi/4.8.2/../../../arm-none-eabi/lib/armv7-m/libg.a(lib_a-vfprintf.o)
_lseek                                            /tmp/ccVQAlBU.o
                                                  /usr/lib/gcc/arm-none-eabi/4.8.2/../../../arm-none-eabi/lib/armv7-m/libg.a(lib_a-lseekr.o)
_lseek_r                                          /usr/lib/gcc/arm-none-eabi/4.8.2/../../../arm-none-eabi/lib/armv7-m/libg.a(lib_a-lseekr.o)
                                                  /usr/lib/gcc/arm-none-eabi/4.8.2/../../../arm-none-eabi/lib/armv7-m/libg.a(lib_a-stdio.o)
_malloc_r                                         /usr/lib/gcc/arm-none-eabi/4.8.2/../../../arm-none-eabi/lib/armv7-m/libg.a(lib_a-mallocr.o)
                                                  /usr/lib/gcc/arm-none-eabi/4.8.2/../../../arm-none-eabi/lib/armv7-m/libg.a(lib_a-callocr.o)
                                                  /usr/lib/gcc/arm-none-eabi/4.8.2/../../../arm-none-eabi/lib/armv7-m/libg.a(lib_a-reallocr.o)
                                                  /usr/lib/gcc/arm-none-eabi/4.8.2/../../../arm-none-eabi/lib/armv7-m/libg.a(lib_a-makebuf.o)
                                                  /usr/lib/gcc/arm-none-eabi/4.8.2/../../../arm-none-eabi/lib/armv7-m/libg.a(lib_a-fvwrite.o)
                                                  /usr/lib/gcc/arm-none-eabi/4.8.2/../../../arm-none-eabi/lib/armv7-m/libg.a(lib_a-findfp.o)
_malloc_trim_r                                    /usr/lib/gcc/arm-none-eabi/4.8.2/../../../arm-none-eabi/lib/armv7-m/libg.a(lib_a-freer.o)
_mprec_log10                                      /usr/lib/gcc/arm-none-eabi/4.8.2/../../../arm-none-eabi/lib/armv7-m/libg.a(lib_a-mprec.o)
_printf_r                                         /usr/lib/gcc/arm-none-eabi/4.8.2/../../../arm-none-eabi/lib/armv7-m/libg.a(lib_a-printf.o)
_puts_r                                           /usr/lib/gcc/arm-none-eabi/4.8.2/../../../arm-none-eabi/lib/armv7-m/libg.a(lib_a-puts.o)
_read                                             /tmp/ccVQAlBU.o
                                                  /usr/lib/gcc/arm-none-eabi/4.8.2/../../../arm-none-eabi/lib/armv7-m/libg.a(lib_a-readr.o)
_read_r                                           /usr/lib/gcc/arm-none-eabi/4.8.2/../../../arm-none-eabi/lib/armv7-m/libg.a(lib_a-readr.o)
                                                  /usr/lib/gcc/arm-none-eabi/4.8.2/../../../arm-none-eabi/lib/armv7-m/libg.a(lib_a-stdio.o)
_realloc_r                                        /usr/lib/gcc/arm-none-eabi/4.8.2/../../../arm-none-eabi/lib/armv7-m/libg.a(lib_a-reallocr.o)
                                                  /usr/lib/gcc/arm-none-eabi/4.8.2/../../../arm-none-eabi/lib/armv7-m/libg.a(lib_a-fvwrite.o)
_reclaim_reent                                    /usr/lib/gcc/arm-none-eabi/4.8.2/../../../arm-none-eabi/lib/armv7-m/libg.a(lib_a-reent.o)
_sbrk                                             /tmp/ccVQAlBU.o
                                                  /usr/lib/gcc/arm-none-eabi/4.8.2/../../../arm-none-eabi/lib/armv7-m/libg.a(lib_a-sbrkr.o)
_sbrk_r                                           /usr/lib/gcc/arm-none-eabi/4.8.2/../../../arm-none-eabi/lib/armv7-m/libg.a(lib_a-sbrkr.o)
                                                  /usr/lib/gcc/arm-none-eabi/4.8.2/../../../arm-none-eabi/lib/armv7-m/libg.a(lib_a-mallocr.o)
                                                  /usr/lib/gcc/arm-none-eabi/4.8.2/../../../arm-none-eabi/lib/armv7-m/libg.a(lib_a-freer.o)
_sbss                                             /tmp/ccmq0gqb.o
_sdata                                            /tmp/ccmq0gqb.o
_setlocale_r                                      /usr/lib/gcc/arm-none-eabi/4.8.2/../../../arm-none-eabi/lib/armv7-m/libg.a(lib_a-locale.o)
_sidata                                           /tmp/ccmq0gqb.o
_ttywrch                                          /tmp/ccVQAlBU.o
_vfiprintf_r                                      /usr/lib/gcc/arm-none-eabi/4.8.2/../../../arm-none-eabi/lib/armv7-m/libg.a(lib_a-vfiprintf.o)
_vfprintf_r                                       /usr/lib/gcc/arm-none-eabi/4.8.2/../../../arm-none-eabi/lib/armv7-m/libg.a(lib_a-vfprintf.o)
                                                  /usr/lib/gcc/arm-none-eabi/4.8.2/../../../arm-none-eabi/lib/armv7-m/libg.a(lib_a-printf.o)
_wcrtomb_r                                        /usr/lib/gcc/arm-none-eabi/4.8.2/../../../arm-none-eabi/lib/armv7-m/libg.a(lib_a-wcrtomb.o)
                                                  /usr/lib/gcc/arm-none-eabi/4.8.2/../../../arm-none-eabi/lib/armv7-m/libg.a(lib_a-fputwc.o)
_wctomb_r                                         /usr/lib/gcc/arm-none-eabi/4.8.2/../../../arm-none-eabi/lib/armv7-m/libg.a(lib_a-wctomb_r.o)
_write                                            /tmp/ccVQAlBU.o
                                                  /usr/lib/gcc/arm-none-eabi/4.8.2/../../../arm-none-eabi/lib/armv7-m/libg.a(lib_a-writer.o)
_write_r                                          /usr/lib/gcc/arm-none-eabi/4.8.2/../../../arm-none-eabi/lib/armv7-m/libg.a(lib_a-writer.o)
                                                  /usr/lib/gcc/arm-none-eabi/4.8.2/../../../arm-none-eabi/lib/armv7-m/libg.a(lib_a-stdio.o)
cleanup_glue                                      /usr/lib/gcc/arm-none-eabi/4.8.2/../../../arm-none-eabi/lib/armv7-m/libg.a(lib_a-reent.o)
console_init                                      /tmp/cck4IXtd.o
                                                  /tmp/cci0TnCw.o
console_send_block                                /tmp/cck4IXtd.o
                                                  /tmp/ccVQAlBU.o
enet_get_link_status                              /tmp/ccOeehRB.o
enet_init                                         /tmp/ccOeehRB.o
                                                  /tmp/cci0TnCw.o
enet_process_rx_ring                              /tmp/ccOeehRB.o
                                                  /tmp/cci0TnCw.o
enet_read_phy_reg                                 /tmp/ccOeehRB.o
enet_send_udp_mcast                               /tmp/ccOeehRB.o
                                                  /tmp/cci0TnCw.o
enet_send_udp_ucast                               /tmp/ccOeehRB.o
enet_write_phy_reg                                /tmp/ccOeehRB.o
errno                                             /usr/lib/gcc/arm-none-eabi/4.8.2/../../../arm-none-eabi/lib/armv7-m/libg.a(lib_a-reent.o)
                                                  /usr/lib/gcc/arm-none-eabi/4.8.2/../../../arm-none-eabi/lib/armv7-m/libg.a(lib_a-readr.o)
                                                  /usr/lib/gcc/arm-none-eabi/4.8.2/../../../arm-none-eabi/lib/armv7-m/libg.a(lib_a-lseekr.o)
                                                  /usr/lib/gcc/arm-none-eabi/4.8.2/../../../arm-none-eabi/lib/armv7-m/libg.a(lib_a-isattyr.o)
                                                  /usr/lib/gcc/arm-none-eabi/4.8.2/../../../arm-none-eabi/lib/armv7-m/libg.a(lib_a-fstatr.o)
                                                  /usr/lib/gcc/arm-none-eabi/4.8.2/../../../arm-none-eabi/lib/armv7-m/libg.a(lib_a-closer.o)
                                                  /usr/lib/gcc/arm-none-eabi/4.8.2/../../../arm-none-eabi/lib/armv7-m/libg.a(lib_a-writer.o)
                                                  /usr/lib/gcc/arm-none-eabi/4.8.2/../../../arm-none-eabi/lib/armv7-m/libg.a(lib_a-sbrkr.o)
eth_htonl                                         /tmp/ccOeehRB.o
eth_htons                                         /tmp/ccOeehRB.o
fclose                                            /usr/lib/gcc/arm-none-eabi/4.8.2/../../../arm-none-eabi/lib/armv7-m/libg.a(lib_a-fclose.o)
                                                  /usr/lib/gcc/arm-none-eabi/4.8.2/../../../arm-none-eabi/lib/armv7-m/libg.a(lib_a-findfp.o)
fflush                                            /usr/lib/gcc/arm-none-eabi/4.8.2/../../../arm-none-eabi/lib/armv7-m/libg.a(lib_a-fflush.o)
fputc                                             /tmp/ccVQAlBU.o
fputwc                                            /usr/lib/gcc/arm-none-eabi/4.8.2/../../../arm-none-eabi/lib/armv7-m/libg.a(lib_a-fputwc.o)
g_pfnVectors                                      /tmp/ccmq0gqb.o
led2_task                                         /tmp/cci0TnCw.o
led_flash_task                                    /tmp/cci0TnCw.o
localeconv                                        /usr/lib/gcc/arm-none-eabi/4.8.2/../../../arm-none-eabi/lib/armv7-m/libg.a(lib_a-locale.o)
main                                              /tmp/cci0TnCw.o
                                                  /tmp/ccmq0gqb.o
memchr                                            /usr/lib/gcc/arm-none-eabi/4.8.2/../../../arm-none-eabi/lib/armv7-m/libg.a(lib_a-memchr-stub.o)
                                                  /usr/lib/gcc/arm-none-eabi/4.8.2/../../../arm-none-eabi/lib/armv7-m/libg.a(lib_a-vfiprintf.o)
                                                  /usr/lib/gcc/arm-none-eabi/4.8.2/../../../arm-none-eabi/lib/armv7-m/libg.a(lib_a-fvwrite.o)
                                                  /usr/lib/gcc/arm-none-eabi/4.8.2/../../../arm-none-eabi/lib/armv7-m/libg.a(lib_a-vfprintf.o)
memcpy                                            /usr/lib/gcc/arm-none-eabi/4.8.2/../../../arm-none-eabi/lib/armv7-m/libg.a(lib_a-memcpy.o)
                                                  /usr/lib/gcc/arm-none-eabi/4.8.2/../../../arm-none-eabi/lib/armv7-m/libg.a(lib_a-mprec.o)
                                                  /usr/lib/gcc/arm-none-eabi/4.8.2/../../../arm-none-eabi/lib/armv7-m/libg.a(lib_a-fvwrite.o)
                                                  /usr/lib/gcc/arm-none-eabi/4.8.2/../../../arm-none-eabi/lib/armv7-m/libg.a(lib_a-dtoa.o)
                                                  /tmp/ccOeehRB.o
                                                  /tmp/cclQzAuq.o
memmove                                           /usr/lib/gcc/arm-none-eabi/4.8.2/../../../arm-none-eabi/lib/armv7-m/libg.a(lib_a-memmove.o)
                                                  /usr/lib/gcc/arm-none-eabi/4.8.2/../../../arm-none-eabi/lib/armv7-m/libg.a(lib_a-reallocr.o)
                                                  /usr/lib/gcc/arm-none-eabi/4.8.2/../../../arm-none-eabi/lib/armv7-m/libg.a(lib_a-fvwrite.o)
memset                                            /usr/lib/gcc/arm-none-eabi/4.8.2/../../../arm-none-eabi/lib/armv7-m/libg.a(lib_a-memset.o)
                                                  /usr/lib/gcc/arm-none-eabi/4.8.2/../../../arm-none-eabi/lib/armv7-m/libg.a(lib_a-callocr.o)
                                                  /usr/lib/gcc/arm-none-eabi/4.8.2/../../../arm-none-eabi/lib/armv7-m/libg.a(lib_a-findfp.o)
                                                  /tmp/cci0TnCw.o
                                                  /tmp/ccisHkFI.o
myTraceCreate                                     /tmp/cci0TnCw.o
                                                  /tmp/ccisHkFI.o
myTraceSwitchedIn                                 /tmp/cci0TnCw.o
                                                  /tmp/ccisHkFI.o
myTraceSwitchedOut                                /tmp/cci0TnCw.o
                                                  /tmp/ccisHkFI.o
networking_receive                                /tmp/cci0TnCw.o
networking_send                                   /tmp/cci0TnCw.o
printf                                            /usr/lib/gcc/arm-none-eabi/4.8.2/../../../arm-none-eabi/lib/armv7-m/libg.a(lib_a-printf.o)
                                                  /tmp/ccOeehRB.o
puts                                              /usr/lib/gcc/arm-none-eabi/4.8.2/../../../arm-none-eabi/lib/armv7-m/libg.a(lib_a-puts.o)
                                                  /tmp/cci0TnCw.o
                                                  /tmp/ccOeehRB.o
pvPortMalloc                                      /tmp/ccFDWphj.o
                                                  /tmp/ccisHkFI.o
                                                  /tmp/cclQzAuq.o
                                                  /tmp/ccHG3MIQ.o
pxCurrentCoRoutine                                /tmp/ccHG3MIQ.o
pxCurrentTCB                                      /tmp/ccisHkFI.o
                                                  /tmp/ccKufXV0.o
pxPortInitialiseStack                             /tmp/ccKufXV0.o
                                                  /tmp/ccisHkFI.o
setlocale                                         /usr/lib/gcc/arm-none-eabi/4.8.2/../../../arm-none-eabi/lib/armv7-m/libg.a(lib_a-locale.o)
strcmp                                            /usr/lib/gcc/arm-none-eabi/4.8.2/../../../arm-none-eabi/lib/armv7-m/libg.a(lib_a-strcmp.o)
                                                  /usr/lib/gcc/arm-none-eabi/4.8.2/../../../arm-none-eabi/lib/armv7-m/libg.a(lib_a-locale.o)
strlen                                            /usr/lib/gcc/arm-none-eabi/4.8.2/../../../arm-none-eabi/lib/armv7-m/libg.a(lib_a-strlen.o)
                                                  /usr/lib/gcc/arm-none-eabi/4.8.2/../../../arm-none-eabi/lib/armv7-m/libg.a(lib_a-vfiprintf.o)
                                                  /usr/lib/gcc/arm-none-eabi/4.8.2/../../../arm-none-eabi/lib/armv7-m/libg.a(lib_a-vfprintf.o)
                                                  /usr/lib/gcc/arm-none-eabi/4.8.2/../../../arm-none-eabi/lib/armv7-m/libg.a(lib_a-puts.o)
strncpy                                           /usr/lib/gcc/arm-none-eabi/4.8.2/../../../arm-none-eabi/lib/armv7-m/libg.a(lib_a-strncpy.o)
                                                  /tmp/ccisHkFI.o
ulKernelPriority                                  /tmp/ccKufXV0.o
uxQueueMessagesWaiting                            /tmp/cclQzAuq.o
uxQueueMessagesWaitingFromISR                     /tmp/cclQzAuq.o
uxTaskGetNumberOfTasks                            /tmp/ccisHkFI.o
uxTaskPriorityGet                                 /tmp/ccisHkFI.o
vApplicationTickHook                              /tmp/cci0TnCw.o
                                                  /tmp/ccisHkFI.o
vCoRoutineAddToDelayedList                        /tmp/ccHG3MIQ.o
vCoRoutineSchedule                                /tmp/ccHG3MIQ.o
vListInitialise                                   /tmp/cciA8gx8.o
                                                  /tmp/ccisHkFI.o
                                                  /tmp/cclQzAuq.o
                                                  /tmp/ccHG3MIQ.o
vListInitialiseItem                               /tmp/cciA8gx8.o
                                                  /tmp/ccisHkFI.o
                                                  /tmp/ccHG3MIQ.o
vListInsert                                       /tmp/cciA8gx8.o
                                                  /tmp/ccisHkFI.o
                                                  /tmp/ccHG3MIQ.o
vListInsertEnd                                    /tmp/cciA8gx8.o
                                                  /tmp/ccisHkFI.o
                                                  /tmp/ccHG3MIQ.o
vListRemove                                       /tmp/cciA8gx8.o
                                                  /tmp/ccisHkFI.o
                                                  /tmp/ccHG3MIQ.o
vPortEndScheduler                                 /tmp/ccKufXV0.o
                                                  /tmp/ccisHkFI.o
vPortEnterCritical                                /tmp/ccKufXV0.o
                                                  /tmp/ccisHkFI.o
                                                  /tmp/cclQzAuq.o
vPortExitCritical                                 /tmp/ccKufXV0.o
                                                  /tmp/ccisHkFI.o
                                                  /tmp/cclQzAuq.o
vPortFree                                         /tmp/ccFDWphj.o
                                                  /tmp/ccisHkFI.o
                                                  /tmp/cclQzAuq.o
vPortInitialiseBlocks                             /tmp/ccFDWphj.o
vPortYieldFromISR                                 /tmp/ccKufXV0.o
                                                  /tmp/ccisHkFI.o
                                                  /tmp/cclQzAuq.o
vQueueDelete                                      /tmp/cclQzAuq.o
vTaskDelay                                        /tmp/ccisHkFI.o
                                                  /tmp/cci0TnCw.o
vTaskDelayUntil                                   /tmp/ccisHkFI.o
vTaskDelete                                       /tmp/ccisHkFI.o
vTaskEndScheduler                                 /tmp/ccisHkFI.o
vTaskIncrementTick                                /tmp/ccisHkFI.o
                                                  /tmp/ccKufXV0.o
vTaskMissedYield                                  /tmp/ccisHkFI.o
                                                  /tmp/cclQzAuq.o
vTaskPlaceOnEventList                             /tmp/ccisHkFI.o
                                                  /tmp/cclQzAuq.o
vTaskPriorityDisinherit                           /tmp/ccisHkFI.o
                                                  /tmp/cclQzAuq.o
vTaskPriorityInherit                              /tmp/ccisHkFI.o
                                                  /tmp/cclQzAuq.o
vTaskPrioritySet                                  /tmp/ccisHkFI.o
vTaskResume                                       /tmp/ccisHkFI.o
vTaskSetTimeOutState                              /tmp/ccisHkFI.o
                                                  /tmp/cclQzAuq.o
vTaskStartScheduler                               /tmp/ccisHkFI.o
                                                  /tmp/cci0TnCw.o
vTaskSuspend                                      /tmp/ccisHkFI.o
vTaskSuspendAll                                   /tmp/ccisHkFI.o
                                                  /tmp/ccFDWphj.o
                                                  /tmp/cclQzAuq.o
vTaskSwitchContext                                /tmp/ccisHkFI.o
                                                  /tmp/ccKufXV0.o
vfiprintf                                         /usr/lib/gcc/arm-none-eabi/4.8.2/../../../arm-none-eabi/lib/armv7-m/libg.a(lib_a-vfiprintf.o)
vfprintf                                          /usr/lib/gcc/arm-none-eabi/4.8.2/../../../arm-none-eabi/lib/armv7-m/libg.a(lib_a-vfprintf.o)
wcrtomb                                           /usr/lib/gcc/arm-none-eabi/4.8.2/../../../arm-none-eabi/lib/armv7-m/libg.a(lib_a-wcrtomb.o)
xCoRoutineCreate                                  /tmp/ccHG3MIQ.o
xCoRoutineRemoveFromEventList                     /tmp/ccHG3MIQ.o
xPortGetFreeHeapSize                              /tmp/ccFDWphj.o
xPortStartScheduler                               /tmp/ccKufXV0.o
                                                  /tmp/ccisHkFI.o
xQueueCreateMutex                                 /tmp/cclQzAuq.o
xQueueGenericCreate                               /tmp/cclQzAuq.o
xQueueGenericReceive                              /tmp/cclQzAuq.o
xQueueGenericReset                                /tmp/cclQzAuq.o
xQueueGenericSend                                 /tmp/cclQzAuq.o
xQueueGenericSendFromISR                          /tmp/cclQzAuq.o
xQueueGetMutexHolder                              /tmp/cclQzAuq.o
xQueueIsQueueEmptyFromISR                         /tmp/cclQzAuq.o
xQueueIsQueueFullFromISR                          /tmp/cclQzAuq.o
xQueueReceiveFromISR                              /tmp/cclQzAuq.o
xTaskCheckForTimeOut                              /tmp/ccisHkFI.o
                                                  /tmp/cclQzAuq.o
xTaskGenericCreate                                /tmp/ccisHkFI.o
                                                  /tmp/cci0TnCw.o
xTaskGetCurrentTaskHandle                         /tmp/ccisHkFI.o
                                                  /tmp/cclQzAuq.o
xTaskGetTickCount                                 /tmp/ccisHkFI.o
                                                  /tmp/ccHG3MIQ.o
xTaskGetTickCountFromISR                          /tmp/ccisHkFI.o
xTaskIsTaskSuspended                              /tmp/ccisHkFI.o
xTaskRemoveFromEventList                          /tmp/ccisHkFI.o
                                                  /tmp/cclQzAuq.o
xTaskResumeAll                                    /tmp/ccisHkFI.o
                                                  /tmp/ccFDWphj.o
                                                  /tmp/cclQzAuq.o
xTaskResumeFromISR                                /tmp/ccisHkFI.o
