Archive member included because of file (symbol)

/usr/lib/gcc/arm-none-eabi/4.8.2/../../../arm-none-eabi/lib/armv7-m/libg.a(lib_a-memcpy.o)
                              /tmp/ccfsXes7.o (memcpy)
/usr/lib/gcc/arm-none-eabi/4.8.2/../../../arm-none-eabi/lib/armv7-m/libg.a(lib_a-memset.o)
                              /tmp/ccwLsclw.o (memset)
/usr/lib/gcc/arm-none-eabi/4.8.2/../../../arm-none-eabi/lib/armv7-m/libg.a(lib_a-printf.o)
                              /tmp/cc7LKoKJ.o (printf)
/usr/lib/gcc/arm-none-eabi/4.8.2/../../../arm-none-eabi/lib/armv7-m/libg.a(lib_a-puts.o)
                              /tmp/cc7LKoKJ.o (puts)
/usr/lib/gcc/arm-none-eabi/4.8.2/../../../arm-none-eabi/lib/armv7-m/libg.a(lib_a-strlen.o)
                              /usr/lib/gcc/arm-none-eabi/4.8.2/../../../arm-none-eabi/lib/armv7-m/libg.a(lib_a-puts.o) (strlen)
/usr/lib/gcc/arm-none-eabi/4.8.2/../../../arm-none-eabi/lib/armv7-m/libg.a(lib_a-strncpy.o)
                              /tmp/ccwLsclw.o (strncpy)
/usr/lib/gcc/arm-none-eabi/4.8.2/../../../arm-none-eabi/lib/armv7-m/libg.a(lib_a-vfprintf.o)
                              /usr/lib/gcc/arm-none-eabi/4.8.2/../../../arm-none-eabi/lib/armv7-m/libg.a(lib_a-printf.o) (_vfprintf_r)
/usr/lib/gcc/arm-none-eabi/4.8.2/../../../arm-none-eabi/lib/armv7-m/libg.a(lib_a-wsetup.o)
                              /usr/lib/gcc/arm-none-eabi/4.8.2/../../../arm-none-eabi/lib/armv7-m/libg.a(lib_a-vfprintf.o) (__swsetup_r)
/usr/lib/gcc/arm-none-eabi/4.8.2/../../../arm-none-eabi/lib/armv7-m/libg.a(lib_a-dtoa.o)
                              /usr/lib/gcc/arm-none-eabi/4.8.2/../../../arm-none-eabi/lib/armv7-m/libg.a(lib_a-vfprintf.o) (_dtoa_r)
/usr/lib/gcc/arm-none-eabi/4.8.2/../../../arm-none-eabi/lib/armv7-m/libg.a(lib_a-fflush.o)
                              /usr/lib/gcc/arm-none-eabi/4.8.2/../../../arm-none-eabi/lib/armv7-m/libg.a(lib_a-vfprintf.o) (_fflush_r)
/usr/lib/gcc/arm-none-eabi/4.8.2/../../../arm-none-eabi/lib/armv7-m/libg.a(lib_a-findfp.o)
                              /usr/lib/gcc/arm-none-eabi/4.8.2/../../../arm-none-eabi/lib/armv7-m/libg.a(lib_a-vfprintf.o) (__sinit)
/usr/lib/gcc/arm-none-eabi/4.8.2/../../../arm-none-eabi/lib/armv7-m/libg.a(lib_a-freer.o)
                              /usr/lib/gcc/arm-none-eabi/4.8.2/../../../arm-none-eabi/lib/armv7-m/libg.a(lib_a-wsetup.o) (_free_r)
/usr/lib/gcc/arm-none-eabi/4.8.2/../../../arm-none-eabi/lib/armv7-m/libg.a(lib_a-fvwrite.o)
                              /usr/lib/gcc/arm-none-eabi/4.8.2/../../../arm-none-eabi/lib/armv7-m/libg.a(lib_a-puts.o) (__sfvwrite_r)
/usr/lib/gcc/arm-none-eabi/4.8.2/../../../arm-none-eabi/lib/armv7-m/libg.a(lib_a-fwalk.o)
                              /usr/lib/gcc/arm-none-eabi/4.8.2/../../../arm-none-eabi/lib/armv7-m/libg.a(lib_a-findfp.o) (_fwalk)
/usr/lib/gcc/arm-none-eabi/4.8.2/../../../arm-none-eabi/lib/armv7-m/libg.a(lib_a-impure.o)
                              /usr/lib/gcc/arm-none-eabi/4.8.2/../../../arm-none-eabi/lib/armv7-m/libg.a(lib_a-fflush.o) (_global_impure_ptr)
/usr/lib/gcc/arm-none-eabi/4.8.2/../../../arm-none-eabi/lib/armv7-m/libg.a(lib_a-locale.o)
                              /usr/lib/gcc/arm-none-eabi/4.8.2/../../../arm-none-eabi/lib/armv7-m/libg.a(lib_a-vfprintf.o) (_localeconv_r)
/usr/lib/gcc/arm-none-eabi/4.8.2/../../../arm-none-eabi/lib/armv7-m/libg.a(lib_a-makebuf.o)
                              /usr/lib/gcc/arm-none-eabi/4.8.2/../../../arm-none-eabi/lib/armv7-m/libg.a(lib_a-wsetup.o) (__smakebuf_r)
/usr/lib/gcc/arm-none-eabi/4.8.2/../../../arm-none-eabi/lib/armv7-m/libg.a(lib_a-mallocr.o)
                              /usr/lib/gcc/arm-none-eabi/4.8.2/../../../arm-none-eabi/lib/armv7-m/libg.a(lib_a-findfp.o) (_malloc_r)
/usr/lib/gcc/arm-none-eabi/4.8.2/../../../arm-none-eabi/lib/armv7-m/libg.a(lib_a-memchr-stub.o)
                              /usr/lib/gcc/arm-none-eabi/4.8.2/../../../arm-none-eabi/lib/armv7-m/libg.a(lib_a-vfprintf.o) (memchr)
/usr/lib/gcc/arm-none-eabi/4.8.2/../../../arm-none-eabi/lib/armv7-m/libg.a(lib_a-memmove.o)
                              /usr/lib/gcc/arm-none-eabi/4.8.2/../../../arm-none-eabi/lib/armv7-m/libg.a(lib_a-fvwrite.o) (memmove)
/usr/lib/gcc/arm-none-eabi/4.8.2/../../../arm-none-eabi/lib/armv7-m/libg.a(lib_a-mlock.o)
                              /usr/lib/gcc/arm-none-eabi/4.8.2/../../../arm-none-eabi/lib/armv7-m/libg.a(lib_a-freer.o) (__malloc_lock)
/usr/lib/gcc/arm-none-eabi/4.8.2/../../../arm-none-eabi/lib/armv7-m/libg.a(lib_a-mprec.o)
                              /usr/lib/gcc/arm-none-eabi/4.8.2/../../../arm-none-eabi/lib/armv7-m/libg.a(lib_a-dtoa.o) (_Balloc)
/usr/lib/gcc/arm-none-eabi/4.8.2/../../../arm-none-eabi/lib/armv7-m/libg.a(lib_a-reallocr.o)
                              /usr/lib/gcc/arm-none-eabi/4.8.2/../../../arm-none-eabi/lib/armv7-m/libg.a(lib_a-fvwrite.o) (_realloc_r)
/usr/lib/gcc/arm-none-eabi/4.8.2/../../../arm-none-eabi/lib/armv7-m/libg.a(lib_a-s_fpclassify.o)
                              /usr/lib/gcc/arm-none-eabi/4.8.2/../../../arm-none-eabi/lib/armv7-m/libg.a(lib_a-vfprintf.o) (__fpclassifyd)
/usr/lib/gcc/arm-none-eabi/4.8.2/../../../arm-none-eabi/lib/armv7-m/libg.a(lib_a-sbrkr.o)
                              /usr/lib/gcc/arm-none-eabi/4.8.2/../../../arm-none-eabi/lib/armv7-m/libg.a(lib_a-freer.o) (_sbrk_r)
/usr/lib/gcc/arm-none-eabi/4.8.2/../../../arm-none-eabi/lib/armv7-m/libg.a(lib_a-stdio.o)
                              /usr/lib/gcc/arm-none-eabi/4.8.2/../../../arm-none-eabi/lib/armv7-m/libg.a(lib_a-findfp.o) (__sread)
/usr/lib/gcc/arm-none-eabi/4.8.2/../../../arm-none-eabi/lib/armv7-m/libg.a(lib_a-strcmp.o)
                              /usr/lib/gcc/arm-none-eabi/4.8.2/../../../arm-none-eabi/lib/armv7-m/libg.a(lib_a-locale.o) (strcmp)
/usr/lib/gcc/arm-none-eabi/4.8.2/../../../arm-none-eabi/lib/armv7-m/libg.a(lib_a-vfiprintf.o)
                              /usr/lib/gcc/arm-none-eabi/4.8.2/../../../arm-none-eabi/lib/armv7-m/libg.a(lib_a-vfprintf.o) (__sprint_r)
/usr/lib/gcc/arm-none-eabi/4.8.2/../../../arm-none-eabi/lib/armv7-m/libg.a(lib_a-writer.o)
                              /usr/lib/gcc/arm-none-eabi/4.8.2/../../../arm-none-eabi/lib/armv7-m/libg.a(lib_a-stdio.o) (_write_r)
/usr/lib/gcc/arm-none-eabi/4.8.2/../../../arm-none-eabi/lib/armv7-m/libg.a(lib_a-callocr.o)
                              /usr/lib/gcc/arm-none-eabi/4.8.2/../../../arm-none-eabi/lib/armv7-m/libg.a(lib_a-mprec.o) (_calloc_r)
/usr/lib/gcc/arm-none-eabi/4.8.2/../../../arm-none-eabi/lib/armv7-m/libg.a(lib_a-closer.o)
                              /usr/lib/gcc/arm-none-eabi/4.8.2/../../../arm-none-eabi/lib/armv7-m/libg.a(lib_a-stdio.o) (_close_r)
/usr/lib/gcc/arm-none-eabi/4.8.2/../../../arm-none-eabi/lib/armv7-m/libg.a(lib_a-fclose.o)
                              /usr/lib/gcc/arm-none-eabi/4.8.2/../../../arm-none-eabi/lib/armv7-m/libg.a(lib_a-findfp.o) (fclose)
/usr/lib/gcc/arm-none-eabi/4.8.2/../../../arm-none-eabi/lib/armv7-m/libg.a(lib_a-fputwc.o)
                              /usr/lib/gcc/arm-none-eabi/4.8.2/../../../arm-none-eabi/lib/armv7-m/libg.a(lib_a-vfiprintf.o) (_fputwc_r)
/usr/lib/gcc/arm-none-eabi/4.8.2/../../../arm-none-eabi/lib/armv7-m/libg.a(lib_a-fstatr.o)
                              /usr/lib/gcc/arm-none-eabi/4.8.2/../../../arm-none-eabi/lib/armv7-m/libg.a(lib_a-makebuf.o) (_fstat_r)
/usr/lib/gcc/arm-none-eabi/4.8.2/../../../arm-none-eabi/lib/armv7-m/libg.a(lib_a-isattyr.o)
                              /usr/lib/gcc/arm-none-eabi/4.8.2/../../../arm-none-eabi/lib/armv7-m/libg.a(lib_a-makebuf.o) (_isatty_r)
/usr/lib/gcc/arm-none-eabi/4.8.2/../../../arm-none-eabi/lib/armv7-m/libg.a(lib_a-lseekr.o)
                              /usr/lib/gcc/arm-none-eabi/4.8.2/../../../arm-none-eabi/lib/armv7-m/libg.a(lib_a-stdio.o) (_lseek_r)
/usr/lib/gcc/arm-none-eabi/4.8.2/../../../arm-none-eabi/lib/armv7-m/libg.a(lib_a-readr.o)
                              /usr/lib/gcc/arm-none-eabi/4.8.2/../../../arm-none-eabi/lib/armv7-m/libg.a(lib_a-stdio.o) (_read_r)
/usr/lib/gcc/arm-none-eabi/4.8.2/../../../arm-none-eabi/lib/armv7-m/libg.a(lib_a-reent.o)
                              /usr/lib/gcc/arm-none-eabi/4.8.2/../../../arm-none-eabi/lib/armv7-m/libg.a(lib_a-sbrkr.o) (errno)
/usr/lib/gcc/arm-none-eabi/4.8.2/../../../arm-none-eabi/lib/armv7-m/libg.a(lib_a-wbuf.o)
                              /usr/lib/gcc/arm-none-eabi/4.8.2/../../../arm-none-eabi/lib/armv7-m/libg.a(lib_a-fputwc.o) (__swbuf_r)
/usr/lib/gcc/arm-none-eabi/4.8.2/../../../arm-none-eabi/lib/armv7-m/libg.a(lib_a-wcrtomb.o)
                              /usr/lib/gcc/arm-none-eabi/4.8.2/../../../arm-none-eabi/lib/armv7-m/libg.a(lib_a-fputwc.o) (_wcrtomb_r)
/usr/lib/gcc/arm-none-eabi/4.8.2/../../../arm-none-eabi/lib/armv7-m/libg.a(lib_a-wctomb_r.o)
                              /usr/lib/gcc/arm-none-eabi/4.8.2/../../../arm-none-eabi/lib/armv7-m/libg.a(lib_a-wcrtomb.o) (__wctomb)
/usr/lib/gcc/arm-none-eabi/4.8.2/armv7-m/libgcc.a(_arm_addsubdf3.o)
                              /usr/lib/gcc/arm-none-eabi/4.8.2/../../../arm-none-eabi/lib/armv7-m/libg.a(lib_a-dtoa.o) (__aeabi_dsub)
/usr/lib/gcc/arm-none-eabi/4.8.2/armv7-m/libgcc.a(_arm_muldivdf3.o)
                              /usr/lib/gcc/arm-none-eabi/4.8.2/../../../arm-none-eabi/lib/armv7-m/libg.a(lib_a-dtoa.o) (__aeabi_dmul)
/usr/lib/gcc/arm-none-eabi/4.8.2/armv7-m/libgcc.a(_arm_cmpdf2.o)
                              /usr/lib/gcc/arm-none-eabi/4.8.2/../../../arm-none-eabi/lib/armv7-m/libg.a(lib_a-vfprintf.o) (__aeabi_dcmpeq)
/usr/lib/gcc/arm-none-eabi/4.8.2/armv7-m/libgcc.a(_arm_fixdfsi.o)
                              /usr/lib/gcc/arm-none-eabi/4.8.2/../../../arm-none-eabi/lib/armv7-m/libg.a(lib_a-dtoa.o) (__aeabi_d2iz)
/usr/lib/gcc/arm-none-eabi/4.8.2/armv7-m/libgcc.a(_aeabi_uldivmod.o)
                              /usr/lib/gcc/arm-none-eabi/4.8.2/../../../arm-none-eabi/lib/armv7-m/libg.a(lib_a-vfprintf.o) (__aeabi_uldivmod)
/usr/lib/gcc/arm-none-eabi/4.8.2/armv7-m/libgcc.a(bpabi.o)
                              /usr/lib/gcc/arm-none-eabi/4.8.2/armv7-m/libgcc.a(_aeabi_uldivmod.o) (__gnu_uldivmod_helper)
/usr/lib/gcc/arm-none-eabi/4.8.2/armv7-m/libgcc.a(_dvmd_tls.o)
                              /usr/lib/gcc/arm-none-eabi/4.8.2/armv7-m/libgcc.a(_aeabi_uldivmod.o) (__aeabi_ldiv0)
/usr/lib/gcc/arm-none-eabi/4.8.2/armv7-m/libgcc.a(_divdi3.o)
                              /usr/lib/gcc/arm-none-eabi/4.8.2/armv7-m/libgcc.a(bpabi.o) (__divdi3)
/usr/lib/gcc/arm-none-eabi/4.8.2/armv7-m/libgcc.a(_udivdi3.o)
                              /usr/lib/gcc/arm-none-eabi/4.8.2/armv7-m/libgcc.a(bpabi.o) (__udivdi3)

Allocating common symbols
Common symbol       size              file

errno               0x4               /usr/lib/gcc/arm-none-eabi/4.8.2/../../../arm-none-eabi/lib/armv7-m/libg.a(lib_a-reent.o)

Discarded input sections

 .group         0x0000000000000000        0x8 /tmp/ccYeW5MD.o
 .group         0x0000000000000000        0x8 /tmp/ccYeW5MD.o
 .group         0x0000000000000000        0x8 /tmp/ccYeW5MD.o
 .group         0x0000000000000000        0x8 /tmp/ccYeW5MD.o
 .group         0x0000000000000000        0x8 /tmp/ccYeW5MD.o
 .group         0x0000000000000000        0x8 /tmp/ccYeW5MD.o
 .group         0x0000000000000000        0x8 /tmp/ccYeW5MD.o
 .group         0x0000000000000000        0x8 /tmp/ccYeW5MD.o
 .group         0x0000000000000000        0x8 /tmp/ccYeW5MD.o
 .group         0x0000000000000000        0x8 /tmp/ccYeW5MD.o
 .group         0x0000000000000000        0x8 /tmp/ccfKhGdo.o
 .group         0x0000000000000000        0x8 /tmp/ccfKhGdo.o
 .group         0x0000000000000000        0x8 /tmp/ccfKhGdo.o
 .group         0x0000000000000000        0x8 /tmp/ccfKhGdo.o
 .group         0x0000000000000000        0x8 /tmp/ccfKhGdo.o
 .group         0x0000000000000000        0x8 /tmp/ccfKhGdo.o
 .group         0x0000000000000000        0x8 /tmp/ccfKhGdo.o
 .group         0x0000000000000000        0x8 /tmp/ccfKhGdo.o
 .group         0x0000000000000000        0x8 /tmp/ccfKhGdo.o
 .group         0x0000000000000000        0x8 /tmp/ccfKhGdo.o
 .group         0x0000000000000000        0x8 /tmp/ccfKhGdo.o
 .debug_macro   0x0000000000000000      0x844 /tmp/ccfKhGdo.o
 .debug_macro   0x0000000000000000       0x63 /tmp/ccfKhGdo.o
 .debug_macro   0x0000000000000000       0x3b /tmp/ccfKhGdo.o
 .debug_macro   0x0000000000000000       0x16 /tmp/ccfKhGdo.o
 .debug_macro   0x0000000000000000       0x44 /tmp/ccfKhGdo.o
 .debug_macro   0x0000000000000000      0x209 /tmp/ccfKhGdo.o
 .debug_macro   0x0000000000000000       0x18 /tmp/ccfKhGdo.o
 .debug_macro   0x0000000000000000       0x42 /tmp/ccfKhGdo.o
 .debug_macro   0x0000000000000000      0xd39 /tmp/ccfKhGdo.o
 .debug_macro   0x0000000000000000     0x8264 /tmp/ccfKhGdo.o
 .group         0x0000000000000000        0x8 /tmp/ccdQTPML.o
 .group         0x0000000000000000        0x8 /tmp/ccdQTPML.o
 .group         0x0000000000000000        0x8 /tmp/ccdQTPML.o
 .group         0x0000000000000000        0x8 /tmp/ccdQTPML.o
 .group         0x0000000000000000        0x8 /tmp/ccdQTPML.o
 .group         0x0000000000000000        0x8 /tmp/ccdQTPML.o
 .group         0x0000000000000000        0x8 /tmp/ccdQTPML.o
 .group         0x0000000000000000        0x8 /tmp/ccdQTPML.o
 .group         0x0000000000000000        0x8 /tmp/ccdQTPML.o
 .group         0x0000000000000000        0x8 /tmp/ccdQTPML.o
 .group         0x0000000000000000        0x8 /tmp/ccdQTPML.o
 .group         0x0000000000000000        0x8 /tmp/ccdQTPML.o
 .debug_macro   0x0000000000000000      0x844 /tmp/ccdQTPML.o
 .debug_macro   0x0000000000000000       0x63 /tmp/ccdQTPML.o
 .debug_macro   0x0000000000000000       0x3b /tmp/ccdQTPML.o
 .debug_macro   0x0000000000000000       0x16 /tmp/ccdQTPML.o
 .debug_macro   0x0000000000000000       0x44 /tmp/ccdQTPML.o
 .debug_macro   0x0000000000000000      0x209 /tmp/ccdQTPML.o
 .debug_macro   0x0000000000000000       0x18 /tmp/ccdQTPML.o
 .debug_macro   0x0000000000000000       0x42 /tmp/ccdQTPML.o
 .debug_macro   0x0000000000000000      0xd39 /tmp/ccdQTPML.o
 .debug_macro   0x0000000000000000     0x8264 /tmp/ccdQTPML.o
 .group         0x0000000000000000        0x8 /tmp/ccvbLNB9.o
 .group         0x0000000000000000        0x8 /tmp/ccvbLNB9.o
 .group         0x0000000000000000        0x8 /tmp/ccvbLNB9.o
 .group         0x0000000000000000        0x8 /tmp/ccvbLNB9.o
 .group         0x0000000000000000        0x8 /tmp/ccvbLNB9.o
 .group         0x0000000000000000        0x8 /tmp/ccvbLNB9.o
 .group         0x0000000000000000        0x8 /tmp/ccvbLNB9.o
 .group         0x0000000000000000        0x8 /tmp/ccvbLNB9.o
 .group         0x0000000000000000        0x8 /tmp/ccvbLNB9.o
 .group         0x0000000000000000        0x8 /tmp/ccvbLNB9.o
 .group         0x0000000000000000        0x8 /tmp/ccvbLNB9.o
 .group         0x0000000000000000        0x8 /tmp/ccvbLNB9.o
 .debug_macro   0x0000000000000000      0x844 /tmp/ccvbLNB9.o
 .debug_macro   0x0000000000000000       0x63 /tmp/ccvbLNB9.o
 .debug_macro   0x0000000000000000       0x3b /tmp/ccvbLNB9.o
 .debug_macro   0x0000000000000000       0x16 /tmp/ccvbLNB9.o
 .debug_macro   0x0000000000000000       0x44 /tmp/ccvbLNB9.o
 .debug_macro   0x0000000000000000      0x209 /tmp/ccvbLNB9.o
 .debug_macro   0x0000000000000000       0x18 /tmp/ccvbLNB9.o
 .debug_macro   0x0000000000000000       0x42 /tmp/ccvbLNB9.o
 .debug_macro   0x0000000000000000      0xd39 /tmp/ccvbLNB9.o
 .debug_macro   0x0000000000000000     0x8264 /tmp/ccvbLNB9.o
 .debug_macro   0x0000000000000000      0x57c /tmp/ccvbLNB9.o
 .group         0x0000000000000000        0x8 /tmp/ccYMHmDx.o
 .group         0x0000000000000000        0x8 /tmp/ccYMHmDx.o
 .group         0x0000000000000000        0x8 /tmp/ccYMHmDx.o
 .group         0x0000000000000000        0x8 /tmp/ccYMHmDx.o
 .group         0x0000000000000000        0x8 /tmp/ccYMHmDx.o
 .group         0x0000000000000000        0x8 /tmp/ccYMHmDx.o
 .group         0x0000000000000000        0x8 /tmp/ccYMHmDx.o
 .group         0x0000000000000000        0x8 /tmp/ccYMHmDx.o
 .group         0x0000000000000000        0x8 /tmp/ccYMHmDx.o
 .group         0x0000000000000000        0x8 /tmp/ccYMHmDx.o
 .group         0x0000000000000000        0x8 /tmp/ccYMHmDx.o
 .debug_macro   0x0000000000000000      0x844 /tmp/ccYMHmDx.o
 .debug_macro   0x0000000000000000       0x63 /tmp/ccYMHmDx.o
 .debug_macro   0x0000000000000000       0x3b /tmp/ccYMHmDx.o
 .debug_macro   0x0000000000000000       0x16 /tmp/ccYMHmDx.o
 .debug_macro   0x0000000000000000       0x44 /tmp/ccYMHmDx.o
 .debug_macro   0x0000000000000000      0x209 /tmp/ccYMHmDx.o
 .debug_macro   0x0000000000000000       0x18 /tmp/ccYMHmDx.o
 .debug_macro   0x0000000000000000       0x42 /tmp/ccYMHmDx.o
 .debug_macro   0x0000000000000000      0xd39 /tmp/ccYMHmDx.o
 .debug_macro   0x0000000000000000     0x8264 /tmp/ccYMHmDx.o
 .group         0x0000000000000000        0x8 /tmp/ccgr0JQV.o
 .group         0x0000000000000000        0x8 /tmp/ccgr0JQV.o
 .group         0x0000000000000000        0x8 /tmp/ccgr0JQV.o
 .group         0x0000000000000000        0x8 /tmp/ccgr0JQV.o
 .group         0x0000000000000000        0x8 /tmp/ccgr0JQV.o
 .group         0x0000000000000000        0x8 /tmp/ccgr0JQV.o
 .group         0x0000000000000000        0x8 /tmp/ccgr0JQV.o
 .group         0x0000000000000000        0x8 /tmp/ccgr0JQV.o
 .group         0x0000000000000000        0x8 /tmp/ccgr0JQV.o
 .group         0x0000000000000000        0x8 /tmp/ccgr0JQV.o
 .group         0x0000000000000000        0x8 /tmp/ccgr0JQV.o
 .debug_macro   0x0000000000000000      0x844 /tmp/ccgr0JQV.o
 .debug_macro   0x0000000000000000       0x63 /tmp/ccgr0JQV.o
 .debug_macro   0x0000000000000000       0x3b /tmp/ccgr0JQV.o
 .debug_macro   0x0000000000000000       0x16 /tmp/ccgr0JQV.o
 .debug_macro   0x0000000000000000       0x44 /tmp/ccgr0JQV.o
 .debug_macro   0x0000000000000000      0x209 /tmp/ccgr0JQV.o
 .debug_macro   0x0000000000000000       0x18 /tmp/ccgr0JQV.o
 .debug_macro   0x0000000000000000       0x42 /tmp/ccgr0JQV.o
 .debug_macro   0x0000000000000000      0xd39 /tmp/ccgr0JQV.o
 .debug_macro   0x0000000000000000     0x8264 /tmp/ccgr0JQV.o
 .group         0x0000000000000000        0x8 /tmp/ccBXF9fk.o
 .group         0x0000000000000000        0x8 /tmp/ccBXF9fk.o
 .group         0x0000000000000000        0x8 /tmp/ccBXF9fk.o
 .group         0x0000000000000000        0x8 /tmp/ccBXF9fk.o
 .group         0x0000000000000000        0x8 /tmp/ccBXF9fk.o
 .group         0x0000000000000000        0x8 /tmp/ccBXF9fk.o
 .group         0x0000000000000000        0x8 /tmp/ccBXF9fk.o
 .group         0x0000000000000000        0x8 /tmp/ccBXF9fk.o
 .group         0x0000000000000000        0x8 /tmp/ccBXF9fk.o
 .group         0x0000000000000000        0x8 /tmp/ccBXF9fk.o
 .group         0x0000000000000000        0x8 /tmp/ccBXF9fk.o
 .debug_macro   0x0000000000000000      0x844 /tmp/ccBXF9fk.o
 .group         0x0000000000000000        0x8 /tmp/ccWTSJMI.o
 .group         0x0000000000000000        0x8 /tmp/ccWTSJMI.o
 .group         0x0000000000000000        0x8 /tmp/ccWTSJMI.o
 .group         0x0000000000000000        0x8 /tmp/ccWTSJMI.o
 .group         0x0000000000000000        0x8 /tmp/ccWTSJMI.o
 .group         0x0000000000000000        0x8 /tmp/ccWTSJMI.o
 .group         0x0000000000000000        0x8 /tmp/ccWTSJMI.o
 .group         0x0000000000000000        0x8 /tmp/ccWTSJMI.o
 .group         0x0000000000000000        0x8 /tmp/ccWTSJMI.o
 .group         0x0000000000000000        0x8 /tmp/ccWTSJMI.o
 .group         0x0000000000000000        0x8 /tmp/ccWTSJMI.o
 .group         0x0000000000000000        0x8 /tmp/ccWTSJMI.o
 .group         0x0000000000000000        0x8 /tmp/ccWTSJMI.o
 .group         0x0000000000000000        0x8 /tmp/ccWTSJMI.o
 .group         0x0000000000000000        0x8 /tmp/ccWTSJMI.o
 .group         0x0000000000000000        0x8 /tmp/ccWTSJMI.o
 .group         0x0000000000000000        0x8 /tmp/ccWTSJMI.o
 .group         0x0000000000000000        0x8 /tmp/ccWTSJMI.o
 .group         0x0000000000000000        0x8 /tmp/ccWTSJMI.o
 .group         0x0000000000000000        0x8 /tmp/ccWTSJMI.o
 .group         0x0000000000000000        0x8 /tmp/ccWTSJMI.o
 .debug_macro   0x0000000000000000      0x844 /tmp/ccWTSJMI.o
 .debug_macro   0x0000000000000000       0x16 /tmp/ccWTSJMI.o
 .debug_macro   0x0000000000000000       0x46 /tmp/ccWTSJMI.o
 .debug_macro   0x0000000000000000       0xc4 /tmp/ccWTSJMI.o
 .debug_macro   0x0000000000000000       0xa4 /tmp/ccWTSJMI.o
 .debug_macro   0x0000000000000000       0x12 /tmp/ccWTSJMI.o
 .debug_macro   0x0000000000000000       0x1f /tmp/ccWTSJMI.o
 .debug_macro   0x0000000000000000      0x1ee /tmp/ccWTSJMI.o
 .debug_macro   0x0000000000000000       0x49 /tmp/ccWTSJMI.o
 .group         0x0000000000000000        0x8 /tmp/ccfsXes7.o
 .group         0x0000000000000000        0x8 /tmp/ccfsXes7.o
 .group         0x0000000000000000        0x8 /tmp/ccfsXes7.o
 .group         0x0000000000000000        0x8 /tmp/ccfsXes7.o
 .group         0x0000000000000000        0x8 /tmp/ccfsXes7.o
 .group         0x0000000000000000        0x8 /tmp/ccfsXes7.o
 .group         0x0000000000000000        0x8 /tmp/ccfsXes7.o
 .group         0x0000000000000000        0x8 /tmp/ccfsXes7.o
 .group         0x0000000000000000        0x8 /tmp/ccfsXes7.o
 .group         0x0000000000000000        0x8 /tmp/ccfsXes7.o
 .group         0x0000000000000000        0x8 /tmp/ccfsXes7.o
 .group         0x0000000000000000        0x8 /tmp/ccfsXes7.o
 .group         0x0000000000000000        0x8 /tmp/ccfsXes7.o
 .group         0x0000000000000000        0x8 /tmp/ccfsXes7.o
 .group         0x0000000000000000        0x8 /tmp/ccfsXes7.o
 .group         0x0000000000000000        0x8 /tmp/ccfsXes7.o
 .group         0x0000000000000000        0x8 /tmp/ccfsXes7.o
 .group         0x0000000000000000        0x8 /tmp/ccfsXes7.o
 .group         0x0000000000000000        0x8 /tmp/ccfsXes7.o
 .group         0x0000000000000000        0x8 /tmp/ccfsXes7.o
 .group         0x0000000000000000        0x8 /tmp/ccfsXes7.o
 .group         0x0000000000000000        0x8 /tmp/ccfsXes7.o
 .group         0x0000000000000000        0x8 /tmp/ccfsXes7.o
 .group         0x0000000000000000        0x8 /tmp/ccfsXes7.o
 .group         0x0000000000000000        0x8 /tmp/ccfsXes7.o
 .debug_macro   0x0000000000000000      0x844 /tmp/ccfsXes7.o
 .debug_macro   0x0000000000000000       0x58 /tmp/ccfsXes7.o
 .debug_macro   0x0000000000000000       0x16 /tmp/ccfsXes7.o
 .debug_macro   0x0000000000000000       0x35 /tmp/ccfsXes7.o
 .debug_macro   0x0000000000000000       0xa3 /tmp/ccfsXes7.o
 .debug_macro   0x0000000000000000       0x16 /tmp/ccfsXes7.o
 .debug_macro   0x0000000000000000      0x10e /tmp/ccfsXes7.o
 .debug_macro   0x0000000000000000       0x7f /tmp/ccfsXes7.o
 .debug_macro   0x0000000000000000       0x4a /tmp/ccfsXes7.o
 .debug_macro   0x0000000000000000       0x52 /tmp/ccfsXes7.o
 .debug_macro   0x0000000000000000       0x16 /tmp/ccfsXes7.o
 .debug_macro   0x0000000000000000       0x43 /tmp/ccfsXes7.o
 .debug_macro   0x0000000000000000      0x180 /tmp/ccfsXes7.o
 .debug_macro   0x0000000000000000       0x22 /tmp/ccfsXes7.o
 .debug_macro   0x0000000000000000       0x46 /tmp/ccfsXes7.o
 .debug_macro   0x0000000000000000       0xc4 /tmp/ccfsXes7.o
 .debug_macro   0x0000000000000000       0xa4 /tmp/ccfsXes7.o
 .debug_macro   0x0000000000000000       0x12 /tmp/ccfsXes7.o
 .debug_macro   0x0000000000000000       0x1f /tmp/ccfsXes7.o
 .debug_macro   0x0000000000000000      0x1ee /tmp/ccfsXes7.o
 .debug_macro   0x0000000000000000       0x49 /tmp/ccfsXes7.o
 .debug_macro   0x0000000000000000       0x57 /tmp/ccfsXes7.o
 .group         0x0000000000000000        0x8 /tmp/ccwLsclw.o
 .group         0x0000000000000000        0x8 /tmp/ccwLsclw.o
 .group         0x0000000000000000        0x8 /tmp/ccwLsclw.o
 .group         0x0000000000000000        0x8 /tmp/ccwLsclw.o
 .group         0x0000000000000000        0x8 /tmp/ccwLsclw.o
 .group         0x0000000000000000        0x8 /tmp/ccwLsclw.o
 .group         0x0000000000000000        0x8 /tmp/ccwLsclw.o
 .group         0x0000000000000000        0x8 /tmp/ccwLsclw.o
 .group         0x0000000000000000        0x8 /tmp/ccwLsclw.o
 .group         0x0000000000000000        0x8 /tmp/ccwLsclw.o
 .group         0x0000000000000000        0x8 /tmp/ccwLsclw.o
 .group         0x0000000000000000        0x8 /tmp/ccwLsclw.o
 .group         0x0000000000000000        0x8 /tmp/ccwLsclw.o
 .group         0x0000000000000000        0x8 /tmp/ccwLsclw.o
 .group         0x0000000000000000        0x8 /tmp/ccwLsclw.o
 .group         0x0000000000000000        0x8 /tmp/ccwLsclw.o
 .group         0x0000000000000000        0x8 /tmp/ccwLsclw.o
 .group         0x0000000000000000        0x8 /tmp/ccwLsclw.o
 .group         0x0000000000000000        0x8 /tmp/ccwLsclw.o
 .group         0x0000000000000000        0x8 /tmp/ccwLsclw.o
 .group         0x0000000000000000        0x8 /tmp/ccwLsclw.o
 .group         0x0000000000000000        0x8 /tmp/ccwLsclw.o
 .group         0x0000000000000000        0x8 /tmp/ccwLsclw.o
 .group         0x0000000000000000        0x8 /tmp/ccwLsclw.o
 .group         0x0000000000000000        0x8 /tmp/ccwLsclw.o
 .group         0x0000000000000000        0x8 /tmp/ccwLsclw.o
 .group         0x0000000000000000        0x8 /tmp/ccwLsclw.o
 .group         0x0000000000000000        0x8 /tmp/ccwLsclw.o
 .group         0x0000000000000000        0x8 /tmp/ccwLsclw.o
 .group         0x0000000000000000        0x8 /tmp/ccwLsclw.o
 .group         0x0000000000000000        0x8 /tmp/ccwLsclw.o
 .group         0x0000000000000000        0x8 /tmp/ccwLsclw.o
 .group         0x0000000000000000        0x8 /tmp/ccwLsclw.o
 .group         0x0000000000000000        0x8 /tmp/ccwLsclw.o
 .debug_macro   0x0000000000000000      0x844 /tmp/ccwLsclw.o
 .debug_macro   0x0000000000000000       0x58 /tmp/ccwLsclw.o
 .debug_macro   0x0000000000000000       0x16 /tmp/ccwLsclw.o
 .debug_macro   0x0000000000000000       0x35 /tmp/ccwLsclw.o
 .debug_macro   0x0000000000000000       0xa3 /tmp/ccwLsclw.o
 .debug_macro   0x0000000000000000       0x4a /tmp/ccwLsclw.o
 .debug_macro   0x0000000000000000       0x52 /tmp/ccwLsclw.o
 .debug_macro   0x0000000000000000       0x16 /tmp/ccwLsclw.o
 .debug_macro   0x0000000000000000       0x43 /tmp/ccwLsclw.o
 .debug_macro   0x0000000000000000      0x180 /tmp/ccwLsclw.o
 .debug_macro   0x0000000000000000       0x16 /tmp/ccwLsclw.o
 .debug_macro   0x0000000000000000       0x35 /tmp/ccwLsclw.o
 .debug_macro   0x0000000000000000       0x22 /tmp/ccwLsclw.o
 .debug_macro   0x0000000000000000      0x2a3 /tmp/ccwLsclw.o
 .debug_macro   0x0000000000000000       0x10 /tmp/ccwLsclw.o
 .debug_macro   0x0000000000000000       0x46 /tmp/ccwLsclw.o
 .debug_macro   0x0000000000000000       0xc4 /tmp/ccwLsclw.o
 .debug_macro   0x0000000000000000       0xa4 /tmp/ccwLsclw.o
 .debug_macro   0x0000000000000000       0x12 /tmp/ccwLsclw.o
 .debug_macro   0x0000000000000000       0x1f /tmp/ccwLsclw.o
 .debug_macro   0x0000000000000000      0x1ee /tmp/ccwLsclw.o
 .debug_macro   0x0000000000000000       0x49 /tmp/ccwLsclw.o
 .debug_macro   0x0000000000000000       0x57 /tmp/ccwLsclw.o
 .group         0x0000000000000000        0x8 /tmp/ccmixTjV.o
 .group         0x0000000000000000        0x8 /tmp/ccmixTjV.o
 .group         0x0000000000000000        0x8 /tmp/ccmixTjV.o
 .group         0x0000000000000000        0x8 /tmp/ccmixTjV.o
 .group         0x0000000000000000        0x8 /tmp/ccmixTjV.o
 .group         0x0000000000000000        0x8 /tmp/ccmixTjV.o
 .group         0x0000000000000000        0x8 /tmp/ccmixTjV.o
 .group         0x0000000000000000        0x8 /tmp/ccmixTjV.o
 .group         0x0000000000000000        0x8 /tmp/ccmixTjV.o
 .group         0x0000000000000000        0x8 /tmp/ccmixTjV.o
 .debug_macro   0x0000000000000000      0x844 /tmp/ccmixTjV.o
 .debug_macro   0x0000000000000000      0x166 /tmp/ccmixTjV.o
 .debug_macro   0x0000000000000000       0x46 /tmp/ccmixTjV.o
 .debug_macro   0x0000000000000000       0xc4 /tmp/ccmixTjV.o
 .debug_macro   0x0000000000000000       0xa4 /tmp/ccmixTjV.o
 .debug_macro   0x0000000000000000       0x12 /tmp/ccmixTjV.o
 .debug_macro   0x0000000000000000       0x1f /tmp/ccmixTjV.o
 .debug_macro   0x0000000000000000      0x1ee /tmp/ccmixTjV.o
 .debug_macro   0x0000000000000000       0x49 /tmp/ccmixTjV.o
 .debug_macro   0x0000000000000000       0x57 /tmp/ccmixTjV.o
 .group         0x0000000000000000        0x8 /tmp/ccQtMXok.o
 .group         0x0000000000000000        0x8 /tmp/ccQtMXok.o
 .group         0x0000000000000000        0x8 /tmp/ccQtMXok.o
 .group         0x0000000000000000        0x8 /tmp/ccQtMXok.o
 .group         0x0000000000000000        0x8 /tmp/ccQtMXok.o
 .group         0x0000000000000000        0x8 /tmp/ccQtMXok.o
 .group         0x0000000000000000        0x8 /tmp/ccQtMXok.o
 .group         0x0000000000000000        0x8 /tmp/ccQtMXok.o
 .group         0x0000000000000000        0x8 /tmp/ccQtMXok.o
 .group         0x0000000000000000        0x8 /tmp/ccQtMXok.o
 .group         0x0000000000000000        0x8 /tmp/ccQtMXok.o
 .group         0x0000000000000000        0x8 /tmp/ccQtMXok.o
 .group         0x0000000000000000        0x8 /tmp/ccQtMXok.o
 .group         0x0000000000000000        0x8 /tmp/ccQtMXok.o
 .group         0x0000000000000000        0x8 /tmp/ccQtMXok.o
 .group         0x0000000000000000        0x8 /tmp/ccQtMXok.o
 .group         0x0000000000000000        0x8 /tmp/ccQtMXok.o
 .group         0x0000000000000000        0x8 /tmp/ccQtMXok.o
 .group         0x0000000000000000        0x8 /tmp/ccQtMXok.o
 .group         0x0000000000000000        0x8 /tmp/ccQtMXok.o
 .group         0x0000000000000000        0x8 /tmp/ccQtMXok.o
 .group         0x0000000000000000        0x8 /tmp/ccQtMXok.o
 .debug_macro   0x0000000000000000      0x844 /tmp/ccQtMXok.o
 .debug_macro   0x0000000000000000       0x58 /tmp/ccQtMXok.o
 .debug_macro   0x0000000000000000       0x16 /tmp/ccQtMXok.o
 .debug_macro   0x0000000000000000       0x35 /tmp/ccQtMXok.o
 .debug_macro   0x0000000000000000       0xa3 /tmp/ccQtMXok.o
 .debug_macro   0x0000000000000000       0x16 /tmp/ccQtMXok.o
 .debug_macro   0x0000000000000000      0x10e /tmp/ccQtMXok.o
 .debug_macro   0x0000000000000000       0x7f /tmp/ccQtMXok.o
 .debug_macro   0x0000000000000000       0x4a /tmp/ccQtMXok.o
 .debug_macro   0x0000000000000000       0x52 /tmp/ccQtMXok.o
 .debug_macro   0x0000000000000000       0x16 /tmp/ccQtMXok.o
 .debug_macro   0x0000000000000000       0x43 /tmp/ccQtMXok.o
 .debug_macro   0x0000000000000000      0x180 /tmp/ccQtMXok.o
 .debug_macro   0x0000000000000000       0x22 /tmp/ccQtMXok.o
 .debug_macro   0x0000000000000000       0x46 /tmp/ccQtMXok.o
 .debug_macro   0x0000000000000000       0xc4 /tmp/ccQtMXok.o
 .debug_macro   0x0000000000000000       0xa4 /tmp/ccQtMXok.o
 .debug_macro   0x0000000000000000       0x12 /tmp/ccQtMXok.o
 .debug_macro   0x0000000000000000       0x1f /tmp/ccQtMXok.o
 .debug_macro   0x0000000000000000      0x1ee /tmp/ccQtMXok.o
 .debug_macro   0x0000000000000000       0x49 /tmp/ccQtMXok.o
 .debug_macro   0x0000000000000000       0x57 /tmp/ccQtMXok.o
 .group         0x0000000000000000        0x8 /tmp/cc7LKoKJ.o
 .group         0x0000000000000000        0x8 /tmp/cc7LKoKJ.o
 .group         0x0000000000000000        0x8 /tmp/cc7LKoKJ.o
 .group         0x0000000000000000        0x8 /tmp/cc7LKoKJ.o
 .group         0x0000000000000000        0x8 /tmp/cc7LKoKJ.o
 .group         0x0000000000000000        0x8 /tmp/cc7LKoKJ.o
 .group         0x0000000000000000        0x8 /tmp/cc7LKoKJ.o
 .group         0x0000000000000000        0x8 /tmp/cc7LKoKJ.o
 .group         0x0000000000000000        0x8 /tmp/cc7LKoKJ.o
 .group         0x0000000000000000        0x8 /tmp/cc7LKoKJ.o
 .group         0x0000000000000000        0x8 /tmp/cc7LKoKJ.o
 .group         0x0000000000000000        0x8 /tmp/cc7LKoKJ.o
 .group         0x0000000000000000        0x8 /tmp/cc7LKoKJ.o
 .group         0x0000000000000000        0x8 /tmp/cc7LKoKJ.o
 .group         0x0000000000000000        0x8 /tmp/cc7LKoKJ.o
 .group         0x0000000000000000        0x8 /tmp/cc7LKoKJ.o
 .group         0x0000000000000000        0x8 /tmp/cc7LKoKJ.o
 .group         0x0000000000000000        0x8 /tmp/cc7LKoKJ.o
 .group         0x0000000000000000        0x8 /tmp/cc7LKoKJ.o
 .group         0x0000000000000000        0x8 /tmp/cc7LKoKJ.o
 .group         0x0000000000000000        0x8 /tmp/cc7LKoKJ.o
 .group         0x0000000000000000        0x8 /tmp/cc7LKoKJ.o
 .group         0x0000000000000000        0x8 /tmp/cc7LKoKJ.o
 .group         0x0000000000000000        0x8 /tmp/cc7LKoKJ.o
 .group         0x0000000000000000        0x8 /tmp/cc7LKoKJ.o
 .group         0x0000000000000000        0x8 /tmp/cc7LKoKJ.o
 .group         0x0000000000000000        0x8 /tmp/cc7LKoKJ.o
 .group         0x0000000000000000        0x8 /tmp/cc7LKoKJ.o
 .group         0x0000000000000000        0x8 /tmp/cc7LKoKJ.o
 .debug_macro   0x0000000000000000      0x844 /tmp/cc7LKoKJ.o
 .debug_macro   0x0000000000000000       0x16 /tmp/cc7LKoKJ.o
 .debug_macro   0x0000000000000000       0x44 /tmp/cc7LKoKJ.o
 .debug_macro   0x0000000000000000      0x209 /tmp/cc7LKoKJ.o
 .debug_macro   0x0000000000000000       0x63 /tmp/cc7LKoKJ.o
 .debug_macro   0x0000000000000000       0x3b /tmp/cc7LKoKJ.o
 .debug_macro   0x0000000000000000       0x18 /tmp/cc7LKoKJ.o
 .debug_macro   0x0000000000000000       0x42 /tmp/cc7LKoKJ.o
 .debug_macro   0x0000000000000000      0xd39 /tmp/cc7LKoKJ.o
 .debug_macro   0x0000000000000000     0x8264 /tmp/cc7LKoKJ.o
 .debug_macro   0x0000000000000000       0x58 /tmp/cc7LKoKJ.o
 .debug_macro   0x0000000000000000       0x35 /tmp/cc7LKoKJ.o
 .debug_macro   0x0000000000000000       0xa3 /tmp/cc7LKoKJ.o
 .debug_macro   0x0000000000000000       0x16 /tmp/cc7LKoKJ.o
 .debug_macro   0x0000000000000000       0x97 /tmp/cc7LKoKJ.o
 .debug_macro   0x0000000000000000       0x10 /tmp/cc7LKoKJ.o
 .debug_macro   0x0000000000000000       0xef /tmp/cc7LKoKJ.o
 .debug_macro   0x0000000000000000       0x52 /tmp/cc7LKoKJ.o
 .debug_macro   0x0000000000000000       0x16 /tmp/cc7LKoKJ.o
 .debug_macro   0x0000000000000000       0x43 /tmp/cc7LKoKJ.o
 .debug_macro   0x0000000000000000      0x180 /tmp/cc7LKoKJ.o
 .debug_macro   0x0000000000000000       0x10 /tmp/cc7LKoKJ.o
 .debug_macro   0x0000000000000000       0x22 /tmp/cc7LKoKJ.o
 .debug_macro   0x0000000000000000       0xbd /tmp/cc7LKoKJ.o
 .debug_macro   0x0000000000000000       0x16 /tmp/cc7LKoKJ.o
 .debug_macro   0x0000000000000000      0x14a /tmp/cc7LKoKJ.o
 .debug_macro   0x0000000000000000      0x2a3 /tmp/cc7LKoKJ.o
 .debug_macro   0x0000000000000000       0x10 /tmp/cc7LKoKJ.o
 .debug_macro   0x0000000000000000       0x35 /tmp/cc7LKoKJ.o
 .group         0x0000000000000000        0x8 /tmp/cczzK2f9.o
 .group         0x0000000000000000        0x8 /tmp/cczzK2f9.o
 .group         0x0000000000000000        0x8 /tmp/cczzK2f9.o
 .group         0x0000000000000000        0x8 /tmp/cczzK2f9.o
 .group         0x0000000000000000        0x8 /tmp/cczzK2f9.o
 .group         0x0000000000000000        0x8 /tmp/cczzK2f9.o
 .group         0x0000000000000000        0x8 /tmp/cczzK2f9.o
 .group         0x0000000000000000        0x8 /tmp/cczzK2f9.o
 .group         0x0000000000000000        0x8 /tmp/cczzK2f9.o
 .group         0x0000000000000000        0x8 /tmp/cczzK2f9.o
 .group         0x0000000000000000        0x8 /tmp/cczzK2f9.o
 .group         0x0000000000000000        0x8 /tmp/cczzK2f9.o
 .group         0x0000000000000000        0x8 /tmp/cczzK2f9.o
 .group         0x0000000000000000        0x8 /tmp/cczzK2f9.o
 .group         0x0000000000000000        0x8 /tmp/cczzK2f9.o
 .group         0x0000000000000000        0x8 /tmp/cczzK2f9.o
 .group         0x0000000000000000        0x8 /tmp/cczzK2f9.o
 .group         0x0000000000000000        0x8 /tmp/cczzK2f9.o
 .group         0x0000000000000000        0x8 /tmp/cczzK2f9.o
 .group         0x0000000000000000        0x8 /tmp/cczzK2f9.o
 .group         0x0000000000000000        0x8 /tmp/cczzK2f9.o
 .group         0x0000000000000000        0x8 /tmp/cczzK2f9.o
 .group         0x0000000000000000        0x8 /tmp/cczzK2f9.o
 .group         0x0000000000000000        0x8 /tmp/cczzK2f9.o
 .group         0x0000000000000000        0x8 /tmp/cczzK2f9.o
 .group         0x0000000000000000        0x8 /tmp/cczzK2f9.o
 .group         0x0000000000000000        0x8 /tmp/cczzK2f9.o
 .debug_macro   0x0000000000000000      0x844 /tmp/cczzK2f9.o
 .debug_macro   0x0000000000000000       0x58 /tmp/cczzK2f9.o
 .debug_macro   0x0000000000000000       0x16 /tmp/cczzK2f9.o
 .debug_macro   0x0000000000000000       0x35 /tmp/cczzK2f9.o
 .debug_macro   0x0000000000000000       0xa3 /tmp/cczzK2f9.o
 .debug_macro   0x0000000000000000       0x16 /tmp/cczzK2f9.o
 .debug_macro   0x0000000000000000      0x10e /tmp/cczzK2f9.o
 .debug_macro   0x0000000000000000       0x7f /tmp/cczzK2f9.o
 .debug_macro   0x0000000000000000       0x4a /tmp/cczzK2f9.o
 .debug_macro   0x0000000000000000       0x52 /tmp/cczzK2f9.o
 .debug_macro   0x0000000000000000       0x16 /tmp/cczzK2f9.o
 .debug_macro   0x0000000000000000       0x43 /tmp/cczzK2f9.o
 .debug_macro   0x0000000000000000      0x180 /tmp/cczzK2f9.o
 .debug_macro   0x0000000000000000       0x22 /tmp/cczzK2f9.o
 .debug_macro   0x0000000000000000       0x35 /tmp/cczzK2f9.o
 .debug_macro   0x0000000000000000       0x10 /tmp/cczzK2f9.o
 .debug_macro   0x0000000000000000       0x10 /tmp/cczzK2f9.o
 .debug_macro   0x0000000000000000       0x22 /tmp/cczzK2f9.o
 .debug_macro   0x0000000000000000       0xbd /tmp/cczzK2f9.o
 .debug_macro   0x0000000000000000       0x16 /tmp/cczzK2f9.o
 .debug_macro   0x0000000000000000      0x14a /tmp/cczzK2f9.o
 .group         0x0000000000000000        0x8 /tmp/ccDAaAUy.o
 .group         0x0000000000000000        0x8 /tmp/ccDAaAUy.o
 .group         0x0000000000000000        0x8 /tmp/ccDAaAUy.o
 .group         0x0000000000000000        0x8 /tmp/ccDAaAUy.o
 .group         0x0000000000000000        0x8 /tmp/ccDAaAUy.o
 .group         0x0000000000000000        0x8 /tmp/ccDAaAUy.o
 .group         0x0000000000000000        0x8 /tmp/ccDAaAUy.o
 .group         0x0000000000000000        0x8 /tmp/ccDAaAUy.o
 .group         0x0000000000000000        0x8 /tmp/ccDAaAUy.o
 .group         0x0000000000000000        0x8 /tmp/ccDAaAUy.o
 .debug_macro   0x0000000000000000      0x844 /tmp/ccDAaAUy.o
 .debug_macro   0x0000000000000000       0x16 /tmp/ccDAaAUy.o
 .debug_macro   0x0000000000000000       0x44 /tmp/ccDAaAUy.o
 .debug_macro   0x0000000000000000      0x209 /tmp/ccDAaAUy.o
 .debug_macro   0x0000000000000000       0x63 /tmp/ccDAaAUy.o
 .debug_macro   0x0000000000000000       0x3b /tmp/ccDAaAUy.o
 .debug_macro   0x0000000000000000       0x18 /tmp/ccDAaAUy.o
 .debug_macro   0x0000000000000000       0x42 /tmp/ccDAaAUy.o
 .debug_macro   0x0000000000000000      0xd39 /tmp/ccDAaAUy.o
 .debug_macro   0x0000000000000000     0x8264 /tmp/ccDAaAUy.o
 .group         0x0000000000000000        0x8 /tmp/ccwvsJNY.o
 .group         0x0000000000000000        0x8 /tmp/ccwvsJNY.o
 .group         0x0000000000000000        0x8 /tmp/ccwvsJNY.o
 .group         0x0000000000000000        0x8 /tmp/ccwvsJNY.o
 .group         0x0000000000000000        0x8 /tmp/ccwvsJNY.o
 .group         0x0000000000000000        0x8 /tmp/ccwvsJNY.o
 .group         0x0000000000000000        0x8 /tmp/ccwvsJNY.o
 .group         0x0000000000000000        0x8 /tmp/ccwvsJNY.o
 .group         0x0000000000000000        0x8 /tmp/ccwvsJNY.o
 .group         0x0000000000000000        0x8 /tmp/ccwvsJNY.o
 .group         0x0000000000000000        0x8 /tmp/ccwvsJNY.o
 .group         0x0000000000000000        0x8 /tmp/ccwvsJNY.o
 .group         0x0000000000000000        0x8 /tmp/ccwvsJNY.o
 .group         0x0000000000000000        0x8 /tmp/ccwvsJNY.o
 .group         0x0000000000000000        0x8 /tmp/ccwvsJNY.o
 .group         0x0000000000000000        0x8 /tmp/ccwvsJNY.o
 .group         0x0000000000000000        0x8 /tmp/ccwvsJNY.o
 .group         0x0000000000000000        0x8 /tmp/ccwvsJNY.o
 .group         0x0000000000000000        0x8 /tmp/ccwvsJNY.o
 .group         0x0000000000000000        0x8 /tmp/ccwvsJNY.o
 .group         0x0000000000000000        0x8 /tmp/ccwvsJNY.o
 .group         0x0000000000000000        0x8 /tmp/ccwvsJNY.o
 .group         0x0000000000000000        0x8 /tmp/ccwvsJNY.o
 .group         0x0000000000000000        0x8 /tmp/ccwvsJNY.o
 .group         0x0000000000000000        0x8 /tmp/ccwvsJNY.o
 .group         0x0000000000000000        0x8 /tmp/ccwvsJNY.o
 .group         0x0000000000000000        0x8 /tmp/ccwvsJNY.o
 .group         0x0000000000000000        0x8 /tmp/ccwvsJNY.o
 .group         0x0000000000000000        0x8 /tmp/ccwvsJNY.o
 .group         0x0000000000000000        0x8 /tmp/ccwvsJNY.o
 .group         0x0000000000000000        0x8 /tmp/ccwvsJNY.o
 .group         0x0000000000000000        0x8 /tmp/ccwvsJNY.o
 .group         0x0000000000000000        0x8 /tmp/ccwvsJNY.o
 .group         0x0000000000000000        0x8 /tmp/ccwvsJNY.o
 .group         0x0000000000000000        0x8 /tmp/ccwvsJNY.o
 .group         0x0000000000000000        0x8 /tmp/ccwvsJNY.o
 .group         0x0000000000000000        0x8 /tmp/ccwvsJNY.o
 .group         0x0000000000000000        0x8 /tmp/ccwvsJNY.o
 .group         0x0000000000000000        0x8 /tmp/ccwvsJNY.o
 .group         0x0000000000000000        0x8 /tmp/ccwvsJNY.o
 .group         0x0000000000000000        0x8 /tmp/ccwvsJNY.o
 .group         0x0000000000000000        0x8 /tmp/ccwvsJNY.o
 .debug_macro   0x0000000000000000      0x844 /tmp/ccwvsJNY.o
 .debug_macro   0x0000000000000000       0x63 /tmp/ccwvsJNY.o
 .debug_macro   0x0000000000000000       0x3b /tmp/ccwvsJNY.o
 .debug_macro   0x0000000000000000       0x16 /tmp/ccwvsJNY.o
 .debug_macro   0x0000000000000000       0x44 /tmp/ccwvsJNY.o
 .debug_macro   0x0000000000000000      0x209 /tmp/ccwvsJNY.o
 .debug_macro   0x0000000000000000       0x18 /tmp/ccwvsJNY.o
 .debug_macro   0x0000000000000000       0x42 /tmp/ccwvsJNY.o
 .debug_macro   0x0000000000000000      0xd39 /tmp/ccwvsJNY.o
 .debug_macro   0x0000000000000000      0x282 /tmp/ccwvsJNY.o
 .debug_macro   0x0000000000000000      0x166 /tmp/ccwvsJNY.o
 .debug_macro   0x0000000000000000       0x46 /tmp/ccwvsJNY.o
 .debug_macro   0x0000000000000000       0xc4 /tmp/ccwvsJNY.o
 .debug_macro   0x0000000000000000       0xa4 /tmp/ccwvsJNY.o
 .debug_macro   0x0000000000000000       0x12 /tmp/ccwvsJNY.o
 .debug_macro   0x0000000000000000       0x1f /tmp/ccwvsJNY.o
 .debug_macro   0x0000000000000000      0x1ee /tmp/ccwvsJNY.o
 .debug_macro   0x0000000000000000       0x49 /tmp/ccwvsJNY.o
 .debug_macro   0x0000000000000000       0x57 /tmp/ccwvsJNY.o
 .debug_macro   0x0000000000000000       0x58 /tmp/ccwvsJNY.o
 .debug_macro   0x0000000000000000       0x35 /tmp/ccwvsJNY.o
 .debug_macro   0x0000000000000000       0xa3 /tmp/ccwvsJNY.o
 .debug_macro   0x0000000000000000       0x52 /tmp/ccwvsJNY.o
 .debug_macro   0x0000000000000000       0x16 /tmp/ccwvsJNY.o
 .debug_macro   0x0000000000000000       0x43 /tmp/ccwvsJNY.o
 .debug_macro   0x0000000000000000      0x180 /tmp/ccwvsJNY.o
 .debug_macro   0x0000000000000000      0x2a3 /tmp/ccwvsJNY.o
 .debug_macro   0x0000000000000000       0x10 /tmp/ccwvsJNY.o
 .debug_macro   0x0000000000000000       0x35 /tmp/ccwvsJNY.o
 .debug_macro   0x0000000000000000       0x1c /tmp/ccwvsJNY.o
 .debug_macro   0x0000000000000000       0x10 /tmp/ccwvsJNY.o
 .debug_macro   0x0000000000000000       0x10 /tmp/ccwvsJNY.o
 .debug_macro   0x0000000000000000       0x22 /tmp/ccwvsJNY.o
 .debug_macro   0x0000000000000000       0xbd /tmp/ccwvsJNY.o
 .debug_macro   0x0000000000000000       0x16 /tmp/ccwvsJNY.o
 .debug_macro   0x0000000000000000      0x14a /tmp/ccwvsJNY.o

Memory Configuration

Name             Origin             Length             Attributes
flash            0x0000000008000000 0x0000000000100000 xr
sram             0x0000000020000000 0x0000000000030000 xrw
*default*        0x0000000000000000 0xffffffffffffffff

Linker script and memory map


.text           0x0000000008000000     0xced0
 *(.isr_vector .isr_vector.*)
 .isr_vector    0x0000000008000000      0x188 /tmp/ccy457S0.o
                0x0000000008000000                g_pfnVectors
                0x0000000000000400                . = 0x400
 *fill*         0x0000000008000188      0x278 
 *(.text .text.* .gnu.linkonce.t*)
 .text          0x0000000008000400      0x360 /tmp/ccYeW5MD.o
                0x0000000008000400                SystemInit
                0x0000000008000490                SystemCoreClockUpdate
 .text          0x0000000008000760       0x14 /tmp/ccy457S0.o
 .text.Reset_Handler
                0x0000000008000774       0x44 /tmp/ccy457S0.o
                0x0000000008000774                Reset_Handler
 .text.Default_Handler
                0x00000000080007b8        0x2 /tmp/ccy457S0.o
                0x00000000080007b8                RTC_Alarm_IRQHandler
                0x00000000080007b8                HASH_RNG_IRQHandler
                0x00000000080007b8                EXTI2_IRQHandler
                0x00000000080007b8                TIM8_CC_IRQHandler
                0x00000000080007b8                DebugMon_Handler
                0x00000000080007b8                TIM1_CC_IRQHandler
                0x00000000080007b8                DMA2_Stream5_IRQHandler
                0x00000000080007b8                HardFault_Handler
                0x00000000080007b8                DMA1_Stream5_IRQHandler
                0x00000000080007b8                PVD_IRQHandler
                0x00000000080007b8                SDIO_IRQHandler
                0x00000000080007b8                TAMP_STAMP_IRQHandler
                0x00000000080007b8                NMI_Handler
                0x00000000080007b8                CAN2_RX1_IRQHandler
                0x00000000080007b8                EXTI3_IRQHandler
                0x00000000080007b8                TIM8_TRG_COM_TIM14_IRQHandler
                0x00000000080007b8                TIM1_UP_TIM10_IRQHandler
                0x00000000080007b8                TIM8_UP_TIM13_IRQHandler
                0x00000000080007b8                I2C3_ER_IRQHandler
                0x00000000080007b8                EXTI0_IRQHandler
                0x00000000080007b8                I2C2_EV_IRQHandler
                0x00000000080007b8                DMA1_Stream2_IRQHandler
                0x00000000080007b8                CAN1_RX0_IRQHandler
                0x00000000080007b8                FPU_IRQHandler
                0x00000000080007b8                OTG_HS_WKUP_IRQHandler
                0x00000000080007b8                UsageFault_Handler
                0x00000000080007b8                CAN2_SCE_IRQHandler
                0x00000000080007b8                DMA2_Stream2_IRQHandler
                0x00000000080007b8                SPI1_IRQHandler
                0x00000000080007b8                TIM6_DAC_IRQHandler
                0x00000000080007b8                TIM1_BRK_TIM9_IRQHandler
                0x00000000080007b8                DCMI_IRQHandler
                0x00000000080007b8                CAN2_RX0_IRQHandler
                0x00000000080007b8                DMA2_Stream3_IRQHandler
                0x00000000080007b8                USART6_IRQHandler
                0x00000000080007b8                USART3_IRQHandler
                0x00000000080007b8                CRYP_IRQHandler
                0x00000000080007b8                CAN1_RX1_IRQHandler
                0x00000000080007b8                UART5_IRQHandler
                0x00000000080007b8                DMA2_Stream0_IRQHandler
                0x00000000080007b8                TIM4_IRQHandler
                0x00000000080007b8                I2C1_EV_IRQHandler
                0x00000000080007b8                DMA1_Stream6_IRQHandler
                0x00000000080007b8                DMA1_Stream1_IRQHandler
                0x00000000080007b8                UART4_IRQHandler
                0x00000000080007b8                TIM3_IRQHandler
                0x00000000080007b8                RCC_IRQHandler
                0x00000000080007b8                TIM8_BRK_TIM12_IRQHandler
                0x00000000080007b8                Default_Handler
                0x00000000080007b8                EXTI15_10_IRQHandler
                0x00000000080007b8                ADC_IRQHandler
                0x00000000080007b8                DMA1_Stream7_IRQHandler
                0x00000000080007b8                TIM7_IRQHandler
                0x00000000080007b8                CAN2_TX_IRQHandler
                0x00000000080007b8                TIM5_IRQHandler
                0x00000000080007b8                DMA2_Stream7_IRQHandler
                0x00000000080007b8                I2C3_EV_IRQHandler
                0x00000000080007b8                EXTI9_5_IRQHandler
                0x00000000080007b8                RTC_WKUP_IRQHandler
                0x00000000080007b8                ETH_WKUP_IRQHandler
                0x00000000080007b8                SPI2_IRQHandler
                0x00000000080007b8                OTG_HS_EP1_IN_IRQHandler
                0x00000000080007b8                MemManage_Handler
                0x00000000080007b8                DMA1_Stream0_IRQHandler
                0x00000000080007b8                CAN1_TX_IRQHandler
                0x00000000080007b8                EXTI4_IRQHandler
                0x00000000080007b8                FSMC_IRQHandler
                0x00000000080007b8                OTG_HS_EP1_OUT_IRQHandler
                0x00000000080007b8                WWDG_IRQHandler
                0x00000000080007b8                TIM2_IRQHandler
                0x00000000080007b8                OTG_FS_WKUP_IRQHandler
                0x00000000080007b8                TIM1_TRG_COM_TIM11_IRQHandler
                0x00000000080007b8                OTG_HS_IRQHandler
                0x00000000080007b8                EXTI1_IRQHandler
                0x00000000080007b8                USART2_IRQHandler
                0x00000000080007b8                I2C2_ER_IRQHandler
                0x00000000080007b8                DMA2_Stream1_IRQHandler
                0x00000000080007b8                CAN1_SCE_IRQHandler
                0x00000000080007b8                FLASH_IRQHandler
                0x00000000080007b8                DMA2_Stream4_IRQHandler
                0x00000000080007b8                BusFault_Handler
                0x00000000080007b8                USART1_IRQHandler
                0x00000000080007b8                OTG_FS_IRQHandler
                0x00000000080007b8                SPI3_IRQHandler
                0x00000000080007b8                DMA1_Stream4_IRQHandler
                0x00000000080007b8                I2C1_ER_IRQHandler
                0x00000000080007b8                DMA2_Stream6_IRQHandler
                0x00000000080007b8                DMA1_Stream3_IRQHandler
 *fill*         0x00000000080007ba        0x2 
 .text          0x00000000080007bc      0xd10 /tmp/ccfKhGdo.o
                0x00000000080007bc                RCC_DeInit
                0x0000000008000860                RCC_HSEConfig
                0x000000000800088c                RCC_WaitForHSEStartUp
                0x00000000080008dc                RCC_AdjustHSICalibrationValue
                0x0000000008000920                RCC_HSICmd
                0x0000000008000940                RCC_LSEConfig
                0x0000000008000994                RCC_LSICmd
                0x00000000080009b4                RCC_PLLConfig
                0x00000000080009f4                RCC_PLLCmd
                0x0000000008000a14                RCC_PLLI2SConfig
                0x0000000008000a40                RCC_PLLI2SCmd
                0x0000000008000a60                RCC_ClockSecuritySystemCmd
                0x0000000008000a80                RCC_MCO1Config
                0x0000000008000ac4                RCC_MCO2Config
                0x0000000008000b08                RCC_SYSCLKConfig
                0x0000000008000b48                RCC_GetSYSCLKSource
                0x0000000008000b68                RCC_HCLKConfig
                0x0000000008000ba8                RCC_PCLK1Config
                0x0000000008000be8                RCC_PCLK2Config
                0x0000000008000c28                RCC_GetClocksFreq
                0x0000000008000dd0                RCC_RTCCLKConfig
                0x0000000008000e40                RCC_RTCCLKCmd
                0x0000000008000e60                RCC_BackupResetCmd
                0x0000000008000e80                RCC_I2SCLKConfig
                0x0000000008000ea0                RCC_TIMCLKPresConfig
                0x0000000008000ec0                RCC_AHB1PeriphClockCmd
                0x0000000008000f10                RCC_AHB2PeriphClockCmd
                0x0000000008000f60                RCC_AHB3PeriphClockCmd
                0x0000000008000fb0                RCC_APB1PeriphClockCmd
                0x0000000008001000                RCC_APB2PeriphClockCmd
                0x0000000008001050                RCC_AHB1PeriphResetCmd
                0x00000000080010a0                RCC_AHB2PeriphResetCmd
                0x00000000080010f0                RCC_AHB3PeriphResetCmd
                0x0000000008001140                RCC_APB1PeriphResetCmd
                0x0000000008001190                RCC_APB2PeriphResetCmd
                0x00000000080011e0                RCC_AHB1PeriphClockLPModeCmd
                0x0000000008001230                RCC_AHB2PeriphClockLPModeCmd
                0x0000000008001280                RCC_AHB3PeriphClockLPModeCmd
                0x00000000080012d0                RCC_APB1PeriphClockLPModeCmd
                0x0000000008001320                RCC_APB2PeriphClockLPModeCmd
                0x0000000008001370                RCC_ITConfig
                0x00000000080013cc                RCC_GetFlagStatus
                0x0000000008001450                RCC_ClearFlag
                0x0000000008001474                RCC_GetITStatus
                0x00000000080014ac                RCC_ClearITPendingBit
 .text          0x00000000080014cc      0x498 /tmp/ccdQTPML.o
                0x00000000080014cc                GPIO_DeInit
                0x00000000080015fc                GPIO_Init
                0x0000000008001718                GPIO_StructInit
                0x000000000800174c                GPIO_PinLockConfig
                0x0000000008001790                GPIO_ReadInputDataBit
                0x00000000080017c4                GPIO_ReadInputData
                0x00000000080017e0                GPIO_ReadOutputDataBit
                0x0000000008001814                GPIO_ReadOutputData
                0x0000000008001830                GPIO_SetBits
                0x000000000800184c                GPIO_ResetBits
                0x0000000008001868                GPIO_WriteBit
                0x0000000008001898                GPIO_Write
                0x00000000080018b4                GPIO_ToggleBits
                0x00000000080018d8                GPIO_PinAFConfig
 .text          0x0000000008001964      0x97c /tmp/ccvbLNB9.o
                0x0000000008001964                USART_DeInit
                0x0000000008001a88                USART_Init
                0x0000000008001c10                USART_StructInit
                0x0000000008001c48                USART_ClockInit
                0x0000000008001c9c                USART_ClockStructInit
                0x0000000008001cc8                USART_Cmd
                0x0000000008001d08                USART_SetPrescaler
                0x0000000008001d40                USART_OverSampling8Cmd
                0x0000000008001d84                USART_OneBitMethodCmd
                0x0000000008001dc4                USART_SendData
                0x0000000008001de8                USART_ReceiveData
                0x0000000008001e08                USART_SetAddress
                0x0000000008001e40                USART_ReceiverWakeUpCmd
                0x0000000008001e80                USART_WakeUpConfig
                0x0000000008001eb8                USART_LINBreakDetectLengthConfig
                0x0000000008001ef0                USART_LINCmd
                0x0000000008001f30                USART_SendBreak
                0x0000000008001f54                USART_HalfDuplexCmd
                0x0000000008001f94                USART_SetGuardTime
                0x0000000008001fd0                USART_SmartCardCmd
                0x0000000008002010                USART_SmartCardNACKCmd
                0x0000000008002050                USART_IrDAConfig
                0x0000000008002088                USART_IrDACmd
                0x00000000080020c8                USART_DMACmd
                0x0000000008002110                USART_ITConfig
                0x00000000080021a0                USART_GetFlagStatus
                0x00000000080021d8                USART_ClearFlag
                0x00000000080021f8                USART_GetITStatus
                0x00000000080022a8                USART_ClearITPendingBit
 .text          0x00000000080022e0      0x29c /tmp/ccYMHmDx.o
                0x00000000080022e0                EXTI_DeInit
                0x0000000008002330                EXTI_Init
                0x000000000800245c                EXTI_StructInit
                0x0000000008002488                EXTI_GenerateSWInterrupt
                0x00000000080024b4                EXTI_GetFlagStatus
                0x00000000080024ec                EXTI_ClearFlag
                0x000000000800250c                EXTI_GetITStatus
                0x000000000800255c                EXTI_ClearITPendingBit
 .text          0x000000000800257c      0x1c0 /tmp/ccgr0JQV.o
                0x000000000800257c                NVIC_PriorityGroupConfig
                0x00000000080025a4                NVIC_Init
                0x0000000008002670                NVIC_SetVectorTable
                0x000000000800269c                NVIC_SystemLPConfig
                0x00000000080026f0                SysTick_CLKSourceConfig
 .text          0x000000000800273c      0x51c /tmp/ccBXF9fk.o
                0x000000000800273c                xCoRoutineCreate
                0x0000000008002818                vCoRoutineAddToDelayedList
                0x0000000008002aac                vCoRoutineSchedule
                0x0000000008002c04                xCoRoutineRemoveFromEventList
 .text          0x0000000008002c58      0x168 /tmp/ccWTSJMI.o
                0x0000000008002c58                vListInitialise
                0x0000000008002c98                vListInitialiseItem
                0x0000000008002cb0                vListInsertEnd
                0x0000000008002d00                vListInsert
                0x0000000008002d70                vListRemove
 .text          0x0000000008002dc0      0x7dc /tmp/ccfsXes7.o
                0x0000000008002dc0                xQueueGenericReset
                0x0000000008002e5c                xQueueGenericCreate
                0x0000000008002ecc                xQueueCreateMutex
                0x0000000008002f48                xQueueGetMutexHolder
                0x0000000008002f78                xQueueGenericSend
                0x0000000008003084                xQueueGenericSendFromISR
                0x0000000008003104                xQueueGenericReceive
                0x0000000008003270                xQueueReceiveFromISR
                0x00000000080032f4                uxQueueMessagesWaiting
                0x0000000008003314                uxQueueMessagesWaitingFromISR
                0x0000000008003330                vQueueDelete
                0x0000000008003518                xQueueIsQueueEmptyFromISR
                0x0000000008003570                xQueueIsQueueFullFromISR
 .text          0x000000000800359c     0x11e8 /tmp/ccwLsclw.o
                0x000000000800359c                xTaskGenericCreate
                0x000000000800373c                vTaskDelete
                0x00000000080037f0                vTaskDelayUntil
                0x0000000008003898                vTaskDelay
                0x00000000080038ec                uxTaskPriorityGet
                0x0000000008003924                vTaskPrioritySet
                0x0000000008003a34                vTaskSuspend
                0x0000000008003ae8                xTaskIsTaskSuspended
                0x0000000008003b34                vTaskResume
                0x0000000008003bd4                xTaskResumeFromISR
                0x0000000008003c98                vTaskStartScheduler
                0x0000000008003cf8                vTaskEndScheduler
                0x0000000008003d18                vTaskSuspendAll
                0x0000000008003d3c                xTaskResumeAll
                0x0000000008003e70                xTaskGetTickCount
                0x0000000008003e94                xTaskGetTickCountFromISR
                0x0000000008003ec8                uxTaskGetNumberOfTasks
                0x0000000008003ee0                vTaskIncrementTick
                0x000000000800409c                vTaskSwitchContext
                0x0000000008004154                vTaskPlaceOnEventList
                0x00000000080041c4                xTaskRemoveFromEventList
                0x0000000008004274                vTaskSetTimeOutState
                0x00000000080042a4                xTaskCheckForTimeOut
                0x000000000800433c                vTaskMissedYield
                0x0000000008004618                xTaskGetCurrentTaskHandle
                0x0000000008004638                vTaskPriorityInherit
                0x0000000008004700                vTaskPriorityDisinherit
 .text          0x0000000008004784      0x200 /tmp/ccmixTjV.o
                0x0000000008004784                pxPortInitialiseStack
                0x00000000080047d8                SVC_Handler
                0x0000000008004808                xPortStartScheduler
                0x0000000008004858                vPortEndScheduler
                0x0000000008004864                vPortYieldFromISR
                0x0000000008004880                vPortEnterCritical
                0x00000000080048ac                vPortExitCritical
                0x00000000080048e4                PendSV_Handler
                0x0000000008004920                SysTick_Handler
 .text          0x0000000008004984       0xd8 /tmp/ccQtMXok.o
                0x0000000008004984                pvPortMalloc
                0x0000000008004a14                vPortFree
                0x0000000008004a28                vPortInitialiseBlocks
                0x0000000008004a40                xPortGetFreeHeapSize
 .text          0x0000000008004a5c      0xf10 /tmp/cc7LKoKJ.o
                0x0000000008004ae8                enet_read_phy_reg
                0x0000000008004b4c                enet_write_phy_reg
                0x0000000008004bd4                enet_init
                0x0000000008005250                ETH_IRQHandler
                0x00000000080053f4                enet_get_link_status
                0x0000000008005504                eth_htons
                0x0000000008005530                eth_htonl
                0x0000000008005564                enet_send_udp_mcast
                0x00000000080055c8                enet_send_udp_ucast
                0x0000000008005730                enet_process_rx_ring
 .text          0x000000000800596c      0x168 /tmp/cczzK2f9.o
                0x000000000800596c                _sbrk
                0x00000000080059c8                _kill
                0x00000000080059e4                _exit
                0x00000000080059f0                _getpid
                0x0000000008005a00                _write
                0x0000000008005a20                _close
                0x0000000008005a38                _fstat
                0x0000000008005a58                _isatty
                0x0000000008005a70                _lseek
                0x0000000008005a8c                _read
                0x0000000008005aa8                fputc
                0x0000000008005ac0                _ttywrch
 .text          0x0000000008005ad4      0x150 /tmp/ccDAaAUy.o
                0x0000000008005ad4                console_init
                0x0000000008005bac                console_send_block
 .text          0x0000000008005c24      0x1d4 /tmp/ccwvsJNY.o
                0x0000000008005c24                led_flash_task
                0x0000000008005c7c                networking_receive
                0x0000000008005c90                networking_send
                0x0000000008005ce8                led2_task
                0x0000000008005d10                myTraceCreate
                0x0000000008005d1c                myTraceSwitchedIn
                0x0000000008005d28                myTraceSwitchedOut
                0x0000000008005d34                vApplicationTickHook
                0x0000000008005d40                main
 .text          0x0000000008005df8       0xec /usr/lib/gcc/arm-none-eabi/4.8.2/../../../arm-none-eabi/lib/armv7-m/libg.a(lib_a-memcpy.o)
                0x0000000008005df8                memcpy
 .text          0x0000000008005ee4        0x0 /usr/lib/gcc/arm-none-eabi/4.8.2/../../../arm-none-eabi/lib/armv7-m/libg.a(lib_a-memset.o)
 .text.memset   0x0000000008005ee4       0x94 /usr/lib/gcc/arm-none-eabi/4.8.2/../../../arm-none-eabi/lib/armv7-m/libg.a(lib_a-memset.o)
                0x0000000008005ee4                memset
 .text          0x0000000008005f78        0x0 /usr/lib/gcc/arm-none-eabi/4.8.2/../../../arm-none-eabi/lib/armv7-m/libg.a(lib_a-printf.o)
 .text._printf_r
                0x0000000008005f78       0x20 /usr/lib/gcc/arm-none-eabi/4.8.2/../../../arm-none-eabi/lib/armv7-m/libg.a(lib_a-printf.o)
                0x0000000008005f78                _printf_r
 .text.printf   0x0000000008005f98       0x2c /usr/lib/gcc/arm-none-eabi/4.8.2/../../../arm-none-eabi/lib/armv7-m/libg.a(lib_a-printf.o)
                0x0000000008005f98                printf
 .text          0x0000000008005fc4        0x0 /usr/lib/gcc/arm-none-eabi/4.8.2/../../../arm-none-eabi/lib/armv7-m/libg.a(lib_a-puts.o)
 .text._puts_r  0x0000000008005fc4       0x68 /usr/lib/gcc/arm-none-eabi/4.8.2/../../../arm-none-eabi/lib/armv7-m/libg.a(lib_a-puts.o)
                0x0000000008005fc4                _puts_r
 .text.puts     0x000000000800602c       0x10 /usr/lib/gcc/arm-none-eabi/4.8.2/../../../arm-none-eabi/lib/armv7-m/libg.a(lib_a-puts.o)
                0x000000000800602c                puts
 .text          0x000000000800603c        0x0 /usr/lib/gcc/arm-none-eabi/4.8.2/../../../arm-none-eabi/lib/armv7-m/libg.a(lib_a-strlen.o)
 .text.strlen   0x000000000800603c       0x60 /usr/lib/gcc/arm-none-eabi/4.8.2/../../../arm-none-eabi/lib/armv7-m/libg.a(lib_a-strlen.o)
                0x000000000800603c                strlen
 .text          0x000000000800609c        0x0 /usr/lib/gcc/arm-none-eabi/4.8.2/../../../arm-none-eabi/lib/armv7-m/libg.a(lib_a-strncpy.o)
 .text.strncpy  0x000000000800609c       0x68 /usr/lib/gcc/arm-none-eabi/4.8.2/../../../arm-none-eabi/lib/armv7-m/libg.a(lib_a-strncpy.o)
                0x000000000800609c                strncpy
 .text          0x0000000008006104        0x0 /usr/lib/gcc/arm-none-eabi/4.8.2/../../../arm-none-eabi/lib/armv7-m/libg.a(lib_a-vfprintf.o)
 .text._vfprintf_r
                0x0000000008006104     0x1524 /usr/lib/gcc/arm-none-eabi/4.8.2/../../../arm-none-eabi/lib/armv7-m/libg.a(lib_a-vfprintf.o)
                0x0000000008006104                _vfprintf_r
 .text.vfprintf
                0x0000000008007628       0x1c /usr/lib/gcc/arm-none-eabi/4.8.2/../../../arm-none-eabi/lib/armv7-m/libg.a(lib_a-vfprintf.o)
                0x0000000008007628                vfprintf
 .text.__sbprintf
                0x0000000008007644       0x7c /usr/lib/gcc/arm-none-eabi/4.8.2/../../../arm-none-eabi/lib/armv7-m/libg.a(lib_a-vfprintf.o)
 .text          0x00000000080076c0        0x0 /usr/lib/gcc/arm-none-eabi/4.8.2/../../../arm-none-eabi/lib/armv7-m/libg.a(lib_a-wsetup.o)
 .text.__swsetup_r
                0x00000000080076c0       0xc8 /usr/lib/gcc/arm-none-eabi/4.8.2/../../../arm-none-eabi/lib/armv7-m/libg.a(lib_a-wsetup.o)
                0x00000000080076c0                __swsetup_r
 .text          0x0000000008007788        0x0 /usr/lib/gcc/arm-none-eabi/4.8.2/../../../arm-none-eabi/lib/armv7-m/libg.a(lib_a-dtoa.o)
 .text.quorem   0x0000000008007788      0x130 /usr/lib/gcc/arm-none-eabi/4.8.2/../../../arm-none-eabi/lib/armv7-m/libg.a(lib_a-dtoa.o)
 .text._dtoa_r  0x00000000080078b8      0xf58 /usr/lib/gcc/arm-none-eabi/4.8.2/../../../arm-none-eabi/lib/armv7-m/libg.a(lib_a-dtoa.o)
                0x00000000080078b8                _dtoa_r
 .text          0x0000000008008810        0x0 /usr/lib/gcc/arm-none-eabi/4.8.2/../../../arm-none-eabi/lib/armv7-m/libg.a(lib_a-fflush.o)
 .text.__sflush_r
                0x0000000008008810      0x14c /usr/lib/gcc/arm-none-eabi/4.8.2/../../../arm-none-eabi/lib/armv7-m/libg.a(lib_a-fflush.o)
                0x0000000008008810                __sflush_r
 .text._fflush_r
                0x000000000800895c       0x2c /usr/lib/gcc/arm-none-eabi/4.8.2/../../../arm-none-eabi/lib/armv7-m/libg.a(lib_a-fflush.o)
                0x000000000800895c                _fflush_r
 .text.fflush   0x0000000008008988       0x28 /usr/lib/gcc/arm-none-eabi/4.8.2/../../../arm-none-eabi/lib/armv7-m/libg.a(lib_a-fflush.o)
                0x0000000008008988                fflush
 .text          0x00000000080089b0        0x0 /usr/lib/gcc/arm-none-eabi/4.8.2/../../../arm-none-eabi/lib/armv7-m/libg.a(lib_a-findfp.o)
 .text.__fp_lock
                0x00000000080089b0        0x4 /usr/lib/gcc/arm-none-eabi/4.8.2/../../../arm-none-eabi/lib/armv7-m/libg.a(lib_a-findfp.o)
 .text.__fp_unlock
                0x00000000080089b4        0x4 /usr/lib/gcc/arm-none-eabi/4.8.2/../../../arm-none-eabi/lib/armv7-m/libg.a(lib_a-findfp.o)
 .text._cleanup_r
                0x00000000080089b8        0xc /usr/lib/gcc/arm-none-eabi/4.8.2/../../../arm-none-eabi/lib/armv7-m/libg.a(lib_a-findfp.o)
                0x00000000080089b8                _cleanup_r
 .text.__sfmoreglue
                0x00000000080089c4       0x30 /usr/lib/gcc/arm-none-eabi/4.8.2/../../../arm-none-eabi/lib/armv7-m/libg.a(lib_a-findfp.o)
                0x00000000080089c4                __sfmoreglue
 .text._cleanup
                0x00000000080089f4       0x18 /usr/lib/gcc/arm-none-eabi/4.8.2/../../../arm-none-eabi/lib/armv7-m/libg.a(lib_a-findfp.o)
                0x00000000080089f4                _cleanup
 .text.__sinit  0x0000000008008a0c       0xf8 /usr/lib/gcc/arm-none-eabi/4.8.2/../../../arm-none-eabi/lib/armv7-m/libg.a(lib_a-findfp.o)
                0x0000000008008a0c                __sinit
 .text.__sfp    0x0000000008008b04       0x8c /usr/lib/gcc/arm-none-eabi/4.8.2/../../../arm-none-eabi/lib/armv7-m/libg.a(lib_a-findfp.o)
                0x0000000008008b04                __sfp
 .text.__sfp_lock_acquire
                0x0000000008008b90        0x4 /usr/lib/gcc/arm-none-eabi/4.8.2/../../../arm-none-eabi/lib/armv7-m/libg.a(lib_a-findfp.o)
                0x0000000008008b90                __sfp_lock_acquire
 .text.__sfp_lock_release
                0x0000000008008b94        0x4 /usr/lib/gcc/arm-none-eabi/4.8.2/../../../arm-none-eabi/lib/armv7-m/libg.a(lib_a-findfp.o)
                0x0000000008008b94                __sfp_lock_release
 .text.__sinit_lock_acquire
                0x0000000008008b98        0x4 /usr/lib/gcc/arm-none-eabi/4.8.2/../../../arm-none-eabi/lib/armv7-m/libg.a(lib_a-findfp.o)
                0x0000000008008b98                __sinit_lock_acquire
 .text.__sinit_lock_release
                0x0000000008008b9c        0x4 /usr/lib/gcc/arm-none-eabi/4.8.2/../../../arm-none-eabi/lib/armv7-m/libg.a(lib_a-findfp.o)
                0x0000000008008b9c                __sinit_lock_release
 .text.__fp_lock_all
                0x0000000008008ba0       0x18 /usr/lib/gcc/arm-none-eabi/4.8.2/../../../arm-none-eabi/lib/armv7-m/libg.a(lib_a-findfp.o)
                0x0000000008008ba0                __fp_lock_all
 .text.__fp_unlock_all
                0x0000000008008bb8       0x18 /usr/lib/gcc/arm-none-eabi/4.8.2/../../../arm-none-eabi/lib/armv7-m/libg.a(lib_a-findfp.o)
                0x0000000008008bb8                __fp_unlock_all
 .text          0x0000000008008bd0        0x0 /usr/lib/gcc/arm-none-eabi/4.8.2/../../../arm-none-eabi/lib/armv7-m/libg.a(lib_a-freer.o)
 .text._malloc_trim_r
                0x0000000008008bd0       0xa4 /usr/lib/gcc/arm-none-eabi/4.8.2/../../../arm-none-eabi/lib/armv7-m/libg.a(lib_a-freer.o)
                0x0000000008008bd0                _malloc_trim_r
 .text._free_r  0x0000000008008c74      0x198 /usr/lib/gcc/arm-none-eabi/4.8.2/../../../arm-none-eabi/lib/armv7-m/libg.a(lib_a-freer.o)
                0x0000000008008c74                _free_r
 .text          0x0000000008008e0c        0x0 /usr/lib/gcc/arm-none-eabi/4.8.2/../../../arm-none-eabi/lib/armv7-m/libg.a(lib_a-fvwrite.o)
 .text.__sfvwrite_r
                0x0000000008008e0c      0x314 /usr/lib/gcc/arm-none-eabi/4.8.2/../../../arm-none-eabi/lib/armv7-m/libg.a(lib_a-fvwrite.o)
                0x0000000008008e0c                __sfvwrite_r
 .text          0x0000000008009120        0x0 /usr/lib/gcc/arm-none-eabi/4.8.2/../../../arm-none-eabi/lib/armv7-m/libg.a(lib_a-fwalk.o)
 .text._fwalk   0x0000000008009120       0x48 /usr/lib/gcc/arm-none-eabi/4.8.2/../../../arm-none-eabi/lib/armv7-m/libg.a(lib_a-fwalk.o)
                0x0000000008009120                _fwalk
 .text._fwalk_reent
                0x0000000008009168       0x4c /usr/lib/gcc/arm-none-eabi/4.8.2/../../../arm-none-eabi/lib/armv7-m/libg.a(lib_a-fwalk.o)
                0x0000000008009168                _fwalk_reent
 .text          0x00000000080091b4        0x0 /usr/lib/gcc/arm-none-eabi/4.8.2/../../../arm-none-eabi/lib/armv7-m/libg.a(lib_a-impure.o)
 .text          0x00000000080091b4        0x0 /usr/lib/gcc/arm-none-eabi/4.8.2/../../../arm-none-eabi/lib/armv7-m/libg.a(lib_a-locale.o)
 .text._setlocale_r
                0x00000000080091b4       0x54 /usr/lib/gcc/arm-none-eabi/4.8.2/../../../arm-none-eabi/lib/armv7-m/libg.a(lib_a-locale.o)
                0x00000000080091b4                _setlocale_r
 .text.__locale_charset
                0x0000000008009208        0xc /usr/lib/gcc/arm-none-eabi/4.8.2/../../../arm-none-eabi/lib/armv7-m/libg.a(lib_a-locale.o)
                0x0000000008009208                __locale_charset
 .text.__locale_mb_cur_max
                0x0000000008009214        0xc /usr/lib/gcc/arm-none-eabi/4.8.2/../../../arm-none-eabi/lib/armv7-m/libg.a(lib_a-locale.o)
                0x0000000008009214                __locale_mb_cur_max
 .text.__locale_msgcharset
                0x0000000008009220        0xc /usr/lib/gcc/arm-none-eabi/4.8.2/../../../arm-none-eabi/lib/armv7-m/libg.a(lib_a-locale.o)
                0x0000000008009220                __locale_msgcharset
 .text.__locale_cjk_lang
                0x000000000800922c        0x4 /usr/lib/gcc/arm-none-eabi/4.8.2/../../../arm-none-eabi/lib/armv7-m/libg.a(lib_a-locale.o)
                0x000000000800922c                __locale_cjk_lang
 .text._localeconv_r
                0x0000000008009230        0xc /usr/lib/gcc/arm-none-eabi/4.8.2/../../../arm-none-eabi/lib/armv7-m/libg.a(lib_a-locale.o)
                0x0000000008009230                _localeconv_r
 .text.setlocale
                0x000000000800923c       0x14 /usr/lib/gcc/arm-none-eabi/4.8.2/../../../arm-none-eabi/lib/armv7-m/libg.a(lib_a-locale.o)
                0x000000000800923c                setlocale
 .text.localeconv
                0x0000000008009250        0xc /usr/lib/gcc/arm-none-eabi/4.8.2/../../../arm-none-eabi/lib/armv7-m/libg.a(lib_a-locale.o)
                0x0000000008009250                localeconv
 .text          0x000000000800925c        0x0 /usr/lib/gcc/arm-none-eabi/4.8.2/../../../arm-none-eabi/lib/armv7-m/libg.a(lib_a-makebuf.o)
 .text.__smakebuf_r
                0x000000000800925c       0xe4 /usr/lib/gcc/arm-none-eabi/4.8.2/../../../arm-none-eabi/lib/armv7-m/libg.a(lib_a-makebuf.o)
                0x000000000800925c                __smakebuf_r
 .text          0x0000000008009340        0x0 /usr/lib/gcc/arm-none-eabi/4.8.2/../../../arm-none-eabi/lib/armv7-m/libg.a(lib_a-mallocr.o)
 .text._malloc_r
                0x0000000008009340      0x564 /usr/lib/gcc/arm-none-eabi/4.8.2/../../../arm-none-eabi/lib/armv7-m/libg.a(lib_a-mallocr.o)
                0x0000000008009340                _malloc_r
 .text          0x00000000080098a4        0x0 /usr/lib/gcc/arm-none-eabi/4.8.2/../../../arm-none-eabi/lib/armv7-m/libg.a(lib_a-memchr-stub.o)
 .text.memchr   0x00000000080098a4       0x94 /usr/lib/gcc/arm-none-eabi/4.8.2/../../../arm-none-eabi/lib/armv7-m/libg.a(lib_a-memchr-stub.o)
                0x00000000080098a4                memchr
 .text          0x0000000008009938        0x0 /usr/lib/gcc/arm-none-eabi/4.8.2/../../../arm-none-eabi/lib/armv7-m/libg.a(lib_a-memmove.o)
 .text.memmove  0x0000000008009938       0xcc /usr/lib/gcc/arm-none-eabi/4.8.2/../../../arm-none-eabi/lib/armv7-m/libg.a(lib_a-memmove.o)
                0x0000000008009938                memmove
 .text          0x0000000008009a04        0x0 /usr/lib/gcc/arm-none-eabi/4.8.2/../../../arm-none-eabi/lib/armv7-m/libg.a(lib_a-mlock.o)
 .text.__malloc_lock
                0x0000000008009a04        0x4 /usr/lib/gcc/arm-none-eabi/4.8.2/../../../arm-none-eabi/lib/armv7-m/libg.a(lib_a-mlock.o)
                0x0000000008009a04                __malloc_lock
 .text.__malloc_unlock
                0x0000000008009a08        0x4 /usr/lib/gcc/arm-none-eabi/4.8.2/../../../arm-none-eabi/lib/armv7-m/libg.a(lib_a-mlock.o)
                0x0000000008009a08                __malloc_unlock
 .text          0x0000000008009a0c        0x0 /usr/lib/gcc/arm-none-eabi/4.8.2/../../../arm-none-eabi/lib/armv7-m/libg.a(lib_a-mprec.o)
 .text._Balloc  0x0000000008009a0c       0x4c /usr/lib/gcc/arm-none-eabi/4.8.2/../../../arm-none-eabi/lib/armv7-m/libg.a(lib_a-mprec.o)
                0x0000000008009a0c                _Balloc
 .text._Bfree   0x0000000008009a58       0x14 /usr/lib/gcc/arm-none-eabi/4.8.2/../../../arm-none-eabi/lib/armv7-m/libg.a(lib_a-mprec.o)
                0x0000000008009a58                _Bfree
 .text.__multadd
                0x0000000008009a6c       0x94 /usr/lib/gcc/arm-none-eabi/4.8.2/../../../arm-none-eabi/lib/armv7-m/libg.a(lib_a-mprec.o)
                0x0000000008009a6c                __multadd
 .text.__s2b    0x0000000008009b00       0x9c /usr/lib/gcc/arm-none-eabi/4.8.2/../../../arm-none-eabi/lib/armv7-m/libg.a(lib_a-mprec.o)
                0x0000000008009b00                __s2b
 .text.__hi0bits
                0x0000000008009b9c       0x3c /usr/lib/gcc/arm-none-eabi/4.8.2/../../../arm-none-eabi/lib/armv7-m/libg.a(lib_a-mprec.o)
                0x0000000008009b9c                __hi0bits
 .text.__lo0bits
                0x0000000008009bd8       0x5c /usr/lib/gcc/arm-none-eabi/4.8.2/../../../arm-none-eabi/lib/armv7-m/libg.a(lib_a-mprec.o)
                0x0000000008009bd8                __lo0bits
 .text.__i2b    0x0000000008009c34       0x14 /usr/lib/gcc/arm-none-eabi/4.8.2/../../../arm-none-eabi/lib/armv7-m/libg.a(lib_a-mprec.o)
                0x0000000008009c34                __i2b
 .text.__multiply
                0x0000000008009c48      0x154 /usr/lib/gcc/arm-none-eabi/4.8.2/../../../arm-none-eabi/lib/armv7-m/libg.a(lib_a-mprec.o)
                0x0000000008009c48                __multiply
 .text.__pow5mult
                0x0000000008009d9c       0xa0 /usr/lib/gcc/arm-none-eabi/4.8.2/../../../arm-none-eabi/lib/armv7-m/libg.a(lib_a-mprec.o)
                0x0000000008009d9c                __pow5mult
 .text.__lshift
                0x0000000008009e3c       0xbc /usr/lib/gcc/arm-none-eabi/4.8.2/../../../arm-none-eabi/lib/armv7-m/libg.a(lib_a-mprec.o)
                0x0000000008009e3c                __lshift
 .text.__mcmp   0x0000000008009ef8       0x44 /usr/lib/gcc/arm-none-eabi/4.8.2/../../../arm-none-eabi/lib/armv7-m/libg.a(lib_a-mprec.o)
                0x0000000008009ef8                __mcmp
 .text.__mdiff  0x0000000008009f3c       0xd4 /usr/lib/gcc/arm-none-eabi/4.8.2/../../../arm-none-eabi/lib/armv7-m/libg.a(lib_a-mprec.o)
                0x0000000008009f3c                __mdiff
 .text.__ulp    0x000000000800a010       0x40 /usr/lib/gcc/arm-none-eabi/4.8.2/../../../arm-none-eabi/lib/armv7-m/libg.a(lib_a-mprec.o)
                0x000000000800a010                __ulp
 .text.__b2d    0x000000000800a050       0xb8 /usr/lib/gcc/arm-none-eabi/4.8.2/../../../arm-none-eabi/lib/armv7-m/libg.a(lib_a-mprec.o)
                0x000000000800a050                __b2d
 .text.__d2b    0x000000000800a108       0xbc /usr/lib/gcc/arm-none-eabi/4.8.2/../../../arm-none-eabi/lib/armv7-m/libg.a(lib_a-mprec.o)
                0x000000000800a108                __d2b
 .text.__ratio  0x000000000800a1c4       0x5c /usr/lib/gcc/arm-none-eabi/4.8.2/../../../arm-none-eabi/lib/armv7-m/libg.a(lib_a-mprec.o)
                0x000000000800a1c4                __ratio
 .text._mprec_log10
                0x000000000800a220       0x34 /usr/lib/gcc/arm-none-eabi/4.8.2/../../../arm-none-eabi/lib/armv7-m/libg.a(lib_a-mprec.o)
                0x000000000800a220                _mprec_log10
 .text.__copybits
                0x000000000800a254       0x48 /usr/lib/gcc/arm-none-eabi/4.8.2/../../../arm-none-eabi/lib/armv7-m/libg.a(lib_a-mprec.o)
                0x000000000800a254                __copybits
 .text.__any_on
                0x000000000800a29c       0x5c /usr/lib/gcc/arm-none-eabi/4.8.2/../../../arm-none-eabi/lib/armv7-m/libg.a(lib_a-mprec.o)
                0x000000000800a29c                __any_on
 .text          0x000000000800a2f8        0x0 /usr/lib/gcc/arm-none-eabi/4.8.2/../../../arm-none-eabi/lib/armv7-m/libg.a(lib_a-reallocr.o)
 .text._realloc_r
                0x000000000800a2f8      0x3e4 /usr/lib/gcc/arm-none-eabi/4.8.2/../../../arm-none-eabi/lib/armv7-m/libg.a(lib_a-reallocr.o)
                0x000000000800a2f8                _realloc_r
 .text          0x000000000800a6dc        0x0 /usr/lib/gcc/arm-none-eabi/4.8.2/../../../arm-none-eabi/lib/armv7-m/libg.a(lib_a-s_fpclassify.o)
 .text.__fpclassifyd
                0x000000000800a6dc       0x50 /usr/lib/gcc/arm-none-eabi/4.8.2/../../../arm-none-eabi/lib/armv7-m/libg.a(lib_a-s_fpclassify.o)
                0x000000000800a6dc                __fpclassifyd
 .text          0x000000000800a72c        0x0 /usr/lib/gcc/arm-none-eabi/4.8.2/../../../arm-none-eabi/lib/armv7-m/libg.a(lib_a-sbrkr.o)
 .text._sbrk_r  0x000000000800a72c       0x28 /usr/lib/gcc/arm-none-eabi/4.8.2/../../../arm-none-eabi/lib/armv7-m/libg.a(lib_a-sbrkr.o)
                0x000000000800a72c                _sbrk_r
 .text          0x000000000800a754        0x0 /usr/lib/gcc/arm-none-eabi/4.8.2/../../../arm-none-eabi/lib/armv7-m/libg.a(lib_a-stdio.o)
 .text.__sread  0x000000000800a754       0x24 /usr/lib/gcc/arm-none-eabi/4.8.2/../../../arm-none-eabi/lib/armv7-m/libg.a(lib_a-stdio.o)
                0x000000000800a754                __sread
 .text.__seofread
                0x000000000800a778        0x4 /usr/lib/gcc/arm-none-eabi/4.8.2/../../../arm-none-eabi/lib/armv7-m/libg.a(lib_a-stdio.o)
                0x000000000800a778                __seofread
 .text.__swrite
                0x000000000800a77c       0x38 /usr/lib/gcc/arm-none-eabi/4.8.2/../../../arm-none-eabi/lib/armv7-m/libg.a(lib_a-stdio.o)
                0x000000000800a77c                __swrite
 .text.__sseek  0x000000000800a7b4       0x20 /usr/lib/gcc/arm-none-eabi/4.8.2/../../../arm-none-eabi/lib/armv7-m/libg.a(lib_a-stdio.o)
                0x000000000800a7b4                __sseek
 .text.__sclose
                0x000000000800a7d4        0x8 /usr/lib/gcc/arm-none-eabi/4.8.2/../../../arm-none-eabi/lib/armv7-m/libg.a(lib_a-stdio.o)
                0x000000000800a7d4                __sclose
 .text          0x000000000800a7dc      0x23c /usr/lib/gcc/arm-none-eabi/4.8.2/../../../arm-none-eabi/lib/armv7-m/libg.a(lib_a-strcmp.o)
                0x000000000800a7dc                strcmp
 .text          0x000000000800aa18        0x0 /usr/lib/gcc/arm-none-eabi/4.8.2/../../../arm-none-eabi/lib/armv7-m/libg.a(lib_a-vfiprintf.o)
 .text.__sprint_r.part.0
                0x000000000800aa18       0x7c /usr/lib/gcc/arm-none-eabi/4.8.2/../../../arm-none-eabi/lib/armv7-m/libg.a(lib_a-vfiprintf.o)
 .text.__sprint_r
                0x000000000800aa94       0x18 /usr/lib/gcc/arm-none-eabi/4.8.2/../../../arm-none-eabi/lib/armv7-m/libg.a(lib_a-vfiprintf.o)
                0x000000000800aa94                __sprint_r
 .text._vfiprintf_r
                0x000000000800aaac      0xc04 /usr/lib/gcc/arm-none-eabi/4.8.2/../../../arm-none-eabi/lib/armv7-m/libg.a(lib_a-vfiprintf.o)
                0x000000000800aaac                _vfiprintf_r
 .text.vfiprintf
                0x000000000800b6b0       0x1c /usr/lib/gcc/arm-none-eabi/4.8.2/../../../arm-none-eabi/lib/armv7-m/libg.a(lib_a-vfiprintf.o)
                0x000000000800b6b0                vfiprintf
 .text.__sbprintf
                0x000000000800b6cc       0x7c /usr/lib/gcc/arm-none-eabi/4.8.2/../../../arm-none-eabi/lib/armv7-m/libg.a(lib_a-vfiprintf.o)
 .text          0x000000000800b748        0x0 /usr/lib/gcc/arm-none-eabi/4.8.2/../../../arm-none-eabi/lib/armv7-m/libg.a(lib_a-writer.o)
 .text._write_r
                0x000000000800b748       0x2c /usr/lib/gcc/arm-none-eabi/4.8.2/../../../arm-none-eabi/lib/armv7-m/libg.a(lib_a-writer.o)
                0x000000000800b748                _write_r
 .text          0x000000000800b774        0x0 /usr/lib/gcc/arm-none-eabi/4.8.2/../../../arm-none-eabi/lib/armv7-m/libg.a(lib_a-callocr.o)
 .text._calloc_r
                0x000000000800b774       0x60 /usr/lib/gcc/arm-none-eabi/4.8.2/../../../arm-none-eabi/lib/armv7-m/libg.a(lib_a-callocr.o)
                0x000000000800b774                _calloc_r
 .text          0x000000000800b7d4        0x0 /usr/lib/gcc/arm-none-eabi/4.8.2/../../../arm-none-eabi/lib/armv7-m/libg.a(lib_a-closer.o)
 .text._close_r
                0x000000000800b7d4       0x28 /usr/lib/gcc/arm-none-eabi/4.8.2/../../../arm-none-eabi/lib/armv7-m/libg.a(lib_a-closer.o)
                0x000000000800b7d4                _close_r
 .text          0x000000000800b7fc        0x0 /usr/lib/gcc/arm-none-eabi/4.8.2/../../../arm-none-eabi/lib/armv7-m/libg.a(lib_a-fclose.o)
 .text._fclose_r
                0x000000000800b7fc       0x84 /usr/lib/gcc/arm-none-eabi/4.8.2/../../../arm-none-eabi/lib/armv7-m/libg.a(lib_a-fclose.o)
                0x000000000800b7fc                _fclose_r
 .text.fclose   0x000000000800b880       0x10 /usr/lib/gcc/arm-none-eabi/4.8.2/../../../arm-none-eabi/lib/armv7-m/libg.a(lib_a-fclose.o)
                0x000000000800b880                fclose
 .text          0x000000000800b890        0x0 /usr/lib/gcc/arm-none-eabi/4.8.2/../../../arm-none-eabi/lib/armv7-m/libg.a(lib_a-fputwc.o)
 .text._fputwc_r
                0x000000000800b890       0xc0 /usr/lib/gcc/arm-none-eabi/4.8.2/../../../arm-none-eabi/lib/armv7-m/libg.a(lib_a-fputwc.o)
                0x000000000800b890                _fputwc_r
 .text.fputwc   0x000000000800b950       0x2c /usr/lib/gcc/arm-none-eabi/4.8.2/../../../arm-none-eabi/lib/armv7-m/libg.a(lib_a-fputwc.o)
                0x000000000800b950                fputwc
 .text          0x000000000800b97c        0x0 /usr/lib/gcc/arm-none-eabi/4.8.2/../../../arm-none-eabi/lib/armv7-m/libg.a(lib_a-fstatr.o)
 .text._fstat_r
                0x000000000800b97c       0x28 /usr/lib/gcc/arm-none-eabi/4.8.2/../../../arm-none-eabi/lib/armv7-m/libg.a(lib_a-fstatr.o)
                0x000000000800b97c                _fstat_r
 .text          0x000000000800b9a4        0x0 /usr/lib/gcc/arm-none-eabi/4.8.2/../../../arm-none-eabi/lib/armv7-m/libg.a(lib_a-isattyr.o)
 .text._isatty_r
                0x000000000800b9a4       0x28 /usr/lib/gcc/arm-none-eabi/4.8.2/../../../arm-none-eabi/lib/armv7-m/libg.a(lib_a-isattyr.o)
                0x000000000800b9a4                _isatty_r
 .text          0x000000000800b9cc        0x0 /usr/lib/gcc/arm-none-eabi/4.8.2/../../../arm-none-eabi/lib/armv7-m/libg.a(lib_a-lseekr.o)
 .text._lseek_r
                0x000000000800b9cc       0x2c /usr/lib/gcc/arm-none-eabi/4.8.2/../../../arm-none-eabi/lib/armv7-m/libg.a(lib_a-lseekr.o)
                0x000000000800b9cc                _lseek_r
 .text          0x000000000800b9f8        0x0 /usr/lib/gcc/arm-none-eabi/4.8.2/../../../arm-none-eabi/lib/armv7-m/libg.a(lib_a-readr.o)
 .text._read_r  0x000000000800b9f8       0x2c /usr/lib/gcc/arm-none-eabi/4.8.2/../../../arm-none-eabi/lib/armv7-m/libg.a(lib_a-readr.o)
                0x000000000800b9f8                _read_r
 .text          0x000000000800ba24        0x0 /usr/lib/gcc/arm-none-eabi/4.8.2/../../../arm-none-eabi/lib/armv7-m/libg.a(lib_a-reent.o)
 .text.cleanup_glue
                0x000000000800ba24       0x1c /usr/lib/gcc/arm-none-eabi/4.8.2/../../../arm-none-eabi/lib/armv7-m/libg.a(lib_a-reent.o)
                0x000000000800ba24                cleanup_glue
 .text._reclaim_reent
                0x000000000800ba40       0x94 /usr/lib/gcc/arm-none-eabi/4.8.2/../../../arm-none-eabi/lib/armv7-m/libg.a(lib_a-reent.o)
                0x000000000800ba40                _reclaim_reent
 .text          0x000000000800bad4        0x0 /usr/lib/gcc/arm-none-eabi/4.8.2/../../../arm-none-eabi/lib/armv7-m/libg.a(lib_a-wbuf.o)
 .text.__swbuf_r
                0x000000000800bad4       0xa4 /usr/lib/gcc/arm-none-eabi/4.8.2/../../../arm-none-eabi/lib/armv7-m/libg.a(lib_a-wbuf.o)
                0x000000000800bad4                __swbuf_r
 .text.__swbuf  0x000000000800bb78       0x14 /usr/lib/gcc/arm-none-eabi/4.8.2/../../../arm-none-eabi/lib/armv7-m/libg.a(lib_a-wbuf.o)
                0x000000000800bb78                __swbuf
 .text          0x000000000800bb8c        0x0 /usr/lib/gcc/arm-none-eabi/4.8.2/../../../arm-none-eabi/lib/armv7-m/libg.a(lib_a-wcrtomb.o)
 .text._wcrtomb_r
                0x000000000800bb8c       0x58 /usr/lib/gcc/arm-none-eabi/4.8.2/../../../arm-none-eabi/lib/armv7-m/libg.a(lib_a-wcrtomb.o)
                0x000000000800bb8c                _wcrtomb_r
 .text.wcrtomb  0x000000000800bbe4       0x5c /usr/lib/gcc/arm-none-eabi/4.8.2/../../../arm-none-eabi/lib/armv7-m/libg.a(lib_a-wcrtomb.o)
                0x000000000800bbe4                wcrtomb
 .text          0x000000000800bc40        0x0 /usr/lib/gcc/arm-none-eabi/4.8.2/../../../arm-none-eabi/lib/armv7-m/libg.a(lib_a-wctomb_r.o)
 .text.__ascii_wctomb
                0x000000000800bc40       0x1c /usr/lib/gcc/arm-none-eabi/4.8.2/../../../arm-none-eabi/lib/armv7-m/libg.a(lib_a-wctomb_r.o)
                0x000000000800bc40                __ascii_wctomb
 .text._wctomb_r
                0x000000000800bc5c       0x30 /usr/lib/gcc/arm-none-eabi/4.8.2/../../../arm-none-eabi/lib/armv7-m/libg.a(lib_a-wctomb_r.o)
                0x000000000800bc5c                _wctomb_r
 .text          0x000000000800bc8c      0x370 /usr/lib/gcc/arm-none-eabi/4.8.2/armv7-m/libgcc.a(_arm_addsubdf3.o)
                0x000000000800bc8c                __aeabi_drsub
                0x000000000800bc94                __aeabi_dsub
                0x000000000800bc94                __subdf3
                0x000000000800bc98                __adddf3
                0x000000000800bc98                __aeabi_dadd
                0x000000000800bf10                __aeabi_ui2d
                0x000000000800bf10                __floatunsidf
                0x000000000800bf30                __floatsidf
                0x000000000800bf30                __aeabi_i2d
                0x000000000800bf54                __extendsfdf2
                0x000000000800bf54                __aeabi_f2d
                0x000000000800bf90                __aeabi_ul2d
                0x000000000800bf90                __floatundidf
                0x000000000800bfa0                __floatdidf
                0x000000000800bfa0                __aeabi_l2d
 .text          0x000000000800bffc      0x424 /usr/lib/gcc/arm-none-eabi/4.8.2/armv7-m/libgcc.a(_arm_muldivdf3.o)
                0x000000000800bffc                __aeabi_dmul
                0x000000000800bffc                __muldf3
                0x000000000800c250                __aeabi_ddiv
                0x000000000800c250                __divdf3
 .text          0x000000000800c420      0x110 /usr/lib/gcc/arm-none-eabi/4.8.2/armv7-m/libgcc.a(_arm_cmpdf2.o)
                0x000000000800c420                __gtdf2
                0x000000000800c420                __gedf2
                0x000000000800c428                __ltdf2
                0x000000000800c428                __ledf2
                0x000000000800c430                __cmpdf2
                0x000000000800c430                __eqdf2
                0x000000000800c430                __nedf2
                0x000000000800c4ac                __aeabi_cdrcmple
                0x000000000800c4bc                __aeabi_cdcmple
                0x000000000800c4bc                __aeabi_cdcmpeq
                0x000000000800c4cc                __aeabi_dcmpeq
                0x000000000800c4e0                __aeabi_dcmplt
                0x000000000800c4f4                __aeabi_dcmple
                0x000000000800c508                __aeabi_dcmpge
                0x000000000800c51c                __aeabi_dcmpgt
 .text          0x000000000800c530       0x50 /usr/lib/gcc/arm-none-eabi/4.8.2/armv7-m/libgcc.a(_arm_fixdfsi.o)
                0x000000000800c530                __fixdfsi
                0x000000000800c530                __aeabi_d2iz
 .text          0x000000000800c580       0x2c /usr/lib/gcc/arm-none-eabi/4.8.2/armv7-m/libgcc.a(_aeabi_uldivmod.o)
                0x000000000800c580                __aeabi_uldivmod
 .text          0x000000000800c5ac       0x60 /usr/lib/gcc/arm-none-eabi/4.8.2/armv7-m/libgcc.a(bpabi.o)
                0x000000000800c5ac                __gnu_ldivmod_helper
                0x000000000800c5dc                __gnu_uldivmod_helper
 .text          0x000000000800c60c        0x4 /usr/lib/gcc/arm-none-eabi/4.8.2/armv7-m/libgcc.a(_dvmd_tls.o)
                0x000000000800c60c                __aeabi_ldiv0
                0x000000000800c60c                __aeabi_idiv0
 .text          0x000000000800c610      0x2bc /usr/lib/gcc/arm-none-eabi/4.8.2/armv7-m/libgcc.a(_divdi3.o)
                0x000000000800c610                __divdi3
 .text          0x000000000800c8cc      0x284 /usr/lib/gcc/arm-none-eabi/4.8.2/armv7-m/libgcc.a(_udivdi3.o)
                0x000000000800c8cc                __udivdi3
 *(.glue_7)
 .glue_7        0x0000000000000000        0x0 linker stubs
 *(.glue_7t)
 .glue_7t       0x0000000000000000        0x0 linker stubs
 *(.rodata .rodata* .gnu.linkonce.r*)
 .rodata        0x000000000800cb50        0x8 /tmp/ccwLsclw.o
 .rodata        0x000000000800cb58        0x4 /tmp/ccmixTjV.o
                0x000000000800cb58                ulKernelPriority
 .rodata        0x000000000800cb5c      0x140 /tmp/cc7LKoKJ.o
 .rodata        0x000000000800cc9c       0x5c /tmp/ccwvsJNY.o
 .rodata.str1.4
                0x000000000800ccf8        0x2 /usr/lib/gcc/arm-none-eabi/4.8.2/../../../arm-none-eabi/lib/armv7-m/libg.a(lib_a-puts.o)
                                          0x4 (size before relaxing)
 *fill*         0x000000000800ccfa        0x2 
 .rodata.zeroes.6775
                0x000000000800ccfc       0x10 /usr/lib/gcc/arm-none-eabi/4.8.2/../../../arm-none-eabi/lib/armv7-m/libg.a(lib_a-vfprintf.o)
 .rodata.str1.4
                0x000000000800cd0c       0x42 /usr/lib/gcc/arm-none-eabi/4.8.2/../../../arm-none-eabi/lib/armv7-m/libg.a(lib_a-vfprintf.o)
                                         0x44 (size before relaxing)
 *fill*         0x000000000800cd4e        0x2 
 .rodata.blanks.6774
                0x000000000800cd50       0x10 /usr/lib/gcc/arm-none-eabi/4.8.2/../../../arm-none-eabi/lib/armv7-m/libg.a(lib_a-vfprintf.o)
 .rodata.str1.4
                0x000000000800cd60       0x10 /usr/lib/gcc/arm-none-eabi/4.8.2/../../../arm-none-eabi/lib/armv7-m/libg.a(lib_a-dtoa.o)
                                         0x14 (size before relaxing)
 .rodata.str1.4
                0x000000000800cd70        0x2 /usr/lib/gcc/arm-none-eabi/4.8.2/../../../arm-none-eabi/lib/armv7-m/libg.a(lib_a-impure.o)
                                          0x4 (size before relaxing)
 *fill*         0x000000000800cd72        0x2 
 .rodata._global_impure_ptr
                0x000000000800cd74        0x4 /usr/lib/gcc/arm-none-eabi/4.8.2/../../../arm-none-eabi/lib/armv7-m/libg.a(lib_a-impure.o)
                0x000000000800cd74                _global_impure_ptr
 .rodata.str1.4
                0x000000000800cd78        0xc /usr/lib/gcc/arm-none-eabi/4.8.2/../../../arm-none-eabi/lib/armv7-m/libg.a(lib_a-locale.o)
                                         0x14 (size before relaxing)
 *fill*         0x000000000800cd84        0x4 
 .rodata.__mprec_tens
                0x000000000800cd88       0xc8 /usr/lib/gcc/arm-none-eabi/4.8.2/../../../arm-none-eabi/lib/armv7-m/libg.a(lib_a-mprec.o)
                0x000000000800cd88                __mprec_tens
 .rodata.__mprec_bigtens
                0x000000000800ce50       0x28 /usr/lib/gcc/arm-none-eabi/4.8.2/../../../arm-none-eabi/lib/armv7-m/libg.a(lib_a-mprec.o)
                0x000000000800ce50                __mprec_bigtens
 .rodata.p05.5266
                0x000000000800ce78        0xc /usr/lib/gcc/arm-none-eabi/4.8.2/../../../arm-none-eabi/lib/armv7-m/libg.a(lib_a-mprec.o)
 *fill*         0x000000000800ce84        0x4 
 .rodata.__mprec_tinytens
                0x000000000800ce88       0x28 /usr/lib/gcc/arm-none-eabi/4.8.2/../../../arm-none-eabi/lib/armv7-m/libg.a(lib_a-mprec.o)
                0x000000000800ce88                __mprec_tinytens
 .rodata.blanks.6717
                0x000000000800ceb0       0x10 /usr/lib/gcc/arm-none-eabi/4.8.2/../../../arm-none-eabi/lib/armv7-m/libg.a(lib_a-vfiprintf.o)
 .rodata.str1.4
                0x0000000000000000       0x30 /usr/lib/gcc/arm-none-eabi/4.8.2/../../../arm-none-eabi/lib/armv7-m/libg.a(lib_a-vfiprintf.o)
 .rodata.zeroes.6718
                0x000000000800cec0       0x10 /usr/lib/gcc/arm-none-eabi/4.8.2/../../../arm-none-eabi/lib/armv7-m/libg.a(lib_a-vfiprintf.o)
                0x000000000800ced0                . = ALIGN (0x4)
 *(.init)
                0x000000000800ced0                . = ALIGN (0x4)
                0x000000000800ced0                __preinit_array_start = .
 *(.preinit_array)
                0x000000000800ced0                __preinit_array_end = .
                0x000000000800ced0                . = ALIGN (0x4)
                0x000000000800ced0                __init_array_start = .
 *(SORT(.init_array.*))
 *(.init_array)
                0x000000000800ced0                __init_array_end = .
                0x000000000800ced0                . = ALIGN (0x4)
 *(.fini)
                0x000000000800ced0                . = ALIGN (0x4)
                0x000000000800ced0                __fini_array_start = .
 *(SORT(.fini_array.*))
 *(.fini_array)
                0x000000000800ced0                __fini_array_end = .
                0x000000000800ced0                . = ALIGN (0x4)
 *crtbegin.o(.ctors)
 *(EXCLUDE_FILE(*crtend.o) .ctors)
 *(SORT(.ctors.*))
 *crtend.o(.ctors)
                0x000000000800ced0                . = ALIGN (0x4)
 *crtbegin.o(.dtors)
 *(EXCLUDE_FILE(*crtend.o) .dtors)
 *(SORT(.dtors.*))
 *crtend.o(.dtors)

.vfp11_veneer   0x000000000800ced0        0x0
 .vfp11_veneer  0x0000000000000000        0x0 linker stubs

.v4_bx          0x000000000800ced0        0x0
 .v4_bx         0x0000000000000000        0x0 linker stubs

.iplt           0x000000000800ced0        0x0
 .iplt          0x0000000000000000        0x0 /tmp/ccYeW5MD.o

.igot.plt       0x000000000800ced0        0x0
 .igot.plt      0x0000000000000000        0x0 /tmp/ccYeW5MD.o
                0x000000000800ced0                . = ALIGN (0x4)

.ARM.extab      0x000000000800ced0        0x0
 *(.ARM.extab* .gnu.linkonce.armextab.*)
 .ARM.extab     0x000000000800ced0        0x0 /usr/lib/gcc/arm-none-eabi/4.8.2/armv7-m/libgcc.a(_divdi3.o)
 .ARM.extab     0x000000000800ced0        0x0 /usr/lib/gcc/arm-none-eabi/4.8.2/armv7-m/libgcc.a(_udivdi3.o)

.ARM.exidx      0x000000000800ced0        0x8
                0x000000000800ced0                __exidx_start = .
 *(.ARM.exidx* .gnu.linkonce.armexidx.*)
 .ARM.exidx     0x000000000800ced0        0x8 /usr/lib/gcc/arm-none-eabi/4.8.2/armv7-m/libgcc.a(_divdi3.o)
 .ARM.exidx     0x000000000800ced8        0x0 /usr/lib/gcc/arm-none-eabi/4.8.2/armv7-m/libgcc.a(_udivdi3.o)
                                          0x8 (size before relaxing)
                0x000000000800ced8                __exidx_end = .
                0x000000000800ced8                _sidata = .

.rel.dyn        0x000000000800ced8        0x0
 .rel.iplt      0x0000000000000000        0x0 /tmp/ccYeW5MD.o

.relocate       0x0000000020000000      0x8fc load address 0x000000000800ced8
                0x0000000020000000                . = ALIGN (0x4)
                0x0000000020000000                _sdata = .
 *(.ramfunc .ramfunc.*)
 *(.data .data.*)
 .data          0x0000000020000000       0x14 /tmp/ccYeW5MD.o
                0x0000000020000000                SystemCoreClock
                0x0000000020000004                AHBPrescTable
 .data          0x0000000020000014        0x0 /tmp/ccy457S0.o
 .data          0x0000000020000014       0x10 /tmp/ccfKhGdo.o
 .data          0x0000000020000024        0x0 /tmp/ccdQTPML.o
 .data          0x0000000020000024        0x0 /tmp/ccvbLNB9.o
 .data          0x0000000020000024        0x0 /tmp/ccYMHmDx.o
 .data          0x0000000020000024        0x0 /tmp/ccgr0JQV.o
 .data          0x0000000020000024        0x0 /tmp/ccBXF9fk.o
 .data          0x0000000020000024        0x0 /tmp/ccWTSJMI.o
 .data          0x0000000020000024        0x0 /tmp/ccfsXes7.o
 .data          0x0000000020000024        0x4 /tmp/ccwLsclw.o
 .data          0x0000000020000028        0x4 /tmp/ccmixTjV.o
 .data          0x000000002000002c        0x0 /tmp/ccQtMXok.o
 .data          0x000000002000002c       0x14 /tmp/cc7LKoKJ.o
 .data          0x0000000020000040        0x0 /tmp/cczzK2f9.o
 .data          0x0000000020000040        0x0 /tmp/ccDAaAUy.o
 .data          0x0000000020000040        0x0 /tmp/ccwvsJNY.o
 .data          0x0000000020000040        0x0 /usr/lib/gcc/arm-none-eabi/4.8.2/../../../arm-none-eabi/lib/armv7-m/libg.a(lib_a-memcpy.o)
 .data          0x0000000020000040        0x0 /usr/lib/gcc/arm-none-eabi/4.8.2/../../../arm-none-eabi/lib/armv7-m/libg.a(lib_a-memset.o)
 .data          0x0000000020000040        0x0 /usr/lib/gcc/arm-none-eabi/4.8.2/../../../arm-none-eabi/lib/armv7-m/libg.a(lib_a-printf.o)
 .data          0x0000000020000040        0x0 /usr/lib/gcc/arm-none-eabi/4.8.2/../../../arm-none-eabi/lib/armv7-m/libg.a(lib_a-puts.o)
 .data          0x0000000020000040        0x0 /usr/lib/gcc/arm-none-eabi/4.8.2/../../../arm-none-eabi/lib/armv7-m/libg.a(lib_a-strlen.o)
 .data          0x0000000020000040        0x0 /usr/lib/gcc/arm-none-eabi/4.8.2/../../../arm-none-eabi/lib/armv7-m/libg.a(lib_a-strncpy.o)
 .data          0x0000000020000040        0x0 /usr/lib/gcc/arm-none-eabi/4.8.2/../../../arm-none-eabi/lib/armv7-m/libg.a(lib_a-vfprintf.o)
 .data          0x0000000020000040        0x0 /usr/lib/gcc/arm-none-eabi/4.8.2/../../../arm-none-eabi/lib/armv7-m/libg.a(lib_a-wsetup.o)
 .data          0x0000000020000040        0x0 /usr/lib/gcc/arm-none-eabi/4.8.2/../../../arm-none-eabi/lib/armv7-m/libg.a(lib_a-dtoa.o)
 .data          0x0000000020000040        0x0 /usr/lib/gcc/arm-none-eabi/4.8.2/../../../arm-none-eabi/lib/armv7-m/libg.a(lib_a-fflush.o)
 .data          0x0000000020000040        0x0 /usr/lib/gcc/arm-none-eabi/4.8.2/../../../arm-none-eabi/lib/armv7-m/libg.a(lib_a-findfp.o)
 .data          0x0000000020000040        0x0 /usr/lib/gcc/arm-none-eabi/4.8.2/../../../arm-none-eabi/lib/armv7-m/libg.a(lib_a-freer.o)
 .data          0x0000000020000040        0x0 /usr/lib/gcc/arm-none-eabi/4.8.2/../../../arm-none-eabi/lib/armv7-m/libg.a(lib_a-fvwrite.o)
 .data          0x0000000020000040        0x0 /usr/lib/gcc/arm-none-eabi/4.8.2/../../../arm-none-eabi/lib/armv7-m/libg.a(lib_a-fwalk.o)
 .data          0x0000000020000040        0x0 /usr/lib/gcc/arm-none-eabi/4.8.2/../../../arm-none-eabi/lib/armv7-m/libg.a(lib_a-impure.o)
 .data.impure_data
                0x0000000020000040      0x428 /usr/lib/gcc/arm-none-eabi/4.8.2/../../../arm-none-eabi/lib/armv7-m/libg.a(lib_a-impure.o)
 .data._impure_ptr
                0x0000000020000468        0x4 /usr/lib/gcc/arm-none-eabi/4.8.2/../../../arm-none-eabi/lib/armv7-m/libg.a(lib_a-impure.o)
                0x0000000020000468                _impure_ptr
 .data          0x000000002000046c        0x0 /usr/lib/gcc/arm-none-eabi/4.8.2/../../../arm-none-eabi/lib/armv7-m/libg.a(lib_a-locale.o)
 .data.lc_message_charset
                0x000000002000046c       0x20 /usr/lib/gcc/arm-none-eabi/4.8.2/../../../arm-none-eabi/lib/armv7-m/libg.a(lib_a-locale.o)
 .data.lconv    0x000000002000048c       0x38 /usr/lib/gcc/arm-none-eabi/4.8.2/../../../arm-none-eabi/lib/armv7-m/libg.a(lib_a-locale.o)
 .data.lc_ctype_charset
                0x00000000200004c4       0x20 /usr/lib/gcc/arm-none-eabi/4.8.2/../../../arm-none-eabi/lib/armv7-m/libg.a(lib_a-locale.o)
 .data.__mb_cur_max
                0x00000000200004e4        0x4 /usr/lib/gcc/arm-none-eabi/4.8.2/../../../arm-none-eabi/lib/armv7-m/libg.a(lib_a-locale.o)
                0x00000000200004e4                __mb_cur_max
 .data          0x00000000200004e8        0x0 /usr/lib/gcc/arm-none-eabi/4.8.2/../../../arm-none-eabi/lib/armv7-m/libg.a(lib_a-makebuf.o)
 .data          0x00000000200004e8        0x0 /usr/lib/gcc/arm-none-eabi/4.8.2/../../../arm-none-eabi/lib/armv7-m/libg.a(lib_a-mallocr.o)
 .data.__malloc_av_
                0x00000000200004e8      0x408 /usr/lib/gcc/arm-none-eabi/4.8.2/../../../arm-none-eabi/lib/armv7-m/libg.a(lib_a-mallocr.o)
                0x00000000200004e8                __malloc_av_
 .data.__malloc_trim_threshold
                0x00000000200008f0        0x4 /usr/lib/gcc/arm-none-eabi/4.8.2/../../../arm-none-eabi/lib/armv7-m/libg.a(lib_a-mallocr.o)
                0x00000000200008f0                __malloc_trim_threshold
 .data.__malloc_sbrk_base
                0x00000000200008f4        0x4 /usr/lib/gcc/arm-none-eabi/4.8.2/../../../arm-none-eabi/lib/armv7-m/libg.a(lib_a-mallocr.o)
                0x00000000200008f4                __malloc_sbrk_base
 .data          0x00000000200008f8        0x0 /usr/lib/gcc/arm-none-eabi/4.8.2/../../../arm-none-eabi/lib/armv7-m/libg.a(lib_a-memchr-stub.o)
 .data          0x00000000200008f8        0x0 /usr/lib/gcc/arm-none-eabi/4.8.2/../../../arm-none-eabi/lib/armv7-m/libg.a(lib_a-memmove.o)
 .data          0x00000000200008f8        0x0 /usr/lib/gcc/arm-none-eabi/4.8.2/../../../arm-none-eabi/lib/armv7-m/libg.a(lib_a-mlock.o)
 .data          0x00000000200008f8        0x0 /usr/lib/gcc/arm-none-eabi/4.8.2/../../../arm-none-eabi/lib/armv7-m/libg.a(lib_a-mprec.o)
 .data          0x00000000200008f8        0x0 /usr/lib/gcc/arm-none-eabi/4.8.2/../../../arm-none-eabi/lib/armv7-m/libg.a(lib_a-reallocr.o)
 .data          0x00000000200008f8        0x0 /usr/lib/gcc/arm-none-eabi/4.8.2/../../../arm-none-eabi/lib/armv7-m/libg.a(lib_a-s_fpclassify.o)
 .data          0x00000000200008f8        0x0 /usr/lib/gcc/arm-none-eabi/4.8.2/../../../arm-none-eabi/lib/armv7-m/libg.a(lib_a-sbrkr.o)
 .data          0x00000000200008f8        0x0 /usr/lib/gcc/arm-none-eabi/4.8.2/../../../arm-none-eabi/lib/armv7-m/libg.a(lib_a-stdio.o)
 .data          0x00000000200008f8        0x0 /usr/lib/gcc/arm-none-eabi/4.8.2/../../../arm-none-eabi/lib/armv7-m/libg.a(lib_a-strcmp.o)
 .data          0x00000000200008f8        0x0 /usr/lib/gcc/arm-none-eabi/4.8.2/../../../arm-none-eabi/lib/armv7-m/libg.a(lib_a-vfiprintf.o)
 .data          0x00000000200008f8        0x0 /usr/lib/gcc/arm-none-eabi/4.8.2/../../../arm-none-eabi/lib/armv7-m/libg.a(lib_a-writer.o)
 .data          0x00000000200008f8        0x0 /usr/lib/gcc/arm-none-eabi/4.8.2/../../../arm-none-eabi/lib/armv7-m/libg.a(lib_a-callocr.o)
 .data          0x00000000200008f8        0x0 /usr/lib/gcc/arm-none-eabi/4.8.2/../../../arm-none-eabi/lib/armv7-m/libg.a(lib_a-closer.o)
 .data          0x00000000200008f8        0x0 /usr/lib/gcc/arm-none-eabi/4.8.2/../../../arm-none-eabi/lib/armv7-m/libg.a(lib_a-fclose.o)
 .data          0x00000000200008f8        0x0 /usr/lib/gcc/arm-none-eabi/4.8.2/../../../arm-none-eabi/lib/armv7-m/libg.a(lib_a-fputwc.o)
 .data          0x00000000200008f8        0x0 /usr/lib/gcc/arm-none-eabi/4.8.2/../../../arm-none-eabi/lib/armv7-m/libg.a(lib_a-fstatr.o)
 .data          0x00000000200008f8        0x0 /usr/lib/gcc/arm-none-eabi/4.8.2/../../../arm-none-eabi/lib/armv7-m/libg.a(lib_a-isattyr.o)
 .data          0x00000000200008f8        0x0 /usr/lib/gcc/arm-none-eabi/4.8.2/../../../arm-none-eabi/lib/armv7-m/libg.a(lib_a-lseekr.o)
 .data          0x00000000200008f8        0x0 /usr/lib/gcc/arm-none-eabi/4.8.2/../../../arm-none-eabi/lib/armv7-m/libg.a(lib_a-readr.o)
 .data          0x00000000200008f8        0x0 /usr/lib/gcc/arm-none-eabi/4.8.2/../../../arm-none-eabi/lib/armv7-m/libg.a(lib_a-reent.o)
 .data          0x00000000200008f8        0x0 /usr/lib/gcc/arm-none-eabi/4.8.2/../../../arm-none-eabi/lib/armv7-m/libg.a(lib_a-wbuf.o)
 .data          0x00000000200008f8        0x0 /usr/lib/gcc/arm-none-eabi/4.8.2/../../../arm-none-eabi/lib/armv7-m/libg.a(lib_a-wcrtomb.o)
 .data          0x00000000200008f8        0x0 /usr/lib/gcc/arm-none-eabi/4.8.2/../../../arm-none-eabi/lib/armv7-m/libg.a(lib_a-wctomb_r.o)
 .data.__wctomb
                0x00000000200008f8        0x4 /usr/lib/gcc/arm-none-eabi/4.8.2/../../../arm-none-eabi/lib/armv7-m/libg.a(lib_a-wctomb_r.o)
                0x00000000200008f8                __wctomb
 .data          0x00000000200008fc        0x0 /usr/lib/gcc/arm-none-eabi/4.8.2/armv7-m/libgcc.a(_arm_addsubdf3.o)
 .data          0x00000000200008fc        0x0 /usr/lib/gcc/arm-none-eabi/4.8.2/armv7-m/libgcc.a(_arm_muldivdf3.o)
 .data          0x00000000200008fc        0x0 /usr/lib/gcc/arm-none-eabi/4.8.2/armv7-m/libgcc.a(_arm_cmpdf2.o)
 .data          0x00000000200008fc        0x0 /usr/lib/gcc/arm-none-eabi/4.8.2/armv7-m/libgcc.a(_arm_fixdfsi.o)
 .data          0x00000000200008fc        0x0 /usr/lib/gcc/arm-none-eabi/4.8.2/armv7-m/libgcc.a(_aeabi_uldivmod.o)
 .data          0x00000000200008fc        0x0 /usr/lib/gcc/arm-none-eabi/4.8.2/armv7-m/libgcc.a(bpabi.o)
 .data          0x00000000200008fc        0x0 /usr/lib/gcc/arm-none-eabi/4.8.2/armv7-m/libgcc.a(_dvmd_tls.o)
 .data          0x00000000200008fc        0x0 /usr/lib/gcc/arm-none-eabi/4.8.2/armv7-m/libgcc.a(_divdi3.o)
 .data          0x00000000200008fc        0x0 /usr/lib/gcc/arm-none-eabi/4.8.2/armv7-m/libgcc.a(_udivdi3.o)
                0x00000000200008fc                . = ALIGN (0x4)
                0x00000000200008fc                _edata = .

.bss            0x0000000020000900    0x1eccc load address 0x000000000800d7d8
                0x0000000020000900                . = ALIGN (0x4)
                0x0000000020000900                _sbss = .
                0x0000000020000900                __bss_start__ = .
 *(.bss .bss.*)
 .bss           0x0000000020000900        0x0 /tmp/ccYeW5MD.o
 .bss           0x0000000020000900        0x0 /tmp/ccy457S0.o
 .bss           0x0000000020000900        0x0 /tmp/ccfKhGdo.o
 .bss           0x0000000020000900        0x0 /tmp/ccdQTPML.o
 .bss           0x0000000020000900        0x0 /tmp/ccvbLNB9.o
 .bss           0x0000000020000900        0x0 /tmp/ccYMHmDx.o
 .bss           0x0000000020000900        0x0 /tmp/ccgr0JQV.o
 .bss           0x0000000020000900       0x80 /tmp/ccBXF9fk.o
                0x000000002000096c                pxCurrentCoRoutine
 .bss           0x0000000020000980        0x0 /tmp/ccWTSJMI.o
 .bss           0x0000000020000980        0x0 /tmp/ccfsXes7.o
 .bss           0x0000000020000980      0x100 /tmp/ccwLsclw.o
                0x0000000020000980                pxCurrentTCB
 .bss           0x0000000020000a80        0x0 /tmp/ccmixTjV.o
 .bss           0x0000000020000a80    0x10008 /tmp/ccQtMXok.o
 .bss           0x0000000020010a88     0xea28 /tmp/cc7LKoKJ.o
 .bss           0x000000002001f4b0       0xd4 /tmp/cczzK2f9.o
                0x000000002001f4b0                __stdout
                0x000000002001f518                __stderr
 .bss           0x000000002001f584        0x1 /tmp/ccDAaAUy.o
 .bss           0x000000002001f585        0x0 /tmp/ccwvsJNY.o
 .bss           0x000000002001f585        0x0 /usr/lib/gcc/arm-none-eabi/4.8.2/../../../arm-none-eabi/lib/armv7-m/libg.a(lib_a-memcpy.o)
 .bss           0x000000002001f585        0x0 /usr/lib/gcc/arm-none-eabi/4.8.2/../../../arm-none-eabi/lib/armv7-m/libg.a(lib_a-memset.o)
 .bss           0x000000002001f585        0x0 /usr/lib/gcc/arm-none-eabi/4.8.2/../../../arm-none-eabi/lib/armv7-m/libg.a(lib_a-printf.o)
 .bss           0x000000002001f585        0x0 /usr/lib/gcc/arm-none-eabi/4.8.2/../../../arm-none-eabi/lib/armv7-m/libg.a(lib_a-puts.o)
 .bss           0x000000002001f585        0x0 /usr/lib/gcc/arm-none-eabi/4.8.2/../../../arm-none-eabi/lib/armv7-m/libg.a(lib_a-strlen.o)
 .bss           0x000000002001f585        0x0 /usr/lib/gcc/arm-none-eabi/4.8.2/../../../arm-none-eabi/lib/armv7-m/libg.a(lib_a-strncpy.o)
 .bss           0x000000002001f585        0x0 /usr/lib/gcc/arm-none-eabi/4.8.2/../../../arm-none-eabi/lib/armv7-m/libg.a(lib_a-vfprintf.o)
 .bss           0x000000002001f585        0x0 /usr/lib/gcc/arm-none-eabi/4.8.2/../../../arm-none-eabi/lib/armv7-m/libg.a(lib_a-wsetup.o)
 .bss           0x000000002001f585        0x0 /usr/lib/gcc/arm-none-eabi/4.8.2/../../../arm-none-eabi/lib/armv7-m/libg.a(lib_a-dtoa.o)
 .bss           0x000000002001f585        0x0 /usr/lib/gcc/arm-none-eabi/4.8.2/../../../arm-none-eabi/lib/armv7-m/libg.a(lib_a-fflush.o)
 .bss           0x000000002001f585        0x0 /usr/lib/gcc/arm-none-eabi/4.8.2/../../../arm-none-eabi/lib/armv7-m/libg.a(lib_a-findfp.o)
 .bss           0x000000002001f585        0x0 /usr/lib/gcc/arm-none-eabi/4.8.2/../../../arm-none-eabi/lib/armv7-m/libg.a(lib_a-freer.o)
 .bss           0x000000002001f585        0x0 /usr/lib/gcc/arm-none-eabi/4.8.2/../../../arm-none-eabi/lib/armv7-m/libg.a(lib_a-fvwrite.o)
 .bss           0x000000002001f585        0x0 /usr/lib/gcc/arm-none-eabi/4.8.2/../../../arm-none-eabi/lib/armv7-m/libg.a(lib_a-fwalk.o)
 .bss           0x000000002001f585        0x0 /usr/lib/gcc/arm-none-eabi/4.8.2/../../../arm-none-eabi/lib/armv7-m/libg.a(lib_a-impure.o)
 .bss           0x000000002001f585        0x0 /usr/lib/gcc/arm-none-eabi/4.8.2/../../../arm-none-eabi/lib/armv7-m/libg.a(lib_a-locale.o)
 *fill*         0x000000002001f585        0x3 
 .bss._PathLocale
                0x000000002001f588        0x4 /usr/lib/gcc/arm-none-eabi/4.8.2/../../../arm-none-eabi/lib/armv7-m/libg.a(lib_a-locale.o)
                0x000000002001f588                _PathLocale
 .bss.__nlocale_changed
                0x000000002001f58c        0x4 /usr/lib/gcc/arm-none-eabi/4.8.2/../../../arm-none-eabi/lib/armv7-m/libg.a(lib_a-locale.o)
                0x000000002001f58c                __nlocale_changed
 .bss.__mlocale_changed
                0x000000002001f590        0x4 /usr/lib/gcc/arm-none-eabi/4.8.2/../../../arm-none-eabi/lib/armv7-m/libg.a(lib_a-locale.o)
                0x000000002001f590                __mlocale_changed
 .bss           0x000000002001f594        0x0 /usr/lib/gcc/arm-none-eabi/4.8.2/../../../arm-none-eabi/lib/armv7-m/libg.a(lib_a-makebuf.o)
 .bss           0x000000002001f594        0x0 /usr/lib/gcc/arm-none-eabi/4.8.2/../../../arm-none-eabi/lib/armv7-m/libg.a(lib_a-mallocr.o)
 .bss.__malloc_max_total_mem
                0x000000002001f594        0x4 /usr/lib/gcc/arm-none-eabi/4.8.2/../../../arm-none-eabi/lib/armv7-m/libg.a(lib_a-mallocr.o)
                0x000000002001f594                __malloc_max_total_mem
 .bss.__malloc_max_sbrked_mem
                0x000000002001f598        0x4 /usr/lib/gcc/arm-none-eabi/4.8.2/../../../arm-none-eabi/lib/armv7-m/libg.a(lib_a-mallocr.o)
                0x000000002001f598                __malloc_max_sbrked_mem
 .bss.__malloc_top_pad
                0x000000002001f59c        0x4 /usr/lib/gcc/arm-none-eabi/4.8.2/../../../arm-none-eabi/lib/armv7-m/libg.a(lib_a-mallocr.o)
                0x000000002001f59c                __malloc_top_pad
 .bss.__malloc_current_mallinfo
                0x000000002001f5a0       0x28 /usr/lib/gcc/arm-none-eabi/4.8.2/../../../arm-none-eabi/lib/armv7-m/libg.a(lib_a-mallocr.o)
                0x000000002001f5a0                __malloc_current_mallinfo
 .bss           0x000000002001f5c8        0x0 /usr/lib/gcc/arm-none-eabi/4.8.2/../../../arm-none-eabi/lib/armv7-m/libg.a(lib_a-memchr-stub.o)
 .bss           0x000000002001f5c8        0x0 /usr/lib/gcc/arm-none-eabi/4.8.2/../../../arm-none-eabi/lib/armv7-m/libg.a(lib_a-memmove.o)
 .bss           0x000000002001f5c8        0x0 /usr/lib/gcc/arm-none-eabi/4.8.2/../../../arm-none-eabi/lib/armv7-m/libg.a(lib_a-mlock.o)
 .bss           0x000000002001f5c8        0x0 /usr/lib/gcc/arm-none-eabi/4.8.2/../../../arm-none-eabi/lib/armv7-m/libg.a(lib_a-mprec.o)
 .bss           0x000000002001f5c8        0x0 /usr/lib/gcc/arm-none-eabi/4.8.2/../../../arm-none-eabi/lib/armv7-m/libg.a(lib_a-reallocr.o)
 .bss           0x000000002001f5c8        0x0 /usr/lib/gcc/arm-none-eabi/4.8.2/../../../arm-none-eabi/lib/armv7-m/libg.a(lib_a-s_fpclassify.o)
 .bss           0x000000002001f5c8        0x0 /usr/lib/gcc/arm-none-eabi/4.8.2/../../../arm-none-eabi/lib/armv7-m/libg.a(lib_a-sbrkr.o)
 .bss           0x000000002001f5c8        0x0 /usr/lib/gcc/arm-none-eabi/4.8.2/../../../arm-none-eabi/lib/armv7-m/libg.a(lib_a-stdio.o)
 .bss           0x000000002001f5c8        0x0 /usr/lib/gcc/arm-none-eabi/4.8.2/../../../arm-none-eabi/lib/armv7-m/libg.a(lib_a-strcmp.o)
 .bss           0x000000002001f5c8        0x0 /usr/lib/gcc/arm-none-eabi/4.8.2/../../../arm-none-eabi/lib/armv7-m/libg.a(lib_a-vfiprintf.o)
 .bss           0x000000002001f5c8        0x0 /usr/lib/gcc/arm-none-eabi/4.8.2/../../../arm-none-eabi/lib/armv7-m/libg.a(lib_a-writer.o)
 .bss           0x000000002001f5c8        0x0 /usr/lib/gcc/arm-none-eabi/4.8.2/../../../arm-none-eabi/lib/armv7-m/libg.a(lib_a-callocr.o)
 .bss           0x000000002001f5c8        0x0 /usr/lib/gcc/arm-none-eabi/4.8.2/../../../arm-none-eabi/lib/armv7-m/libg.a(lib_a-closer.o)
 .bss           0x000000002001f5c8        0x0 /usr/lib/gcc/arm-none-eabi/4.8.2/../../../arm-none-eabi/lib/armv7-m/libg.a(lib_a-fclose.o)
 .bss           0x000000002001f5c8        0x0 /usr/lib/gcc/arm-none-eabi/4.8.2/../../../arm-none-eabi/lib/armv7-m/libg.a(lib_a-fputwc.o)
 .bss           0x000000002001f5c8        0x0 /usr/lib/gcc/arm-none-eabi/4.8.2/../../../arm-none-eabi/lib/armv7-m/libg.a(lib_a-fstatr.o)
 .bss           0x000000002001f5c8        0x0 /usr/lib/gcc/arm-none-eabi/4.8.2/../../../arm-none-eabi/lib/armv7-m/libg.a(lib_a-isattyr.o)
 .bss           0x000000002001f5c8        0x0 /usr/lib/gcc/arm-none-eabi/4.8.2/../../../arm-none-eabi/lib/armv7-m/libg.a(lib_a-lseekr.o)
 .bss           0x000000002001f5c8        0x0 /usr/lib/gcc/arm-none-eabi/4.8.2/../../../arm-none-eabi/lib/armv7-m/libg.a(lib_a-readr.o)
 .bss           0x000000002001f5c8        0x0 /usr/lib/gcc/arm-none-eabi/4.8.2/../../../arm-none-eabi/lib/armv7-m/libg.a(lib_a-reent.o)
 .bss           0x000000002001f5c8        0x0 /usr/lib/gcc/arm-none-eabi/4.8.2/../../../arm-none-eabi/lib/armv7-m/libg.a(lib_a-wbuf.o)
 .bss           0x000000002001f5c8        0x0 /usr/lib/gcc/arm-none-eabi/4.8.2/../../../arm-none-eabi/lib/armv7-m/libg.a(lib_a-wcrtomb.o)
 .bss           0x000000002001f5c8        0x0 /usr/lib/gcc/arm-none-eabi/4.8.2/../../../arm-none-eabi/lib/armv7-m/libg.a(lib_a-wctomb_r.o)
 .bss           0x000000002001f5c8        0x0 /usr/lib/gcc/arm-none-eabi/4.8.2/armv7-m/libgcc.a(_arm_addsubdf3.o)
 .bss           0x000000002001f5c8        0x0 /usr/lib/gcc/arm-none-eabi/4.8.2/armv7-m/libgcc.a(_arm_muldivdf3.o)
 .bss           0x000000002001f5c8        0x0 /usr/lib/gcc/arm-none-eabi/4.8.2/armv7-m/libgcc.a(_arm_cmpdf2.o)
 .bss           0x000000002001f5c8        0x0 /usr/lib/gcc/arm-none-eabi/4.8.2/armv7-m/libgcc.a(_arm_fixdfsi.o)
 .bss           0x000000002001f5c8        0x0 /usr/lib/gcc/arm-none-eabi/4.8.2/armv7-m/libgcc.a(_aeabi_uldivmod.o)
 .bss           0x000000002001f5c8        0x0 /usr/lib/gcc/arm-none-eabi/4.8.2/armv7-m/libgcc.a(bpabi.o)
 .bss           0x000000002001f5c8        0x0 /usr/lib/gcc/arm-none-eabi/4.8.2/armv7-m/libgcc.a(_dvmd_tls.o)
 .bss           0x000000002001f5c8        0x0 /usr/lib/gcc/arm-none-eabi/4.8.2/armv7-m/libgcc.a(_divdi3.o)
 .bss           0x000000002001f5c8        0x0 /usr/lib/gcc/arm-none-eabi/4.8.2/armv7-m/libgcc.a(_udivdi3.o)
 *(COMMON)
 COMMON         0x000000002001f5c8        0x4 /usr/lib/gcc/arm-none-eabi/4.8.2/../../../arm-none-eabi/lib/armv7-m/libg.a(lib_a-reent.o)
                0x000000002001f5c8                errno
                0x000000002001f5cc                . = ALIGN (0x4)
                0x000000002001f5cc                _ebss = .
                0x000000002001f5cc                __bss_end__ = .
                0x0000000020030000                _estack = (ORIGIN (sram) + 0x30000)
                0x000000002001f5cc                . = ALIGN (0x4)
                0x000000002001f5cc                _end = .
LOAD /tmp/ccYeW5MD.o
LOAD /tmp/ccy457S0.o
LOAD /tmp/ccfKhGdo.o
LOAD /tmp/ccdQTPML.o
LOAD /tmp/ccvbLNB9.o
LOAD /tmp/ccYMHmDx.o
LOAD /tmp/ccgr0JQV.o
LOAD /tmp/ccBXF9fk.o
LOAD /tmp/ccWTSJMI.o
LOAD /tmp/ccfsXes7.o
LOAD /tmp/ccwLsclw.o
LOAD /tmp/ccmixTjV.o
LOAD /tmp/ccQtMXok.o
LOAD /tmp/cc7LKoKJ.o
LOAD /tmp/cczzK2f9.o
LOAD /tmp/ccDAaAUy.o
LOAD /tmp/ccwvsJNY.o
START GROUP
LOAD /usr/lib/gcc/arm-none-eabi/4.8.2/armv7-m/libgcc.a
LOAD /usr/lib/gcc/arm-none-eabi/4.8.2/../../../arm-none-eabi/lib/armv7-m/libg.a
LOAD /usr/lib/gcc/arm-none-eabi/4.8.2/../../../arm-none-eabi/lib/armv7-m/libc.a
END GROUP
OUTPUT(main.elf elf32-littlearm)

.debug_info     0x0000000000000000    0x21ad7
 .debug_info    0x0000000000000000      0x654 /tmp/ccYeW5MD.o
 .debug_info    0x0000000000000654       0xb7 /tmp/ccy457S0.o
 .debug_info    0x000000000000070b      0xdc4 /tmp/ccfKhGdo.o
 .debug_info    0x00000000000014cf      0x673 /tmp/ccdQTPML.o
 .debug_info    0x0000000000001b42      0xa95 /tmp/ccvbLNB9.o
 .debug_info    0x00000000000025d7      0x38d /tmp/ccYMHmDx.o
 .debug_info    0x0000000000002964      0x5b7 /tmp/ccgr0JQV.o
 .debug_info    0x0000000000002f1b      0x4b6 /tmp/ccBXF9fk.o
 .debug_info    0x00000000000033d1      0x2b6 /tmp/ccWTSJMI.o
 .debug_info    0x0000000000003687      0x825 /tmp/ccfsXes7.o
 .debug_info    0x0000000000003eac      0xd93 /tmp/ccwLsclw.o
 .debug_info    0x0000000000004c3f      0x1ed /tmp/ccmixTjV.o
 .debug_info    0x0000000000004e2c      0x183 /tmp/ccQtMXok.o
 .debug_info    0x0000000000004faf     0x1890 /tmp/cc7LKoKJ.o
 .debug_info    0x000000000000683f      0xde7 /tmp/cczzK2f9.o
 .debug_info    0x0000000000007626      0x50f /tmp/ccDAaAUy.o
 .debug_info    0x0000000000007b35      0x4ea /tmp/ccwvsJNY.o
 .debug_info    0x000000000000801f       0xb2 /usr/lib/gcc/arm-none-eabi/4.8.2/../../../arm-none-eabi/lib/armv7-m/libg.a(lib_a-memcpy.o)
 .debug_info    0x00000000000080d1      0x117 /usr/lib/gcc/arm-none-eabi/4.8.2/../../../arm-none-eabi/lib/armv7-m/libg.a(lib_a-memset.o)
 .debug_info    0x00000000000081e8      0x9ab /usr/lib/gcc/arm-none-eabi/4.8.2/../../../arm-none-eabi/lib/armv7-m/libg.a(lib_a-printf.o)
 .debug_info    0x0000000000008b93      0xa16 /usr/lib/gcc/arm-none-eabi/4.8.2/../../../arm-none-eabi/lib/armv7-m/libg.a(lib_a-puts.o)
 .debug_info    0x00000000000095a9       0xb5 /usr/lib/gcc/arm-none-eabi/4.8.2/../../../arm-none-eabi/lib/armv7-m/libg.a(lib_a-strlen.o)
 .debug_info    0x000000000000965e      0x128 /usr/lib/gcc/arm-none-eabi/4.8.2/../../../arm-none-eabi/lib/armv7-m/libg.a(lib_a-strncpy.o)
 .debug_info    0x0000000000009786     0x185a /usr/lib/gcc/arm-none-eabi/4.8.2/../../../arm-none-eabi/lib/armv7-m/libg.a(lib_a-vfprintf.o)
 .debug_info    0x000000000000afe0      0x93b /usr/lib/gcc/arm-none-eabi/4.8.2/../../../arm-none-eabi/lib/armv7-m/libg.a(lib_a-wsetup.o)
 .debug_info    0x000000000000b91b     0x1321 /usr/lib/gcc/arm-none-eabi/4.8.2/../../../arm-none-eabi/lib/armv7-m/libg.a(lib_a-dtoa.o)
 .debug_info    0x000000000000cc3c      0xaba /usr/lib/gcc/arm-none-eabi/4.8.2/../../../arm-none-eabi/lib/armv7-m/libg.a(lib_a-fflush.o)
 .debug_info    0x000000000000d6f6      0xd35 /usr/lib/gcc/arm-none-eabi/4.8.2/../../../arm-none-eabi/lib/armv7-m/libg.a(lib_a-findfp.o)
 .debug_info    0x000000000000e42b      0xc1c /usr/lib/gcc/arm-none-eabi/4.8.2/../../../arm-none-eabi/lib/armv7-m/libg.a(lib_a-freer.o)
 .debug_info    0x000000000000f047      0xc53 /usr/lib/gcc/arm-none-eabi/4.8.2/../../../arm-none-eabi/lib/armv7-m/libg.a(lib_a-fvwrite.o)
 .debug_info    0x000000000000fc9a      0x99c /usr/lib/gcc/arm-none-eabi/4.8.2/../../../arm-none-eabi/lib/armv7-m/libg.a(lib_a-fwalk.o)
 .debug_info    0x0000000000010636      0x894 /usr/lib/gcc/arm-none-eabi/4.8.2/../../../arm-none-eabi/lib/armv7-m/libg.a(lib_a-impure.o)
 .debug_info    0x0000000000010eca      0xbe5 /usr/lib/gcc/arm-none-eabi/4.8.2/../../../arm-none-eabi/lib/armv7-m/libg.a(lib_a-locale.o)
 .debug_info    0x0000000000011aaf      0xae6 /usr/lib/gcc/arm-none-eabi/4.8.2/../../../arm-none-eabi/lib/armv7-m/libg.a(lib_a-makebuf.o)
 .debug_info    0x0000000000012595      0xd7b /usr/lib/gcc/arm-none-eabi/4.8.2/../../../arm-none-eabi/lib/armv7-m/libg.a(lib_a-mallocr.o)
 .debug_info    0x0000000000013310      0x129 /usr/lib/gcc/arm-none-eabi/4.8.2/../../../arm-none-eabi/lib/armv7-m/libg.a(lib_a-memchr-stub.o)
 .debug_info    0x0000000000013439      0x131 /usr/lib/gcc/arm-none-eabi/4.8.2/../../../arm-none-eabi/lib/armv7-m/libg.a(lib_a-memmove.o)
 .debug_info    0x000000000001356a      0x8b4 /usr/lib/gcc/arm-none-eabi/4.8.2/../../../arm-none-eabi/lib/armv7-m/libg.a(lib_a-mlock.o)
 .debug_info    0x0000000000013e1e     0x1675 /usr/lib/gcc/arm-none-eabi/4.8.2/../../../arm-none-eabi/lib/armv7-m/libg.a(lib_a-mprec.o)
 .debug_info    0x0000000000015493      0xcbb /usr/lib/gcc/arm-none-eabi/4.8.2/../../../arm-none-eabi/lib/armv7-m/libg.a(lib_a-reallocr.o)
 .debug_info    0x000000000001614e       0xdb /usr/lib/gcc/arm-none-eabi/4.8.2/../../../arm-none-eabi/lib/armv7-m/libg.a(lib_a-s_fpclassify.o)
 .debug_info    0x0000000000016229      0x8f4 /usr/lib/gcc/arm-none-eabi/4.8.2/../../../arm-none-eabi/lib/armv7-m/libg.a(lib_a-sbrkr.o)
 .debug_info    0x0000000000016b1d      0xb8a /usr/lib/gcc/arm-none-eabi/4.8.2/../../../arm-none-eabi/lib/armv7-m/libg.a(lib_a-stdio.o)
 .debug_info    0x00000000000176a7       0xab /usr/lib/gcc/arm-none-eabi/4.8.2/../../../arm-none-eabi/lib/armv7-m/libg.a(lib_a-strcmp.o)
 .debug_info    0x0000000000017752     0x153c /usr/lib/gcc/arm-none-eabi/4.8.2/../../../arm-none-eabi/lib/armv7-m/libg.a(lib_a-vfiprintf.o)
 .debug_info    0x0000000000018c8e      0x929 /usr/lib/gcc/arm-none-eabi/4.8.2/../../../arm-none-eabi/lib/armv7-m/libg.a(lib_a-writer.o)
 .debug_info    0x00000000000195b7      0x9e0 /usr/lib/gcc/arm-none-eabi/4.8.2/../../../arm-none-eabi/lib/armv7-m/libg.a(lib_a-callocr.o)
 .debug_info    0x0000000000019f97      0x8e0 /usr/lib/gcc/arm-none-eabi/4.8.2/../../../arm-none-eabi/lib/armv7-m/libg.a(lib_a-closer.o)
 .debug_info    0x000000000001a877      0x9e5 /usr/lib/gcc/arm-none-eabi/4.8.2/../../../arm-none-eabi/lib/armv7-m/libg.a(lib_a-fclose.o)
 .debug_info    0x000000000001b25c      0xac7 /usr/lib/gcc/arm-none-eabi/4.8.2/../../../arm-none-eabi/lib/armv7-m/libg.a(lib_a-fputwc.o)
 .debug_info    0x000000000001bd23      0xa5e /usr/lib/gcc/arm-none-eabi/4.8.2/../../../arm-none-eabi/lib/armv7-m/libg.a(lib_a-fstatr.o)
 .debug_info    0x000000000001c781      0x8e0 /usr/lib/gcc/arm-none-eabi/4.8.2/../../../arm-none-eabi/lib/armv7-m/libg.a(lib_a-isattyr.o)
 .debug_info    0x000000000001d061      0x90c /usr/lib/gcc/arm-none-eabi/4.8.2/../../../arm-none-eabi/lib/armv7-m/libg.a(lib_a-lseekr.o)
 .debug_info    0x000000000001d96d      0x922 /usr/lib/gcc/arm-none-eabi/4.8.2/../../../arm-none-eabi/lib/armv7-m/libg.a(lib_a-readr.o)
 .debug_info    0x000000000001e28f      0x9fb /usr/lib/gcc/arm-none-eabi/4.8.2/../../../arm-none-eabi/lib/armv7-m/libg.a(lib_a-reent.o)
 .debug_info    0x000000000001ec8a      0x9cc /usr/lib/gcc/arm-none-eabi/4.8.2/../../../arm-none-eabi/lib/armv7-m/libg.a(lib_a-wbuf.o)
 .debug_info    0x000000000001f656      0xa75 /usr/lib/gcc/arm-none-eabi/4.8.2/../../../arm-none-eabi/lib/armv7-m/libg.a(lib_a-wcrtomb.o)
 .debug_info    0x00000000000200cb      0x9b5 /usr/lib/gcc/arm-none-eabi/4.8.2/../../../arm-none-eabi/lib/armv7-m/libg.a(lib_a-wctomb_r.o)
 .debug_info    0x0000000000020a80       0xa0 /usr/lib/gcc/arm-none-eabi/4.8.2/armv7-m/libgcc.a(_arm_addsubdf3.o)
 .debug_info    0x0000000000020b20       0xa0 /usr/lib/gcc/arm-none-eabi/4.8.2/armv7-m/libgcc.a(_arm_muldivdf3.o)
 .debug_info    0x0000000000020bc0       0xa0 /usr/lib/gcc/arm-none-eabi/4.8.2/armv7-m/libgcc.a(_arm_cmpdf2.o)
 .debug_info    0x0000000000020c60       0xa0 /usr/lib/gcc/arm-none-eabi/4.8.2/armv7-m/libgcc.a(_arm_fixdfsi.o)
 .debug_info    0x0000000000020d00       0x9b /usr/lib/gcc/arm-none-eabi/4.8.2/armv7-m/libgcc.a(_aeabi_uldivmod.o)
 .debug_info    0x0000000000020d9b      0x164 /usr/lib/gcc/arm-none-eabi/4.8.2/armv7-m/libgcc.a(bpabi.o)
 .debug_info    0x0000000000020eff       0x9f /usr/lib/gcc/arm-none-eabi/4.8.2/armv7-m/libgcc.a(_dvmd_tls.o)
 .debug_info    0x0000000000020f9e      0x5bd /usr/lib/gcc/arm-none-eabi/4.8.2/armv7-m/libgcc.a(_divdi3.o)
 .debug_info    0x000000000002155b      0x57c /usr/lib/gcc/arm-none-eabi/4.8.2/armv7-m/libgcc.a(_udivdi3.o)

.debug_abbrev   0x0000000000000000     0x6cb8
 .debug_abbrev  0x0000000000000000      0x13b /tmp/ccYeW5MD.o
 .debug_abbrev  0x000000000000013b       0x12 /tmp/ccy457S0.o
 .debug_abbrev  0x000000000000014d      0x1e8 /tmp/ccfKhGdo.o
 .debug_abbrev  0x0000000000000335      0x1a8 /tmp/ccdQTPML.o
 .debug_abbrev  0x00000000000004dd      0x15a /tmp/ccvbLNB9.o
 .debug_abbrev  0x0000000000000637      0x1aa /tmp/ccYMHmDx.o
 .debug_abbrev  0x00000000000007e1      0x12c /tmp/ccgr0JQV.o
 .debug_abbrev  0x000000000000090d      0x18a /tmp/ccBXF9fk.o
 .debug_abbrev  0x0000000000000a97       0xbf /tmp/ccWTSJMI.o
 .debug_abbrev  0x0000000000000b56      0x137 /tmp/ccfsXes7.o
 .debug_abbrev  0x0000000000000c8d      0x1d2 /tmp/ccwLsclw.o
 .debug_abbrev  0x0000000000000e5f      0x14b /tmp/ccmixTjV.o
 .debug_abbrev  0x0000000000000faa      0x10b /tmp/ccQtMXok.o
 .debug_abbrev  0x00000000000010b5      0x290 /tmp/cc7LKoKJ.o
 .debug_abbrev  0x0000000000001345      0x207 /tmp/cczzK2f9.o
 .debug_abbrev  0x000000000000154c      0x112 /tmp/ccDAaAUy.o
 .debug_abbrev  0x000000000000165e      0x112 /tmp/ccwvsJNY.o
 .debug_abbrev  0x0000000000001770       0x14 /usr/lib/gcc/arm-none-eabi/4.8.2/../../../arm-none-eabi/lib/armv7-m/libg.a(lib_a-memcpy.o)
 .debug_abbrev  0x0000000000001784       0x9f /usr/lib/gcc/arm-none-eabi/4.8.2/../../../arm-none-eabi/lib/armv7-m/libg.a(lib_a-memset.o)
 .debug_abbrev  0x0000000000001823      0x227 /usr/lib/gcc/arm-none-eabi/4.8.2/../../../arm-none-eabi/lib/armv7-m/libg.a(lib_a-printf.o)
 .debug_abbrev  0x0000000000001a4a      0x235 /usr/lib/gcc/arm-none-eabi/4.8.2/../../../arm-none-eabi/lib/armv7-m/libg.a(lib_a-puts.o)
 .debug_abbrev  0x0000000000001c7f       0x70 /usr/lib/gcc/arm-none-eabi/4.8.2/../../../arm-none-eabi/lib/armv7-m/libg.a(lib_a-strlen.o)
 .debug_abbrev  0x0000000000001cef       0x9f /usr/lib/gcc/arm-none-eabi/4.8.2/../../../arm-none-eabi/lib/armv7-m/libg.a(lib_a-strncpy.o)
 .debug_abbrev  0x0000000000001d8e      0x3cd /usr/lib/gcc/arm-none-eabi/4.8.2/../../../arm-none-eabi/lib/armv7-m/libg.a(lib_a-vfprintf.o)
 .debug_abbrev  0x000000000000215b      0x20b /usr/lib/gcc/arm-none-eabi/4.8.2/../../../arm-none-eabi/lib/armv7-m/libg.a(lib_a-wsetup.o)
 .debug_abbrev  0x0000000000002366      0x2bc /usr/lib/gcc/arm-none-eabi/4.8.2/../../../arm-none-eabi/lib/armv7-m/libg.a(lib_a-dtoa.o)
 .debug_abbrev  0x0000000000002622      0x28e /usr/lib/gcc/arm-none-eabi/4.8.2/../../../arm-none-eabi/lib/armv7-m/libg.a(lib_a-fflush.o)
 .debug_abbrev  0x00000000000028b0      0x351 /usr/lib/gcc/arm-none-eabi/4.8.2/../../../arm-none-eabi/lib/armv7-m/libg.a(lib_a-findfp.o)
 .debug_abbrev  0x0000000000002c01      0x27b /usr/lib/gcc/arm-none-eabi/4.8.2/../../../arm-none-eabi/lib/armv7-m/libg.a(lib_a-freer.o)
 .debug_abbrev  0x0000000000002e7c      0x24a /usr/lib/gcc/arm-none-eabi/4.8.2/../../../arm-none-eabi/lib/armv7-m/libg.a(lib_a-fvwrite.o)
 .debug_abbrev  0x00000000000030c6      0x1d1 /usr/lib/gcc/arm-none-eabi/4.8.2/../../../arm-none-eabi/lib/armv7-m/libg.a(lib_a-fwalk.o)
 .debug_abbrev  0x0000000000003297      0x180 /usr/lib/gcc/arm-none-eabi/4.8.2/../../../arm-none-eabi/lib/armv7-m/libg.a(lib_a-impure.o)
 .debug_abbrev  0x0000000000003417      0x2a3 /usr/lib/gcc/arm-none-eabi/4.8.2/../../../arm-none-eabi/lib/armv7-m/libg.a(lib_a-locale.o)
 .debug_abbrev  0x00000000000036ba      0x206 /usr/lib/gcc/arm-none-eabi/4.8.2/../../../arm-none-eabi/lib/armv7-m/libg.a(lib_a-makebuf.o)
 .debug_abbrev  0x00000000000038c0      0x2a2 /usr/lib/gcc/arm-none-eabi/4.8.2/../../../arm-none-eabi/lib/armv7-m/libg.a(lib_a-mallocr.o)
 .debug_abbrev  0x0000000000003b62       0xba /usr/lib/gcc/arm-none-eabi/4.8.2/../../../arm-none-eabi/lib/armv7-m/libg.a(lib_a-memchr-stub.o)
 .debug_abbrev  0x0000000000003c1c       0xab /usr/lib/gcc/arm-none-eabi/4.8.2/../../../arm-none-eabi/lib/armv7-m/libg.a(lib_a-memmove.o)
 .debug_abbrev  0x0000000000003cc7      0x19a /usr/lib/gcc/arm-none-eabi/4.8.2/../../../arm-none-eabi/lib/armv7-m/libg.a(lib_a-mlock.o)
 .debug_abbrev  0x0000000000003e61      0x39d /usr/lib/gcc/arm-none-eabi/4.8.2/../../../arm-none-eabi/lib/armv7-m/libg.a(lib_a-mprec.o)
 .debug_abbrev  0x00000000000041fe      0x26b /usr/lib/gcc/arm-none-eabi/4.8.2/../../../arm-none-eabi/lib/armv7-m/libg.a(lib_a-reallocr.o)
 .debug_abbrev  0x0000000000004469       0x6f /usr/lib/gcc/arm-none-eabi/4.8.2/../../../arm-none-eabi/lib/armv7-m/libg.a(lib_a-s_fpclassify.o)
 .debug_abbrev  0x00000000000044d8      0x1fd /usr/lib/gcc/arm-none-eabi/4.8.2/../../../arm-none-eabi/lib/armv7-m/libg.a(lib_a-sbrkr.o)
 .debug_abbrev  0x00000000000046d5      0x246 /usr/lib/gcc/arm-none-eabi/4.8.2/../../../arm-none-eabi/lib/armv7-m/libg.a(lib_a-stdio.o)
 .debug_abbrev  0x000000000000491b       0x14 /usr/lib/gcc/arm-none-eabi/4.8.2/../../../arm-none-eabi/lib/armv7-m/libg.a(lib_a-strcmp.o)
 .debug_abbrev  0x000000000000492f      0x3cb /usr/lib/gcc/arm-none-eabi/4.8.2/../../../arm-none-eabi/lib/armv7-m/libg.a(lib_a-vfiprintf.o)
 .debug_abbrev  0x0000000000004cfa      0x1f4 /usr/lib/gcc/arm-none-eabi/4.8.2/../../../arm-none-eabi/lib/armv7-m/libg.a(lib_a-writer.o)
 .debug_abbrev  0x0000000000004eee      0x213 /usr/lib/gcc/arm-none-eabi/4.8.2/../../../arm-none-eabi/lib/armv7-m/libg.a(lib_a-callocr.o)
 .debug_abbrev  0x0000000000005101      0x1ef /usr/lib/gcc/arm-none-eabi/4.8.2/../../../arm-none-eabi/lib/armv7-m/libg.a(lib_a-closer.o)
 .debug_abbrev  0x00000000000052f0      0x273 /usr/lib/gcc/arm-none-eabi/4.8.2/../../../arm-none-eabi/lib/armv7-m/libg.a(lib_a-fclose.o)
 .debug_abbrev  0x0000000000005563      0x2ac /usr/lib/gcc/arm-none-eabi/4.8.2/../../../arm-none-eabi/lib/armv7-m/libg.a(lib_a-fputwc.o)
 .debug_abbrev  0x000000000000580f      0x1fe /usr/lib/gcc/arm-none-eabi/4.8.2/../../../arm-none-eabi/lib/armv7-m/libg.a(lib_a-fstatr.o)
 .debug_abbrev  0x0000000000005a0d      0x1ef /usr/lib/gcc/arm-none-eabi/4.8.2/../../../arm-none-eabi/lib/armv7-m/libg.a(lib_a-isattyr.o)
 .debug_abbrev  0x0000000000005bfc      0x1fe /usr/lib/gcc/arm-none-eabi/4.8.2/../../../arm-none-eabi/lib/armv7-m/libg.a(lib_a-lseekr.o)
 .debug_abbrev  0x0000000000005dfa      0x1ef /usr/lib/gcc/arm-none-eabi/4.8.2/../../../arm-none-eabi/lib/armv7-m/libg.a(lib_a-readr.o)
 .debug_abbrev  0x0000000000005fe9      0x258 /usr/lib/gcc/arm-none-eabi/4.8.2/../../../arm-none-eabi/lib/armv7-m/libg.a(lib_a-reent.o)
 .debug_abbrev  0x0000000000006241      0x25b /usr/lib/gcc/arm-none-eabi/4.8.2/../../../arm-none-eabi/lib/armv7-m/libg.a(lib_a-wbuf.o)
 .debug_abbrev  0x000000000000649c      0x222 /usr/lib/gcc/arm-none-eabi/4.8.2/../../../arm-none-eabi/lib/armv7-m/libg.a(lib_a-wcrtomb.o)
 .debug_abbrev  0x00000000000066be      0x212 /usr/lib/gcc/arm-none-eabi/4.8.2/../../../arm-none-eabi/lib/armv7-m/libg.a(lib_a-wctomb_r.o)
 .debug_abbrev  0x00000000000068d0       0x14 /usr/lib/gcc/arm-none-eabi/4.8.2/armv7-m/libgcc.a(_arm_addsubdf3.o)
 .debug_abbrev  0x00000000000068e4       0x14 /usr/lib/gcc/arm-none-eabi/4.8.2/armv7-m/libgcc.a(_arm_muldivdf3.o)
 .debug_abbrev  0x00000000000068f8       0x14 /usr/lib/gcc/arm-none-eabi/4.8.2/armv7-m/libgcc.a(_arm_cmpdf2.o)
 .debug_abbrev  0x000000000000690c       0x14 /usr/lib/gcc/arm-none-eabi/4.8.2/armv7-m/libgcc.a(_arm_fixdfsi.o)
 .debug_abbrev  0x0000000000006920       0x14 /usr/lib/gcc/arm-none-eabi/4.8.2/armv7-m/libgcc.a(_aeabi_uldivmod.o)
 .debug_abbrev  0x0000000000006934       0xb7 /usr/lib/gcc/arm-none-eabi/4.8.2/armv7-m/libgcc.a(bpabi.o)
 .debug_abbrev  0x00000000000069eb       0x14 /usr/lib/gcc/arm-none-eabi/4.8.2/armv7-m/libgcc.a(_dvmd_tls.o)
 .debug_abbrev  0x00000000000069ff      0x165 /usr/lib/gcc/arm-none-eabi/4.8.2/armv7-m/libgcc.a(_divdi3.o)
 .debug_abbrev  0x0000000000006b64      0x154 /usr/lib/gcc/arm-none-eabi/4.8.2/armv7-m/libgcc.a(_udivdi3.o)

.debug_loc      0x0000000000000000    0x11963
 .debug_loc     0x0000000000000000       0x9c /tmp/ccYeW5MD.o
 .debug_loc     0x000000000000009c      0x9b4 /tmp/ccfKhGdo.o
 .debug_loc     0x0000000000000a50      0x310 /tmp/ccdQTPML.o
 .debug_loc     0x0000000000000d60      0x658 /tmp/ccvbLNB9.o
 .debug_loc     0x00000000000013b8      0x1b4 /tmp/ccYMHmDx.o
 .debug_loc     0x000000000000156c      0x118 /tmp/ccgr0JQV.o
 .debug_loc     0x0000000000001684      0x188 /tmp/ccBXF9fk.o
 .debug_loc     0x000000000000180c      0x118 /tmp/ccWTSJMI.o
 .debug_loc     0x0000000000001924      0x3f0 /tmp/ccfsXes7.o
 .debug_loc     0x0000000000001d14      0x740 /tmp/ccwLsclw.o
 .debug_loc     0x0000000000002454      0x178 /tmp/ccmixTjV.o
 .debug_loc     0x00000000000025cc       0xc8 /tmp/ccQtMXok.o
 .debug_loc     0x0000000000002694      0x382 /tmp/cc7LKoKJ.o
 .debug_loc     0x0000000000002a16      0x294 /tmp/cczzK2f9.o
 .debug_loc     0x0000000000002caa       0x64 /tmp/ccDAaAUy.o
 .debug_loc     0x0000000000002d0e      0x1ca /tmp/ccwvsJNY.o
 .debug_loc     0x0000000000002ed8      0x18b /usr/lib/gcc/arm-none-eabi/4.8.2/../../../arm-none-eabi/lib/armv7-m/libg.a(lib_a-memset.o)
 .debug_loc     0x0000000000003063       0x34 /usr/lib/gcc/arm-none-eabi/4.8.2/../../../arm-none-eabi/lib/armv7-m/libg.a(lib_a-printf.o)
 .debug_loc     0x0000000000003097       0xc4 /usr/lib/gcc/arm-none-eabi/4.8.2/../../../arm-none-eabi/lib/armv7-m/libg.a(lib_a-puts.o)
 .debug_loc     0x000000000000315b       0x21 /usr/lib/gcc/arm-none-eabi/4.8.2/../../../arm-none-eabi/lib/armv7-m/libg.a(lib_a-strlen.o)
 .debug_loc     0x000000000000317c      0x15b /usr/lib/gcc/arm-none-eabi/4.8.2/../../../arm-none-eabi/lib/armv7-m/libg.a(lib_a-strncpy.o)
 .debug_loc     0x00000000000032d7     0x27e6 /usr/lib/gcc/arm-none-eabi/4.8.2/../../../arm-none-eabi/lib/armv7-m/libg.a(lib_a-vfprintf.o)
 .debug_loc     0x0000000000005abd       0x86 /usr/lib/gcc/arm-none-eabi/4.8.2/../../../arm-none-eabi/lib/armv7-m/libg.a(lib_a-wsetup.o)
 .debug_loc     0x0000000000005b43     0x26ba /usr/lib/gcc/arm-none-eabi/4.8.2/../../../arm-none-eabi/lib/armv7-m/libg.a(lib_a-dtoa.o)
 .debug_loc     0x00000000000081fd      0x22f /usr/lib/gcc/arm-none-eabi/4.8.2/../../../arm-none-eabi/lib/armv7-m/libg.a(lib_a-fflush.o)
 .debug_loc     0x000000000000842c      0x2a7 /usr/lib/gcc/arm-none-eabi/4.8.2/../../../arm-none-eabi/lib/armv7-m/libg.a(lib_a-findfp.o)
 .debug_loc     0x00000000000086d3      0x450 /usr/lib/gcc/arm-none-eabi/4.8.2/../../../arm-none-eabi/lib/armv7-m/libg.a(lib_a-freer.o)
 .debug_loc     0x0000000000008b23      0x54b /usr/lib/gcc/arm-none-eabi/4.8.2/../../../arm-none-eabi/lib/armv7-m/libg.a(lib_a-fvwrite.o)
 .debug_loc     0x000000000000906e      0x1e3 /usr/lib/gcc/arm-none-eabi/4.8.2/../../../arm-none-eabi/lib/armv7-m/libg.a(lib_a-fwalk.o)
 .debug_loc     0x0000000000009251       0xd9 /usr/lib/gcc/arm-none-eabi/4.8.2/../../../arm-none-eabi/lib/armv7-m/libg.a(lib_a-locale.o)
 .debug_loc     0x000000000000932a      0x10c /usr/lib/gcc/arm-none-eabi/4.8.2/../../../arm-none-eabi/lib/armv7-m/libg.a(lib_a-makebuf.o)
 .debug_loc     0x0000000000009436      0xd1f /usr/lib/gcc/arm-none-eabi/4.8.2/../../../arm-none-eabi/lib/armv7-m/libg.a(lib_a-mallocr.o)
 .debug_loc     0x000000000000a155      0x17b /usr/lib/gcc/arm-none-eabi/4.8.2/../../../arm-none-eabi/lib/armv7-m/libg.a(lib_a-memchr-stub.o)
 .debug_loc     0x000000000000a2d0      0x2ca /usr/lib/gcc/arm-none-eabi/4.8.2/../../../arm-none-eabi/lib/armv7-m/libg.a(lib_a-memmove.o)
 .debug_loc     0x000000000000a59a     0x2462 /usr/lib/gcc/arm-none-eabi/4.8.2/../../../arm-none-eabi/lib/armv7-m/libg.a(lib_a-mprec.o)
 .debug_loc     0x000000000000c9fc      0xe59 /usr/lib/gcc/arm-none-eabi/4.8.2/../../../arm-none-eabi/lib/armv7-m/libg.a(lib_a-reallocr.o)
 .debug_loc     0x000000000000d855       0x84 /usr/lib/gcc/arm-none-eabi/4.8.2/../../../arm-none-eabi/lib/armv7-m/libg.a(lib_a-s_fpclassify.o)
 .debug_loc     0x000000000000d8d9       0x3f /usr/lib/gcc/arm-none-eabi/4.8.2/../../../arm-none-eabi/lib/armv7-m/libg.a(lib_a-sbrkr.o)
 .debug_loc     0x000000000000d918      0x29e /usr/lib/gcc/arm-none-eabi/4.8.2/../../../arm-none-eabi/lib/armv7-m/libg.a(lib_a-stdio.o)
 .debug_loc     0x000000000000dbb6     0x1b4d /usr/lib/gcc/arm-none-eabi/4.8.2/../../../arm-none-eabi/lib/armv7-m/libg.a(lib_a-vfiprintf.o)
 .debug_loc     0x000000000000f703       0x97 /usr/lib/gcc/arm-none-eabi/4.8.2/../../../arm-none-eabi/lib/armv7-m/libg.a(lib_a-writer.o)
 .debug_loc     0x000000000000f79a      0x1f4 /usr/lib/gcc/arm-none-eabi/4.8.2/../../../arm-none-eabi/lib/armv7-m/libg.a(lib_a-callocr.o)
 .debug_loc     0x000000000000f98e       0x3f /usr/lib/gcc/arm-none-eabi/4.8.2/../../../arm-none-eabi/lib/armv7-m/libg.a(lib_a-closer.o)
 .debug_loc     0x000000000000f9cd       0xfc /usr/lib/gcc/arm-none-eabi/4.8.2/../../../arm-none-eabi/lib/armv7-m/libg.a(lib_a-fclose.o)
 .debug_loc     0x000000000000fac9      0x159 /usr/lib/gcc/arm-none-eabi/4.8.2/../../../arm-none-eabi/lib/armv7-m/libg.a(lib_a-fputwc.o)
 .debug_loc     0x000000000000fc22       0x6b /usr/lib/gcc/arm-none-eabi/4.8.2/../../../arm-none-eabi/lib/armv7-m/libg.a(lib_a-fstatr.o)
 .debug_loc     0x000000000000fc8d       0x3f /usr/lib/gcc/arm-none-eabi/4.8.2/../../../arm-none-eabi/lib/armv7-m/libg.a(lib_a-isattyr.o)
 .debug_loc     0x000000000000fccc       0x97 /usr/lib/gcc/arm-none-eabi/4.8.2/../../../arm-none-eabi/lib/armv7-m/libg.a(lib_a-lseekr.o)
 .debug_loc     0x000000000000fd63       0x97 /usr/lib/gcc/arm-none-eabi/4.8.2/../../../arm-none-eabi/lib/armv7-m/libg.a(lib_a-readr.o)
 .debug_loc     0x000000000000fdfa      0x13b /usr/lib/gcc/arm-none-eabi/4.8.2/../../../arm-none-eabi/lib/armv7-m/libg.a(lib_a-reent.o)
 .debug_loc     0x000000000000ff35      0x112 /usr/lib/gcc/arm-none-eabi/4.8.2/../../../arm-none-eabi/lib/armv7-m/libg.a(lib_a-wbuf.o)
 .debug_loc     0x0000000000010047      0x1e9 /usr/lib/gcc/arm-none-eabi/4.8.2/../../../arm-none-eabi/lib/armv7-m/libg.a(lib_a-wcrtomb.o)
 .debug_loc     0x0000000000010230       0xde /usr/lib/gcc/arm-none-eabi/4.8.2/../../../arm-none-eabi/lib/armv7-m/libg.a(lib_a-wctomb_r.o)
 .debug_loc     0x000000000001030e       0xa0 /usr/lib/gcc/arm-none-eabi/4.8.2/armv7-m/libgcc.a(bpabi.o)
 .debug_loc     0x00000000000103ae      0xa76 /usr/lib/gcc/arm-none-eabi/4.8.2/armv7-m/libgcc.a(_divdi3.o)
 .debug_loc     0x0000000000010e24      0xb3f /usr/lib/gcc/arm-none-eabi/4.8.2/armv7-m/libgcc.a(_udivdi3.o)

.debug_aranges  0x0000000000000000      0xa48
 .debug_aranges
                0x0000000000000000       0x20 /tmp/ccYeW5MD.o
 .debug_aranges
                0x0000000000000020       0x28 /tmp/ccy457S0.o
 .debug_aranges
                0x0000000000000048       0x20 /tmp/ccfKhGdo.o
 .debug_aranges
                0x0000000000000068       0x20 /tmp/ccdQTPML.o
 .debug_aranges
                0x0000000000000088       0x20 /tmp/ccvbLNB9.o
 .debug_aranges
                0x00000000000000a8       0x20 /tmp/ccYMHmDx.o
 .debug_aranges
                0x00000000000000c8       0x20 /tmp/ccgr0JQV.o
 .debug_aranges
                0x00000000000000e8       0x20 /tmp/ccBXF9fk.o
 .debug_aranges
                0x0000000000000108       0x20 /tmp/ccWTSJMI.o
 .debug_aranges
                0x0000000000000128       0x20 /tmp/ccfsXes7.o
 .debug_aranges
                0x0000000000000148       0x20 /tmp/ccwLsclw.o
 .debug_aranges
                0x0000000000000168       0x20 /tmp/ccmixTjV.o
 .debug_aranges
                0x0000000000000188       0x20 /tmp/ccQtMXok.o
 .debug_aranges
                0x00000000000001a8       0x20 /tmp/cc7LKoKJ.o
 .debug_aranges
                0x00000000000001c8       0x20 /tmp/cczzK2f9.o
 .debug_aranges
                0x00000000000001e8       0x20 /tmp/ccDAaAUy.o
 .debug_aranges
                0x0000000000000208       0x20 /tmp/ccwvsJNY.o
 .debug_aranges
                0x0000000000000228       0x20 /usr/lib/gcc/arm-none-eabi/4.8.2/../../../arm-none-eabi/lib/armv7-m/libg.a(lib_a-memcpy.o)
 .debug_aranges
                0x0000000000000248       0x20 /usr/lib/gcc/arm-none-eabi/4.8.2/../../../arm-none-eabi/lib/armv7-m/libg.a(lib_a-memset.o)
 .debug_aranges
                0x0000000000000268       0x28 /usr/lib/gcc/arm-none-eabi/4.8.2/../../../arm-none-eabi/lib/armv7-m/libg.a(lib_a-printf.o)
 .debug_aranges
                0x0000000000000290       0x28 /usr/lib/gcc/arm-none-eabi/4.8.2/../../../arm-none-eabi/lib/armv7-m/libg.a(lib_a-puts.o)
 .debug_aranges
                0x00000000000002b8       0x20 /usr/lib/gcc/arm-none-eabi/4.8.2/../../../arm-none-eabi/lib/armv7-m/libg.a(lib_a-strlen.o)
 .debug_aranges
                0x00000000000002d8       0x20 /usr/lib/gcc/arm-none-eabi/4.8.2/../../../arm-none-eabi/lib/armv7-m/libg.a(lib_a-strncpy.o)
 .debug_aranges
                0x00000000000002f8       0x30 /usr/lib/gcc/arm-none-eabi/4.8.2/../../../arm-none-eabi/lib/armv7-m/libg.a(lib_a-vfprintf.o)
 .debug_aranges
                0x0000000000000328       0x20 /usr/lib/gcc/arm-none-eabi/4.8.2/../../../arm-none-eabi/lib/armv7-m/libg.a(lib_a-wsetup.o)
 .debug_aranges
                0x0000000000000348       0x28 /usr/lib/gcc/arm-none-eabi/4.8.2/../../../arm-none-eabi/lib/armv7-m/libg.a(lib_a-dtoa.o)
 .debug_aranges
                0x0000000000000370       0x30 /usr/lib/gcc/arm-none-eabi/4.8.2/../../../arm-none-eabi/lib/armv7-m/libg.a(lib_a-fflush.o)
 .debug_aranges
                0x00000000000003a0       0x80 /usr/lib/gcc/arm-none-eabi/4.8.2/../../../arm-none-eabi/lib/armv7-m/libg.a(lib_a-findfp.o)
 .debug_aranges
                0x0000000000000420       0x28 /usr/lib/gcc/arm-none-eabi/4.8.2/../../../arm-none-eabi/lib/armv7-m/libg.a(lib_a-freer.o)
 .debug_aranges
                0x0000000000000448       0x20 /usr/lib/gcc/arm-none-eabi/4.8.2/../../../arm-none-eabi/lib/armv7-m/libg.a(lib_a-fvwrite.o)
 .debug_aranges
                0x0000000000000468       0x28 /usr/lib/gcc/arm-none-eabi/4.8.2/../../../arm-none-eabi/lib/armv7-m/libg.a(lib_a-fwalk.o)
 .debug_aranges
                0x0000000000000490       0x18 /usr/lib/gcc/arm-none-eabi/4.8.2/../../../arm-none-eabi/lib/armv7-m/libg.a(lib_a-impure.o)
 .debug_aranges
                0x00000000000004a8       0x58 /usr/lib/gcc/arm-none-eabi/4.8.2/../../../arm-none-eabi/lib/armv7-m/libg.a(lib_a-locale.o)
 .debug_aranges
                0x0000000000000500       0x20 /usr/lib/gcc/arm-none-eabi/4.8.2/../../../arm-none-eabi/lib/armv7-m/libg.a(lib_a-makebuf.o)
 .debug_aranges
                0x0000000000000520       0x20 /usr/lib/gcc/arm-none-eabi/4.8.2/../../../arm-none-eabi/lib/armv7-m/libg.a(lib_a-mallocr.o)
 .debug_aranges
                0x0000000000000540       0x20 /usr/lib/gcc/arm-none-eabi/4.8.2/../../../arm-none-eabi/lib/armv7-m/libg.a(lib_a-memchr-stub.o)
 .debug_aranges
                0x0000000000000560       0x20 /usr/lib/gcc/arm-none-eabi/4.8.2/../../../arm-none-eabi/lib/armv7-m/libg.a(lib_a-memmove.o)
 .debug_aranges
                0x0000000000000580       0x28 /usr/lib/gcc/arm-none-eabi/4.8.2/../../../arm-none-eabi/lib/armv7-m/libg.a(lib_a-mlock.o)
 .debug_aranges
                0x00000000000005a8       0xb0 /usr/lib/gcc/arm-none-eabi/4.8.2/../../../arm-none-eabi/lib/armv7-m/libg.a(lib_a-mprec.o)
 .debug_aranges
                0x0000000000000658       0x20 /usr/lib/gcc/arm-none-eabi/4.8.2/../../../arm-none-eabi/lib/armv7-m/libg.a(lib_a-reallocr.o)
 .debug_aranges
                0x0000000000000678       0x20 /usr/lib/gcc/arm-none-eabi/4.8.2/../../../arm-none-eabi/lib/armv7-m/libg.a(lib_a-s_fpclassify.o)
 .debug_aranges
                0x0000000000000698       0x20 /usr/lib/gcc/arm-none-eabi/4.8.2/../../../arm-none-eabi/lib/armv7-m/libg.a(lib_a-sbrkr.o)
 .debug_aranges
                0x00000000000006b8       0x40 /usr/lib/gcc/arm-none-eabi/4.8.2/../../../arm-none-eabi/lib/armv7-m/libg.a(lib_a-stdio.o)
 .debug_aranges
                0x00000000000006f8       0x20 /usr/lib/gcc/arm-none-eabi/4.8.2/../../../arm-none-eabi/lib/armv7-m/libg.a(lib_a-strcmp.o)
 .debug_aranges
                0x0000000000000718       0x40 /usr/lib/gcc/arm-none-eabi/4.8.2/../../../arm-none-eabi/lib/armv7-m/libg.a(lib_a-vfiprintf.o)
 .debug_aranges
                0x0000000000000758       0x20 /usr/lib/gcc/arm-none-eabi/4.8.2/../../../arm-none-eabi/lib/armv7-m/libg.a(lib_a-writer.o)
 .debug_aranges
                0x0000000000000778       0x20 /usr/lib/gcc/arm-none-eabi/4.8.2/../../../arm-none-eabi/lib/armv7-m/libg.a(lib_a-callocr.o)
 .debug_aranges
                0x0000000000000798       0x20 /usr/lib/gcc/arm-none-eabi/4.8.2/../../../arm-none-eabi/lib/armv7-m/libg.a(lib_a-closer.o)
 .debug_aranges
                0x00000000000007b8       0x28 /usr/lib/gcc/arm-none-eabi/4.8.2/../../../arm-none-eabi/lib/armv7-m/libg.a(lib_a-fclose.o)
 .debug_aranges
                0x00000000000007e0       0x28 /usr/lib/gcc/arm-none-eabi/4.8.2/../../../arm-none-eabi/lib/armv7-m/libg.a(lib_a-fputwc.o)
 .debug_aranges
                0x0000000000000808       0x20 /usr/lib/gcc/arm-none-eabi/4.8.2/../../../arm-none-eabi/lib/armv7-m/libg.a(lib_a-fstatr.o)
 .debug_aranges
                0x0000000000000828       0x20 /usr/lib/gcc/arm-none-eabi/4.8.2/../../../arm-none-eabi/lib/armv7-m/libg.a(lib_a-isattyr.o)
 .debug_aranges
                0x0000000000000848       0x20 /usr/lib/gcc/arm-none-eabi/4.8.2/../../../arm-none-eabi/lib/armv7-m/libg.a(lib_a-lseekr.o)
 .debug_aranges
                0x0000000000000868       0x20 /usr/lib/gcc/arm-none-eabi/4.8.2/../../../arm-none-eabi/lib/armv7-m/libg.a(lib_a-readr.o)
 .debug_aranges
                0x0000000000000888       0x28 /usr/lib/gcc/arm-none-eabi/4.8.2/../../../arm-none-eabi/lib/armv7-m/libg.a(lib_a-reent.o)
 .debug_aranges
                0x00000000000008b0       0x28 /usr/lib/gcc/arm-none-eabi/4.8.2/../../../arm-none-eabi/lib/armv7-m/libg.a(lib_a-wbuf.o)
 .debug_aranges
                0x00000000000008d8       0x28 /usr/lib/gcc/arm-none-eabi/4.8.2/../../../arm-none-eabi/lib/armv7-m/libg.a(lib_a-wcrtomb.o)
 .debug_aranges
                0x0000000000000900       0x28 /usr/lib/gcc/arm-none-eabi/4.8.2/../../../arm-none-eabi/lib/armv7-m/libg.a(lib_a-wctomb_r.o)
 .debug_aranges
                0x0000000000000928       0x20 /usr/lib/gcc/arm-none-eabi/4.8.2/armv7-m/libgcc.a(_arm_addsubdf3.o)
 .debug_aranges
                0x0000000000000948       0x20 /usr/lib/gcc/arm-none-eabi/4.8.2/armv7-m/libgcc.a(_arm_muldivdf3.o)
 .debug_aranges
                0x0000000000000968       0x20 /usr/lib/gcc/arm-none-eabi/4.8.2/armv7-m/libgcc.a(_arm_cmpdf2.o)
 .debug_aranges
                0x0000000000000988       0x20 /usr/lib/gcc/arm-none-eabi/4.8.2/armv7-m/libgcc.a(_arm_fixdfsi.o)
 .debug_aranges
                0x00000000000009a8       0x20 /usr/lib/gcc/arm-none-eabi/4.8.2/armv7-m/libgcc.a(_aeabi_uldivmod.o)
 .debug_aranges
                0x00000000000009c8       0x20 /usr/lib/gcc/arm-none-eabi/4.8.2/armv7-m/libgcc.a(bpabi.o)
 .debug_aranges
                0x00000000000009e8       0x20 /usr/lib/gcc/arm-none-eabi/4.8.2/armv7-m/libgcc.a(_dvmd_tls.o)
 .debug_aranges
                0x0000000000000a08       0x20 /usr/lib/gcc/arm-none-eabi/4.8.2/armv7-m/libgcc.a(_divdi3.o)
 .debug_aranges
                0x0000000000000a28       0x20 /usr/lib/gcc/arm-none-eabi/4.8.2/armv7-m/libgcc.a(_udivdi3.o)

.debug_macro    0x0000000000000000    0x15b09
 .debug_macro   0x0000000000000000       0xad /tmp/ccYeW5MD.o
 .debug_macro   0x00000000000000ad      0x844 /tmp/ccYeW5MD.o
 .debug_macro   0x00000000000008f1       0x63 /tmp/ccYeW5MD.o
 .debug_macro   0x0000000000000954       0x3b /tmp/ccYeW5MD.o
 .debug_macro   0x000000000000098f       0x16 /tmp/ccYeW5MD.o
 .debug_macro   0x00000000000009a5       0x44 /tmp/ccYeW5MD.o
 .debug_macro   0x00000000000009e9      0x209 /tmp/ccYeW5MD.o
 .debug_macro   0x0000000000000bf2       0x18 /tmp/ccYeW5MD.o
 .debug_macro   0x0000000000000c0a       0x42 /tmp/ccYeW5MD.o
 .debug_macro   0x0000000000000c4c      0xd39 /tmp/ccYeW5MD.o
 .debug_macro   0x0000000000001985     0x8264 /tmp/ccYeW5MD.o
 .debug_macro   0x0000000000009be9      0x155 /tmp/ccfKhGdo.o
 .debug_macro   0x0000000000009d3e      0x576 /tmp/ccfKhGdo.o
 .debug_macro   0x000000000000a2b4       0xa2 /tmp/ccdQTPML.o
 .debug_macro   0x000000000000a356      0x282 /tmp/ccdQTPML.o
 .debug_macro   0x000000000000a5d8      0x57c /tmp/ccdQTPML.o
 .debug_macro   0x000000000000ab54       0xba /tmp/ccvbLNB9.o
 .debug_macro   0x000000000000ac0e      0x21d /tmp/ccvbLNB9.o
 .debug_macro   0x000000000000ae2b       0x9f /tmp/ccYMHmDx.o
 .debug_macro   0x000000000000aeca       0xa8 /tmp/ccYMHmDx.o
 .debug_macro   0x000000000000af72       0x9f /tmp/ccgr0JQV.o
 .debug_macro   0x000000000000b011       0x7c /tmp/ccgr0JQV.o
 .debug_macro   0x000000000000b08d       0x8b /tmp/ccBXF9fk.o
 .debug_macro   0x000000000000b118      0x166 /tmp/ccBXF9fk.o
 .debug_macro   0x000000000000b27e       0x46 /tmp/ccBXF9fk.o
 .debug_macro   0x000000000000b2c4       0xc4 /tmp/ccBXF9fk.o
 .debug_macro   0x000000000000b388       0xa4 /tmp/ccBXF9fk.o
 .debug_macro   0x000000000000b42c       0x12 /tmp/ccBXF9fk.o
 .debug_macro   0x000000000000b43e       0x1f /tmp/ccBXF9fk.o
 .debug_macro   0x000000000000b45d      0x1ee /tmp/ccBXF9fk.o
 .debug_macro   0x000000000000b64b       0x49 /tmp/ccBXF9fk.o
 .debug_macro   0x000000000000b694       0x57 /tmp/ccBXF9fk.o
 .debug_macro   0x000000000000b6eb       0x49 /tmp/ccBXF9fk.o
 .debug_macro   0x000000000000b734      0x117 /tmp/ccWTSJMI.o
 .debug_macro   0x000000000000b84b       0x58 /tmp/ccWTSJMI.o
 .debug_macro   0x000000000000b8a3       0x35 /tmp/ccWTSJMI.o
 .debug_macro   0x000000000000b8d8       0xa3 /tmp/ccWTSJMI.o
 .debug_macro   0x000000000000b97b       0x16 /tmp/ccWTSJMI.o
 .debug_macro   0x000000000000b991      0x10e /tmp/ccWTSJMI.o
 .debug_macro   0x000000000000ba9f       0x7f /tmp/ccWTSJMI.o
 .debug_macro   0x000000000000bb1e       0x4a /tmp/ccWTSJMI.o
 .debug_macro   0x000000000000bb68       0x52 /tmp/ccWTSJMI.o
 .debug_macro   0x000000000000bbba       0x16 /tmp/ccWTSJMI.o
 .debug_macro   0x000000000000bbd0       0x43 /tmp/ccWTSJMI.o
 .debug_macro   0x000000000000bc13      0x180 /tmp/ccWTSJMI.o
 .debug_macro   0x000000000000bd93       0x22 /tmp/ccWTSJMI.o
 .debug_macro   0x000000000000bdb5      0x1cf /tmp/ccfsXes7.o
 .debug_macro   0x000000000000bf84      0x2a3 /tmp/ccfsXes7.o
 .debug_macro   0x000000000000c227       0x10 /tmp/ccfsXes7.o
 .debug_macro   0x000000000000c237       0x35 /tmp/ccfsXes7.o
 .debug_macro   0x000000000000c26c      0x20c /tmp/ccwLsclw.o
 .debug_macro   0x000000000000c478       0x16 /tmp/ccwLsclw.o
 .debug_macro   0x000000000000c48e       0x97 /tmp/ccwLsclw.o
 .debug_macro   0x000000000000c525       0x10 /tmp/ccwLsclw.o
 .debug_macro   0x000000000000c535       0xef /tmp/ccwLsclw.o
 .debug_macro   0x000000000000c624       0x10 /tmp/ccwLsclw.o
 .debug_macro   0x000000000000c634       0x22 /tmp/ccwLsclw.o
 .debug_macro   0x000000000000c656       0xbd /tmp/ccwLsclw.o
 .debug_macro   0x000000000000c713       0x16 /tmp/ccwLsclw.o
 .debug_macro   0x000000000000c729      0x14a /tmp/ccwLsclw.o
 .debug_macro   0x000000000000c873       0x5b /tmp/ccwLsclw.o
 .debug_macro   0x000000000000c8ce       0x16 /tmp/ccwLsclw.o
 .debug_macro   0x000000000000c8e4       0xb8 /tmp/ccmixTjV.o
 .debug_macro   0x000000000000c99c      0x132 /tmp/ccQtMXok.o
 .debug_macro   0x000000000000cace      0x229 /tmp/cc7LKoKJ.o
 .debug_macro   0x000000000000ccf7      0x15c /tmp/cczzK2f9.o
 .debug_macro   0x000000000000ce53       0x1c /tmp/cczzK2f9.o
 .debug_macro   0x000000000000ce6f       0x16 /tmp/cczzK2f9.o
 .debug_macro   0x000000000000ce85       0x10 /tmp/cczzK2f9.o
 .debug_macro   0x000000000000ce95       0x3a /tmp/cczzK2f9.o
 .debug_macro   0x000000000000cecf      0x120 /tmp/cczzK2f9.o
 .debug_macro   0x000000000000cfef      0x20f /tmp/cczzK2f9.o
 .debug_macro   0x000000000000d1fe       0x9f /tmp/ccDAaAUy.o
 .debug_macro   0x000000000000d29d      0x259 /tmp/ccwvsJNY.o
 .debug_macro   0x000000000000d4f6     0x822c /tmp/ccwvsJNY.o
 .debug_macro   0x0000000000015722      0x223 /tmp/ccwvsJNY.o
 .debug_macro   0x0000000000015945       0x3c /tmp/ccwvsJNY.o
 .debug_macro   0x0000000000015981       0x96 /tmp/ccwvsJNY.o
 .debug_macro   0x0000000000015a17       0x70 /tmp/ccwvsJNY.o
 .debug_macro   0x0000000000015a87       0x82 /tmp/ccwvsJNY.o

.debug_line     0x0000000000000000     0x8acd
 .debug_line    0x0000000000000000      0x248 /tmp/ccYeW5MD.o
 .debug_line    0x0000000000000248       0xb9 /tmp/ccy457S0.o
 .debug_line    0x0000000000000301      0x38f /tmp/ccfKhGdo.o
 .debug_line    0x0000000000000690      0x2c2 /tmp/ccdQTPML.o
 .debug_line    0x0000000000000952      0x359 /tmp/ccvbLNB9.o
 .debug_line    0x0000000000000cab      0x264 /tmp/ccYMHmDx.o
 .debug_line    0x0000000000000f0f      0x22b /tmp/ccgr0JQV.o
 .debug_line    0x000000000000113a      0x220 /tmp/ccBXF9fk.o
 .debug_line    0x000000000000135a      0x24c /tmp/ccWTSJMI.o
 .debug_line    0x00000000000015a6      0x39a /tmp/ccfsXes7.o
 .debug_line    0x0000000000001940      0x5d6 /tmp/ccwLsclw.o
 .debug_line    0x0000000000001f16      0x167 /tmp/ccmixTjV.o
 .debug_line    0x000000000000207d      0x24f /tmp/ccQtMXok.o
 .debug_line    0x00000000000022cc      0x4dc /tmp/cc7LKoKJ.o
 .debug_line    0x00000000000027a8      0x1f4 /tmp/cczzK2f9.o
 .debug_line    0x000000000000299c      0x1e8 /tmp/ccDAaAUy.o
 .debug_line    0x0000000000002b84      0x42a /tmp/ccwvsJNY.o
 .debug_line    0x0000000000002fae       0xbb /usr/lib/gcc/arm-none-eabi/4.8.2/../../../arm-none-eabi/lib/armv7-m/libg.a(lib_a-memcpy.o)
 .debug_line    0x0000000000003069       0xff /usr/lib/gcc/arm-none-eabi/4.8.2/../../../arm-none-eabi/lib/armv7-m/libg.a(lib_a-memset.o)
 .debug_line    0x0000000000003168      0x157 /usr/lib/gcc/arm-none-eabi/4.8.2/../../../arm-none-eabi/lib/armv7-m/libg.a(lib_a-printf.o)
 .debug_line    0x00000000000032bf      0x173 /usr/lib/gcc/arm-none-eabi/4.8.2/../../../arm-none-eabi/lib/armv7-m/libg.a(lib_a-puts.o)
 .debug_line    0x0000000000003432       0xd7 /usr/lib/gcc/arm-none-eabi/4.8.2/../../../arm-none-eabi/lib/armv7-m/libg.a(lib_a-strlen.o)
 .debug_line    0x0000000000003509      0x101 /usr/lib/gcc/arm-none-eabi/4.8.2/../../../arm-none-eabi/lib/armv7-m/libg.a(lib_a-strncpy.o)
 .debug_line    0x000000000000360a      0x958 /usr/lib/gcc/arm-none-eabi/4.8.2/../../../arm-none-eabi/lib/armv7-m/libg.a(lib_a-vfprintf.o)
 .debug_line    0x0000000000003f62      0x186 /usr/lib/gcc/arm-none-eabi/4.8.2/../../../arm-none-eabi/lib/armv7-m/libg.a(lib_a-wsetup.o)
 .debug_line    0x00000000000040e8      0x654 /usr/lib/gcc/arm-none-eabi/4.8.2/../../../arm-none-eabi/lib/armv7-m/libg.a(lib_a-dtoa.o)
 .debug_line    0x000000000000473c      0x224 /usr/lib/gcc/arm-none-eabi/4.8.2/../../../arm-none-eabi/lib/armv7-m/libg.a(lib_a-fflush.o)
 .debug_line    0x0000000000004960      0x2c9 /usr/lib/gcc/arm-none-eabi/4.8.2/../../../arm-none-eabi/lib/armv7-m/libg.a(lib_a-findfp.o)
 .debug_line    0x0000000000004c29      0x221 /usr/lib/gcc/arm-none-eabi/4.8.2/../../../arm-none-eabi/lib/armv7-m/libg.a(lib_a-freer.o)
 .debug_line    0x0000000000004e4a      0x290 /usr/lib/gcc/arm-none-eabi/4.8.2/../../../arm-none-eabi/lib/armv7-m/libg.a(lib_a-fvwrite.o)
 .debug_line    0x00000000000050da      0x191 /usr/lib/gcc/arm-none-eabi/4.8.2/../../../arm-none-eabi/lib/armv7-m/libg.a(lib_a-fwalk.o)
 .debug_line    0x000000000000526b       0xd6 /usr/lib/gcc/arm-none-eabi/4.8.2/../../../arm-none-eabi/lib/armv7-m/libg.a(lib_a-impure.o)
 .debug_line    0x0000000000005341      0x1c4 /usr/lib/gcc/arm-none-eabi/4.8.2/../../../arm-none-eabi/lib/armv7-m/libg.a(lib_a-locale.o)
 .debug_line    0x0000000000005505      0x1af /usr/lib/gcc/arm-none-eabi/4.8.2/../../../arm-none-eabi/lib/armv7-m/libg.a(lib_a-makebuf.o)
 .debug_line    0x00000000000056b4      0x325 /usr/lib/gcc/arm-none-eabi/4.8.2/../../../arm-none-eabi/lib/armv7-m/libg.a(lib_a-mallocr.o)
 .debug_line    0x00000000000059d9      0x115 /usr/lib/gcc/arm-none-eabi/4.8.2/../../../arm-none-eabi/lib/armv7-m/libg.a(lib_a-memchr-stub.o)
 .debug_line    0x0000000000005aee      0x114 /usr/lib/gcc/arm-none-eabi/4.8.2/../../../arm-none-eabi/lib/armv7-m/libg.a(lib_a-memmove.o)
 .debug_line    0x0000000000005c02       0xf4 /usr/lib/gcc/arm-none-eabi/4.8.2/../../../arm-none-eabi/lib/armv7-m/libg.a(lib_a-mlock.o)
 .debug_line    0x0000000000005cf6      0x68f /usr/lib/gcc/arm-none-eabi/4.8.2/../../../arm-none-eabi/lib/armv7-m/libg.a(lib_a-mprec.o)
 .debug_line    0x0000000000006385      0x23c /usr/lib/gcc/arm-none-eabi/4.8.2/../../../arm-none-eabi/lib/armv7-m/libg.a(lib_a-reallocr.o)
 .debug_line    0x00000000000065c1       0xf7 /usr/lib/gcc/arm-none-eabi/4.8.2/../../../arm-none-eabi/lib/armv7-m/libg.a(lib_a-s_fpclassify.o)
 .debug_line    0x00000000000066b8      0x12c /usr/lib/gcc/arm-none-eabi/4.8.2/../../../arm-none-eabi/lib/armv7-m/libg.a(lib_a-sbrkr.o)
 .debug_line    0x00000000000067e4      0x19e /usr/lib/gcc/arm-none-eabi/4.8.2/../../../arm-none-eabi/lib/armv7-m/libg.a(lib_a-stdio.o)
 .debug_line    0x0000000000006982       0xfb /usr/lib/gcc/arm-none-eabi/4.8.2/../../../arm-none-eabi/lib/armv7-m/libg.a(lib_a-strcmp.o)
 .debug_line    0x0000000000006a7d      0x6c3 /usr/lib/gcc/arm-none-eabi/4.8.2/../../../arm-none-eabi/lib/armv7-m/libg.a(lib_a-vfiprintf.o)
 .debug_line    0x0000000000007140      0x12f /usr/lib/gcc/arm-none-eabi/4.8.2/../../../arm-none-eabi/lib/armv7-m/libg.a(lib_a-writer.o)
 .debug_line    0x000000000000726f      0x111 /usr/lib/gcc/arm-none-eabi/4.8.2/../../../arm-none-eabi/lib/armv7-m/libg.a(lib_a-callocr.o)
 .debug_line    0x0000000000007380      0x12d /usr/lib/gcc/arm-none-eabi/4.8.2/../../../arm-none-eabi/lib/armv7-m/libg.a(lib_a-closer.o)
 .debug_line    0x00000000000074ad      0x18d /usr/lib/gcc/arm-none-eabi/4.8.2/../../../arm-none-eabi/lib/armv7-m/libg.a(lib_a-fclose.o)
 .debug_line    0x000000000000763a      0x18e /usr/lib/gcc/arm-none-eabi/4.8.2/../../../arm-none-eabi/lib/armv7-m/libg.a(lib_a-fputwc.o)
 .debug_line    0x00000000000077c8      0x142 /usr/lib/gcc/arm-none-eabi/4.8.2/../../../arm-none-eabi/lib/armv7-m/libg.a(lib_a-fstatr.o)
 .debug_line    0x000000000000790a      0x12e /usr/lib/gcc/arm-none-eabi/4.8.2/../../../arm-none-eabi/lib/armv7-m/libg.a(lib_a-isattyr.o)
 .debug_line    0x0000000000007a38      0x12f /usr/lib/gcc/arm-none-eabi/4.8.2/../../../arm-none-eabi/lib/armv7-m/libg.a(lib_a-lseekr.o)
 .debug_line    0x0000000000007b67      0x12e /usr/lib/gcc/arm-none-eabi/4.8.2/../../../arm-none-eabi/lib/armv7-m/libg.a(lib_a-readr.o)
 .debug_line    0x0000000000007c95      0x162 /usr/lib/gcc/arm-none-eabi/4.8.2/../../../arm-none-eabi/lib/armv7-m/libg.a(lib_a-reent.o)
 .debug_line    0x0000000000007df7      0x191 /usr/lib/gcc/arm-none-eabi/4.8.2/../../../arm-none-eabi/lib/armv7-m/libg.a(lib_a-wbuf.o)
 .debug_line    0x0000000000007f88      0x16a /usr/lib/gcc/arm-none-eabi/4.8.2/../../../arm-none-eabi/lib/armv7-m/libg.a(lib_a-wcrtomb.o)
 .debug_line    0x00000000000080f2      0x15a /usr/lib/gcc/arm-none-eabi/4.8.2/../../../arm-none-eabi/lib/armv7-m/libg.a(lib_a-wctomb_r.o)
 .debug_line    0x000000000000824c      0x1fc /usr/lib/gcc/arm-none-eabi/4.8.2/armv7-m/libgcc.a(_arm_addsubdf3.o)
 .debug_line    0x0000000000008448      0x21d /usr/lib/gcc/arm-none-eabi/4.8.2/armv7-m/libgcc.a(_arm_muldivdf3.o)
 .debug_line    0x0000000000008665      0x103 /usr/lib/gcc/arm-none-eabi/4.8.2/armv7-m/libgcc.a(_arm_cmpdf2.o)
 .debug_line    0x0000000000008768       0x7d /usr/lib/gcc/arm-none-eabi/4.8.2/armv7-m/libgcc.a(_arm_fixdfsi.o)
 .debug_line    0x00000000000087e5       0x68 /usr/lib/gcc/arm-none-eabi/4.8.2/armv7-m/libgcc.a(_aeabi_uldivmod.o)
 .debug_line    0x000000000000884d       0x68 /usr/lib/gcc/arm-none-eabi/4.8.2/armv7-m/libgcc.a(bpabi.o)
 .debug_line    0x00000000000088b5       0x64 /usr/lib/gcc/arm-none-eabi/4.8.2/armv7-m/libgcc.a(_dvmd_tls.o)
 .debug_line    0x0000000000008919       0xdc /usr/lib/gcc/arm-none-eabi/4.8.2/armv7-m/libgcc.a(_divdi3.o)
 .debug_line    0x00000000000089f5       0xd8 /usr/lib/gcc/arm-none-eabi/4.8.2/armv7-m/libgcc.a(_udivdi3.o)

.debug_str      0x0000000000000000    0x48ad1
 .debug_str     0x0000000000000000    0x36032 /tmp/ccYeW5MD.o
                                      0x361b7 (size before relaxing)
 .debug_str     0x0000000000036032     0x3b45 /tmp/ccfKhGdo.o
                                      0x39bb4 (size before relaxing)
 .debug_str     0x0000000000039b77     0x18a4 /tmp/ccdQTPML.o
                                      0x3a803 (size before relaxing)
 .debug_str     0x000000000003b41b     0x195e /tmp/ccvbLNB9.o
                                      0x3a98d (size before relaxing)
 .debug_str     0x000000000003cd79      0x89d /tmp/ccYMHmDx.o
                                      0x367cb (size before relaxing)
 .debug_str     0x000000000003d616      0x686 /tmp/ccgr0JQV.o
                                      0x36631 (size before relaxing)
 .debug_str     0x000000000003dc9c     0x283b /tmp/ccBXF9fk.o
                                       0x4c1a (size before relaxing)
 .debug_str     0x00000000000404d7     0x1401 /tmp/ccWTSJMI.o
                                       0x550f (size before relaxing)
 .debug_str     0x00000000000418d8     0x160a /tmp/ccfsXes7.o
                                       0x6ddc (size before relaxing)
 .debug_str     0x0000000000042ee2     0x1aba /tmp/ccwLsclw.o
                                       0x8282 (size before relaxing)
 .debug_str     0x000000000004499c      0x347 /tmp/ccmixTjV.o
                                       0x455f (size before relaxing)
 .debug_str     0x0000000000044ce3       0xb2 /tmp/ccQtMXok.o
                                       0x57f5 (size before relaxing)
 .debug_str     0x0000000000044d95      0xcf8 /tmp/cc7LKoKJ.o
                                      0x39cc9 (size before relaxing)
 .debug_str     0x0000000000045a8d      0x9b2 /tmp/cczzK2f9.o
                                       0x58b6 (size before relaxing)
 .debug_str     0x000000000004643f       0x5c /tmp/ccDAaAUy.o
                                      0x360d2 (size before relaxing)
 .debug_str     0x000000000004649b      0xf00 /tmp/ccwvsJNY.o
                                      0x3e8d2 (size before relaxing)
 .debug_str     0x000000000004739b      0x117 /usr/lib/gcc/arm-none-eabi/4.8.2/../../../arm-none-eabi/lib/armv7-m/libg.a(lib_a-memset.o)
                                        0x1b0 (size before relaxing)
 .debug_str     0x00000000000474b2       0x91 /usr/lib/gcc/arm-none-eabi/4.8.2/../../../arm-none-eabi/lib/armv7-m/libg.a(lib_a-printf.o)
                                        0x596 (size before relaxing)
 .debug_str     0x0000000000047543       0x88 /usr/lib/gcc/arm-none-eabi/4.8.2/../../../arm-none-eabi/lib/armv7-m/libg.a(lib_a-puts.o)
                                        0x5bc (size before relaxing)
 .debug_str     0x00000000000475cb       0x85 /usr/lib/gcc/arm-none-eabi/4.8.2/../../../arm-none-eabi/lib/armv7-m/libg.a(lib_a-strlen.o)
                                        0x1a9 (size before relaxing)
 .debug_str     0x0000000000047650       0x59 /usr/lib/gcc/arm-none-eabi/4.8.2/../../../arm-none-eabi/lib/armv7-m/libg.a(lib_a-strncpy.o)
                                        0x1c6 (size before relaxing)
 .debug_str     0x00000000000476a9      0x348 /usr/lib/gcc/arm-none-eabi/4.8.2/../../../arm-none-eabi/lib/armv7-m/libg.a(lib_a-vfprintf.o)
                                        0x94f (size before relaxing)
 .debug_str     0x00000000000479f1       0x42 /usr/lib/gcc/arm-none-eabi/4.8.2/../../../arm-none-eabi/lib/armv7-m/libg.a(lib_a-wsetup.o)
                                        0x58c (size before relaxing)
 .debug_str     0x0000000000047a33      0x19b /usr/lib/gcc/arm-none-eabi/4.8.2/../../../arm-none-eabi/lib/armv7-m/libg.a(lib_a-dtoa.o)
                                        0x6bf (size before relaxing)
 .debug_str     0x0000000000047bce       0x5d /usr/lib/gcc/arm-none-eabi/4.8.2/../../../arm-none-eabi/lib/armv7-m/libg.a(lib_a-fflush.o)
                                        0x5cd (size before relaxing)
 .debug_str     0x0000000000047c2b      0x10d /usr/lib/gcc/arm-none-eabi/4.8.2/../../../arm-none-eabi/lib/armv7-m/libg.a(lib_a-findfp.o)
                                        0x67a (size before relaxing)
 .debug_str     0x0000000000047d38      0x16c /usr/lib/gcc/arm-none-eabi/4.8.2/../../../arm-none-eabi/lib/armv7-m/libg.a(lib_a-freer.o)
                                        0x6c6 (size before relaxing)
 .debug_str     0x0000000000047ea4       0x5f /usr/lib/gcc/arm-none-eabi/4.8.2/../../../arm-none-eabi/lib/armv7-m/libg.a(lib_a-fvwrite.o)
                                        0x5ff (size before relaxing)
 .debug_str     0x0000000000047f03       0x3b /usr/lib/gcc/arm-none-eabi/4.8.2/../../../arm-none-eabi/lib/armv7-m/libg.a(lib_a-fwalk.o)
                                        0x572 (size before relaxing)
 .debug_str     0x0000000000047f3e       0x82 /usr/lib/gcc/arm-none-eabi/4.8.2/../../../arm-none-eabi/lib/armv7-m/libg.a(lib_a-impure.o)
                                        0x56d (size before relaxing)
 .debug_str     0x0000000000047fc0      0x15f /usr/lib/gcc/arm-none-eabi/4.8.2/../../../arm-none-eabi/lib/armv7-m/libg.a(lib_a-locale.o)
                                        0x7ca (size before relaxing)
 .debug_str     0x000000000004811f       0x4c /usr/lib/gcc/arm-none-eabi/4.8.2/../../../arm-none-eabi/lib/armv7-m/libg.a(lib_a-makebuf.o)
                                        0x66f (size before relaxing)
 .debug_str     0x000000000004816b       0xdf /usr/lib/gcc/arm-none-eabi/4.8.2/../../../arm-none-eabi/lib/armv7-m/libg.a(lib_a-mallocr.o)
                                        0x77c (size before relaxing)
 .debug_str     0x000000000004824a       0x49 /usr/lib/gcc/arm-none-eabi/4.8.2/../../../arm-none-eabi/lib/armv7-m/libg.a(lib_a-memchr-stub.o)
                                        0x1c8 (size before relaxing)
 .debug_str     0x0000000000048293       0x38 /usr/lib/gcc/arm-none-eabi/4.8.2/../../../arm-none-eabi/lib/armv7-m/libg.a(lib_a-memmove.o)
                                        0x1cf (size before relaxing)
 .debug_str     0x00000000000482cb       0x42 /usr/lib/gcc/arm-none-eabi/4.8.2/../../../arm-none-eabi/lib/armv7-m/libg.a(lib_a-mlock.o)
                                        0x576 (size before relaxing)
 .debug_str     0x000000000004830d       0x98 /usr/lib/gcc/arm-none-eabi/4.8.2/../../../arm-none-eabi/lib/armv7-m/libg.a(lib_a-mprec.o)
                                        0x679 (size before relaxing)
 .debug_str     0x00000000000483a5       0x4e /usr/lib/gcc/arm-none-eabi/4.8.2/../../../arm-none-eabi/lib/armv7-m/libg.a(lib_a-reallocr.o)
                                        0x64e (size before relaxing)
 .debug_str     0x00000000000483f3       0x7e /usr/lib/gcc/arm-none-eabi/4.8.2/../../../arm-none-eabi/lib/armv7-m/libg.a(lib_a-s_fpclassify.o)
                                        0x1c6 (size before relaxing)
 .debug_str     0x0000000000048471       0x2c /usr/lib/gcc/arm-none-eabi/4.8.2/../../../arm-none-eabi/lib/armv7-m/libg.a(lib_a-sbrkr.o)
                                        0x564 (size before relaxing)
 .debug_str     0x000000000004849d       0x7c /usr/lib/gcc/arm-none-eabi/4.8.2/../../../arm-none-eabi/lib/armv7-m/libg.a(lib_a-stdio.o)
                                        0x5c8 (size before relaxing)
 .debug_str     0x0000000000048519       0x21 /usr/lib/gcc/arm-none-eabi/4.8.2/../../../arm-none-eabi/lib/armv7-m/libg.a(lib_a-vfiprintf.o)
                                        0x741 (size before relaxing)
 .debug_str     0x000000000004853a       0x2d /usr/lib/gcc/arm-none-eabi/4.8.2/../../../arm-none-eabi/lib/armv7-m/libg.a(lib_a-writer.o)
                                        0x561 (size before relaxing)
 .debug_str     0x0000000000048567        0xf /usr/lib/gcc/arm-none-eabi/4.8.2/../../../arm-none-eabi/lib/armv7-m/libg.a(lib_a-callocr.o)
                                        0x5a6 (size before relaxing)
 .debug_str     0x0000000000048576       0x2d /usr/lib/gcc/arm-none-eabi/4.8.2/../../../arm-none-eabi/lib/armv7-m/libg.a(lib_a-closer.o)
                                        0x551 (size before relaxing)
 .debug_str     0x00000000000485a3       0x3e /usr/lib/gcc/arm-none-eabi/4.8.2/../../../arm-none-eabi/lib/armv7-m/libg.a(lib_a-fclose.o)
                                        0x5b9 (size before relaxing)
 .debug_str     0x00000000000485e1       0x4b /usr/lib/gcc/arm-none-eabi/4.8.2/../../../arm-none-eabi/lib/armv7-m/libg.a(lib_a-fputwc.o)
                                        0x5cd (size before relaxing)
 .debug_str     0x000000000004862c       0x33 /usr/lib/gcc/arm-none-eabi/4.8.2/../../../arm-none-eabi/lib/armv7-m/libg.a(lib_a-fstatr.o)
                                        0x644 (size before relaxing)
 .debug_str     0x000000000004865f       0x2e /usr/lib/gcc/arm-none-eabi/4.8.2/../../../arm-none-eabi/lib/armv7-m/libg.a(lib_a-isattyr.o)
                                        0x55b (size before relaxing)
 .debug_str     0x000000000004868d       0x2d /usr/lib/gcc/arm-none-eabi/4.8.2/../../../arm-none-eabi/lib/armv7-m/libg.a(lib_a-lseekr.o)
                                        0x55f (size before relaxing)
 .debug_str     0x00000000000486ba       0x2c /usr/lib/gcc/arm-none-eabi/4.8.2/../../../arm-none-eabi/lib/armv7-m/libg.a(lib_a-readr.o)
                                        0x55f (size before relaxing)
 .debug_str     0x00000000000486e6       0x58 /usr/lib/gcc/arm-none-eabi/4.8.2/../../../arm-none-eabi/lib/armv7-m/libg.a(lib_a-reent.o)
                                        0x58c (size before relaxing)
 .debug_str     0x000000000004873e       0x33 /usr/lib/gcc/arm-none-eabi/4.8.2/../../../arm-none-eabi/lib/armv7-m/libg.a(lib_a-wbuf.o)
                                        0x591 (size before relaxing)
 .debug_str     0x0000000000048771       0x47 /usr/lib/gcc/arm-none-eabi/4.8.2/../../../arm-none-eabi/lib/armv7-m/libg.a(lib_a-wcrtomb.o)
                                        0x5a4 (size before relaxing)
 .debug_str     0x00000000000487b8       0x50 /usr/lib/gcc/arm-none-eabi/4.8.2/../../../arm-none-eabi/lib/armv7-m/libg.a(lib_a-wctomb_r.o)
                                        0x5ad (size before relaxing)
 .debug_str     0x0000000000048808      0x16f /usr/lib/gcc/arm-none-eabi/4.8.2/armv7-m/libgcc.a(bpabi.o)
                                        0x19e (size before relaxing)
 .debug_str     0x0000000000048977      0x15a /usr/lib/gcc/arm-none-eabi/4.8.2/armv7-m/libgcc.a(_divdi3.o)
                                        0x24c (size before relaxing)
 .debug_str     0x0000000000000000      0x24d /usr/lib/gcc/arm-none-eabi/4.8.2/armv7-m/libgcc.a(_udivdi3.o)

.comment        0x0000000000000000       0x1f
 .comment       0x0000000000000000       0x1f /tmp/ccYeW5MD.o
                                         0x20 (size before relaxing)
 .comment       0x0000000000000000       0x20 /tmp/ccfKhGdo.o
 .comment       0x0000000000000000       0x20 /tmp/ccdQTPML.o
 .comment       0x0000000000000000       0x20 /tmp/ccvbLNB9.o
 .comment       0x0000000000000000       0x20 /tmp/ccYMHmDx.o
 .comment       0x0000000000000000       0x20 /tmp/ccgr0JQV.o
 .comment       0x0000000000000000       0x20 /tmp/ccBXF9fk.o
 .comment       0x0000000000000000       0x20 /tmp/ccWTSJMI.o
 .comment       0x0000000000000000       0x20 /tmp/ccfsXes7.o
 .comment       0x0000000000000000       0x20 /tmp/ccwLsclw.o
 .comment       0x0000000000000000       0x20 /tmp/ccmixTjV.o
 .comment       0x0000000000000000       0x20 /tmp/ccQtMXok.o
 .comment       0x0000000000000000       0x20 /tmp/cc7LKoKJ.o
 .comment       0x0000000000000000       0x20 /tmp/cczzK2f9.o
 .comment       0x0000000000000000       0x20 /tmp/ccDAaAUy.o
 .comment       0x0000000000000000       0x20 /tmp/ccwvsJNY.o
 .comment       0x0000000000000000       0x20 /usr/lib/gcc/arm-none-eabi/4.8.2/../../../arm-none-eabi/lib/armv7-m/libg.a(lib_a-memset.o)
 .comment       0x0000000000000000       0x20 /usr/lib/gcc/arm-none-eabi/4.8.2/../../../arm-none-eabi/lib/armv7-m/libg.a(lib_a-printf.o)
 .comment       0x0000000000000000       0x20 /usr/lib/gcc/arm-none-eabi/4.8.2/../../../arm-none-eabi/lib/armv7-m/libg.a(lib_a-puts.o)
 .comment       0x0000000000000000       0x20 /usr/lib/gcc/arm-none-eabi/4.8.2/../../../arm-none-eabi/lib/armv7-m/libg.a(lib_a-strlen.o)
 .comment       0x0000000000000000       0x20 /usr/lib/gcc/arm-none-eabi/4.8.2/../../../arm-none-eabi/lib/armv7-m/libg.a(lib_a-strncpy.o)
 .comment       0x0000000000000000       0x20 /usr/lib/gcc/arm-none-eabi/4.8.2/../../../arm-none-eabi/lib/armv7-m/libg.a(lib_a-vfprintf.o)
 .comment       0x0000000000000000       0x20 /usr/lib/gcc/arm-none-eabi/4.8.2/../../../arm-none-eabi/lib/armv7-m/libg.a(lib_a-wsetup.o)
 .comment       0x0000000000000000       0x20 /usr/lib/gcc/arm-none-eabi/4.8.2/../../../arm-none-eabi/lib/armv7-m/libg.a(lib_a-dtoa.o)
 .comment       0x0000000000000000       0x20 /usr/lib/gcc/arm-none-eabi/4.8.2/../../../arm-none-eabi/lib/armv7-m/libg.a(lib_a-fflush.o)
 .comment       0x0000000000000000       0x20 /usr/lib/gcc/arm-none-eabi/4.8.2/../../../arm-none-eabi/lib/armv7-m/libg.a(lib_a-findfp.o)
 .comment       0x0000000000000000       0x20 /usr/lib/gcc/arm-none-eabi/4.8.2/../../../arm-none-eabi/lib/armv7-m/libg.a(lib_a-freer.o)
 .comment       0x0000000000000000       0x20 /usr/lib/gcc/arm-none-eabi/4.8.2/../../../arm-none-eabi/lib/armv7-m/libg.a(lib_a-fvwrite.o)
 .comment       0x0000000000000000       0x20 /usr/lib/gcc/arm-none-eabi/4.8.2/../../../arm-none-eabi/lib/armv7-m/libg.a(lib_a-fwalk.o)
 .comment       0x0000000000000000       0x20 /usr/lib/gcc/arm-none-eabi/4.8.2/../../../arm-none-eabi/lib/armv7-m/libg.a(lib_a-impure.o)
 .comment       0x0000000000000000       0x20 /usr/lib/gcc/arm-none-eabi/4.8.2/../../../arm-none-eabi/lib/armv7-m/libg.a(lib_a-locale.o)
 .comment       0x0000000000000000       0x20 /usr/lib/gcc/arm-none-eabi/4.8.2/../../../arm-none-eabi/lib/armv7-m/libg.a(lib_a-makebuf.o)
 .comment       0x0000000000000000       0x20 /usr/lib/gcc/arm-none-eabi/4.8.2/../../../arm-none-eabi/lib/armv7-m/libg.a(lib_a-mallocr.o)
 .comment       0x0000000000000000       0x20 /usr/lib/gcc/arm-none-eabi/4.8.2/../../../arm-none-eabi/lib/armv7-m/libg.a(lib_a-memchr-stub.o)
 .comment       0x0000000000000000       0x20 /usr/lib/gcc/arm-none-eabi/4.8.2/../../../arm-none-eabi/lib/armv7-m/libg.a(lib_a-memmove.o)
 .comment       0x0000000000000000       0x20 /usr/lib/gcc/arm-none-eabi/4.8.2/../../../arm-none-eabi/lib/armv7-m/libg.a(lib_a-mlock.o)
 .comment       0x0000000000000000       0x20 /usr/lib/gcc/arm-none-eabi/4.8.2/../../../arm-none-eabi/lib/armv7-m/libg.a(lib_a-mprec.o)
 .comment       0x0000000000000000       0x20 /usr/lib/gcc/arm-none-eabi/4.8.2/../../../arm-none-eabi/lib/armv7-m/libg.a(lib_a-reallocr.o)
 .comment       0x0000000000000000       0x20 /usr/lib/gcc/arm-none-eabi/4.8.2/../../../arm-none-eabi/lib/armv7-m/libg.a(lib_a-s_fpclassify.o)
 .comment       0x0000000000000000       0x20 /usr/lib/gcc/arm-none-eabi/4.8.2/../../../arm-none-eabi/lib/armv7-m/libg.a(lib_a-sbrkr.o)
 .comment       0x0000000000000000       0x20 /usr/lib/gcc/arm-none-eabi/4.8.2/../../../arm-none-eabi/lib/armv7-m/libg.a(lib_a-stdio.o)
 .comment       0x0000000000000000       0x20 /usr/lib/gcc/arm-none-eabi/4.8.2/../../../arm-none-eabi/lib/armv7-m/libg.a(lib_a-vfiprintf.o)
 .comment       0x0000000000000000       0x20 /usr/lib/gcc/arm-none-eabi/4.8.2/../../../arm-none-eabi/lib/armv7-m/libg.a(lib_a-writer.o)
 .comment       0x0000000000000000       0x20 /usr/lib/gcc/arm-none-eabi/4.8.2/../../../arm-none-eabi/lib/armv7-m/libg.a(lib_a-callocr.o)
 .comment       0x0000000000000000       0x20 /usr/lib/gcc/arm-none-eabi/4.8.2/../../../arm-none-eabi/lib/armv7-m/libg.a(lib_a-closer.o)
 .comment       0x0000000000000000       0x20 /usr/lib/gcc/arm-none-eabi/4.8.2/../../../arm-none-eabi/lib/armv7-m/libg.a(lib_a-fclose.o)
 .comment       0x0000000000000000       0x20 /usr/lib/gcc/arm-none-eabi/4.8.2/../../../arm-none-eabi/lib/armv7-m/libg.a(lib_a-fputwc.o)
 .comment       0x0000000000000000       0x20 /usr/lib/gcc/arm-none-eabi/4.8.2/../../../arm-none-eabi/lib/armv7-m/libg.a(lib_a-fstatr.o)
 .comment       0x0000000000000000       0x20 /usr/lib/gcc/arm-none-eabi/4.8.2/../../../arm-none-eabi/lib/armv7-m/libg.a(lib_a-isattyr.o)
 .comment       0x0000000000000000       0x20 /usr/lib/gcc/arm-none-eabi/4.8.2/../../../arm-none-eabi/lib/armv7-m/libg.a(lib_a-lseekr.o)
 .comment       0x0000000000000000       0x20 /usr/lib/gcc/arm-none-eabi/4.8.2/../../../arm-none-eabi/lib/armv7-m/libg.a(lib_a-readr.o)
 .comment       0x0000000000000000       0x20 /usr/lib/gcc/arm-none-eabi/4.8.2/../../../arm-none-eabi/lib/armv7-m/libg.a(lib_a-reent.o)
 .comment       0x0000000000000000       0x20 /usr/lib/gcc/arm-none-eabi/4.8.2/../../../arm-none-eabi/lib/armv7-m/libg.a(lib_a-wbuf.o)
 .comment       0x0000000000000000       0x20 /usr/lib/gcc/arm-none-eabi/4.8.2/../../../arm-none-eabi/lib/armv7-m/libg.a(lib_a-wcrtomb.o)
 .comment       0x0000000000000000       0x20 /usr/lib/gcc/arm-none-eabi/4.8.2/../../../arm-none-eabi/lib/armv7-m/libg.a(lib_a-wctomb_r.o)
 .comment       0x0000000000000000       0x20 /usr/lib/gcc/arm-none-eabi/4.8.2/armv7-m/libgcc.a(bpabi.o)
 .comment       0x0000000000000000       0x20 /usr/lib/gcc/arm-none-eabi/4.8.2/armv7-m/libgcc.a(_divdi3.o)
 .comment       0x0000000000000000       0x20 /usr/lib/gcc/arm-none-eabi/4.8.2/armv7-m/libgcc.a(_udivdi3.o)

.ARM.attributes
                0x0000000000000000       0x31
 .ARM.attributes
                0x0000000000000000       0x33 /tmp/ccYeW5MD.o
 .ARM.attributes
                0x0000000000000033       0x21 /tmp/ccy457S0.o
 .ARM.attributes
                0x0000000000000054       0x33 /tmp/ccfKhGdo.o
 .ARM.attributes
                0x0000000000000087       0x33 /tmp/ccdQTPML.o
 .ARM.attributes
                0x00000000000000ba       0x33 /tmp/ccvbLNB9.o
 .ARM.attributes
                0x00000000000000ed       0x33 /tmp/ccYMHmDx.o
 .ARM.attributes
                0x0000000000000120       0x33 /tmp/ccgr0JQV.o
 .ARM.attributes
                0x0000000000000153       0x33 /tmp/ccBXF9fk.o
 .ARM.attributes
                0x0000000000000186       0x33 /tmp/ccWTSJMI.o
 .ARM.attributes
                0x00000000000001b9       0x33 /tmp/ccfsXes7.o
 .ARM.attributes
                0x00000000000001ec       0x33 /tmp/ccwLsclw.o
 .ARM.attributes
                0x000000000000021f       0x33 /tmp/ccmixTjV.o
 .ARM.attributes
                0x0000000000000252       0x33 /tmp/ccQtMXok.o
 .ARM.attributes
                0x0000000000000285       0x33 /tmp/cc7LKoKJ.o
 .ARM.attributes
                0x00000000000002b8       0x33 /tmp/cczzK2f9.o
 .ARM.attributes
                0x00000000000002eb       0x33 /tmp/ccDAaAUy.o
 .ARM.attributes
                0x000000000000031e       0x33 /tmp/ccwvsJNY.o
 .ARM.attributes
                0x0000000000000351       0x1b /usr/lib/gcc/arm-none-eabi/4.8.2/../../../arm-none-eabi/lib/armv7-m/libg.a(lib_a-memcpy.o)
 .ARM.attributes
                0x000000000000036c       0x2d /usr/lib/gcc/arm-none-eabi/4.8.2/../../../arm-none-eabi/lib/armv7-m/libg.a(lib_a-memset.o)
 .ARM.attributes
                0x0000000000000399       0x2d /usr/lib/gcc/arm-none-eabi/4.8.2/../../../arm-none-eabi/lib/armv7-m/libg.a(lib_a-printf.o)
 .ARM.attributes
                0x00000000000003c6       0x2d /usr/lib/gcc/arm-none-eabi/4.8.2/../../../arm-none-eabi/lib/armv7-m/libg.a(lib_a-puts.o)
 .ARM.attributes
                0x00000000000003f3       0x2d /usr/lib/gcc/arm-none-eabi/4.8.2/../../../arm-none-eabi/lib/armv7-m/libg.a(lib_a-strlen.o)
 .ARM.attributes
                0x0000000000000420       0x2d /usr/lib/gcc/arm-none-eabi/4.8.2/../../../arm-none-eabi/lib/armv7-m/libg.a(lib_a-strncpy.o)
 .ARM.attributes
                0x000000000000044d       0x2d /usr/lib/gcc/arm-none-eabi/4.8.2/../../../arm-none-eabi/lib/armv7-m/libg.a(lib_a-vfprintf.o)
 .ARM.attributes
                0x000000000000047a       0x2d /usr/lib/gcc/arm-none-eabi/4.8.2/../../../arm-none-eabi/lib/armv7-m/libg.a(lib_a-wsetup.o)
 .ARM.attributes
                0x00000000000004a7       0x2d /usr/lib/gcc/arm-none-eabi/4.8.2/../../../arm-none-eabi/lib/armv7-m/libg.a(lib_a-dtoa.o)
 .ARM.attributes
                0x00000000000004d4       0x2d /usr/lib/gcc/arm-none-eabi/4.8.2/../../../arm-none-eabi/lib/armv7-m/libg.a(lib_a-fflush.o)
 .ARM.attributes
                0x0000000000000501       0x2d /usr/lib/gcc/arm-none-eabi/4.8.2/../../../arm-none-eabi/lib/armv7-m/libg.a(lib_a-findfp.o)
 .ARM.attributes
                0x000000000000052e       0x2d /usr/lib/gcc/arm-none-eabi/4.8.2/../../../arm-none-eabi/lib/armv7-m/libg.a(lib_a-freer.o)
 .ARM.attributes
                0x000000000000055b       0x2d /usr/lib/gcc/arm-none-eabi/4.8.2/../../../arm-none-eabi/lib/armv7-m/libg.a(lib_a-fvwrite.o)
 .ARM.attributes
                0x0000000000000588       0x2d /usr/lib/gcc/arm-none-eabi/4.8.2/../../../arm-none-eabi/lib/armv7-m/libg.a(lib_a-fwalk.o)
 .ARM.attributes
                0x00000000000005b5       0x2d /usr/lib/gcc/arm-none-eabi/4.8.2/../../../arm-none-eabi/lib/armv7-m/libg.a(lib_a-impure.o)
 .ARM.attributes
                0x00000000000005e2       0x2d /usr/lib/gcc/arm-none-eabi/4.8.2/../../../arm-none-eabi/lib/armv7-m/libg.a(lib_a-locale.o)
 .ARM.attributes
                0x000000000000060f       0x2d /usr/lib/gcc/arm-none-eabi/4.8.2/../../../arm-none-eabi/lib/armv7-m/libg.a(lib_a-makebuf.o)
 .ARM.attributes
                0x000000000000063c       0x2d /usr/lib/gcc/arm-none-eabi/4.8.2/../../../arm-none-eabi/lib/armv7-m/libg.a(lib_a-mallocr.o)
 .ARM.attributes
                0x0000000000000669       0x2d /usr/lib/gcc/arm-none-eabi/4.8.2/../../../arm-none-eabi/lib/armv7-m/libg.a(lib_a-memchr-stub.o)
 .ARM.attributes
                0x0000000000000696       0x2d /usr/lib/gcc/arm-none-eabi/4.8.2/../../../arm-none-eabi/lib/armv7-m/libg.a(lib_a-memmove.o)
 .ARM.attributes
                0x00000000000006c3       0x2d /usr/lib/gcc/arm-none-eabi/4.8.2/../../../arm-none-eabi/lib/armv7-m/libg.a(lib_a-mlock.o)
 .ARM.attributes
                0x00000000000006f0       0x2d /usr/lib/gcc/arm-none-eabi/4.8.2/../../../arm-none-eabi/lib/armv7-m/libg.a(lib_a-mprec.o)
 .ARM.attributes
                0x000000000000071d       0x2d /usr/lib/gcc/arm-none-eabi/4.8.2/../../../arm-none-eabi/lib/armv7-m/libg.a(lib_a-reallocr.o)
 .ARM.attributes
                0x000000000000074a       0x2d /usr/lib/gcc/arm-none-eabi/4.8.2/../../../arm-none-eabi/lib/armv7-m/libg.a(lib_a-s_fpclassify.o)
 .ARM.attributes
                0x0000000000000777       0x2d /usr/lib/gcc/arm-none-eabi/4.8.2/../../../arm-none-eabi/lib/armv7-m/libg.a(lib_a-sbrkr.o)
 .ARM.attributes
                0x00000000000007a4       0x2d /usr/lib/gcc/arm-none-eabi/4.8.2/../../../arm-none-eabi/lib/armv7-m/libg.a(lib_a-stdio.o)
 .ARM.attributes
                0x00000000000007d1       0x1b /usr/lib/gcc/arm-none-eabi/4.8.2/../../../arm-none-eabi/lib/armv7-m/libg.a(lib_a-strcmp.o)
 .ARM.attributes
                0x00000000000007ec       0x2d /usr/lib/gcc/arm-none-eabi/4.8.2/../../../arm-none-eabi/lib/armv7-m/libg.a(lib_a-vfiprintf.o)
 .ARM.attributes
                0x0000000000000819       0x2d /usr/lib/gcc/arm-none-eabi/4.8.2/../../../arm-none-eabi/lib/armv7-m/libg.a(lib_a-writer.o)
 .ARM.attributes
                0x0000000000000846       0x2d /usr/lib/gcc/arm-none-eabi/4.8.2/../../../arm-none-eabi/lib/armv7-m/libg.a(lib_a-callocr.o)
 .ARM.attributes
                0x0000000000000873       0x2d /usr/lib/gcc/arm-none-eabi/4.8.2/../../../arm-none-eabi/lib/armv7-m/libg.a(lib_a-closer.o)
 .ARM.attributes
                0x00000000000008a0       0x2d /usr/lib/gcc/arm-none-eabi/4.8.2/../../../arm-none-eabi/lib/armv7-m/libg.a(lib_a-fclose.o)
 .ARM.attributes
                0x00000000000008cd       0x2d /usr/lib/gcc/arm-none-eabi/4.8.2/../../../arm-none-eabi/lib/armv7-m/libg.a(lib_a-fputwc.o)
 .ARM.attributes
                0x00000000000008fa       0x2d /usr/lib/gcc/arm-none-eabi/4.8.2/../../../arm-none-eabi/lib/armv7-m/libg.a(lib_a-fstatr.o)
 .ARM.attributes
                0x0000000000000927       0x2d /usr/lib/gcc/arm-none-eabi/4.8.2/../../../arm-none-eabi/lib/armv7-m/libg.a(lib_a-isattyr.o)
 .ARM.attributes
                0x0000000000000954       0x2d /usr/lib/gcc/arm-none-eabi/4.8.2/../../../arm-none-eabi/lib/armv7-m/libg.a(lib_a-lseekr.o)
 .ARM.attributes
                0x0000000000000981       0x2d /usr/lib/gcc/arm-none-eabi/4.8.2/../../../arm-none-eabi/lib/armv7-m/libg.a(lib_a-readr.o)
 .ARM.attributes
                0x00000000000009ae       0x2d /usr/lib/gcc/arm-none-eabi/4.8.2/../../../arm-none-eabi/lib/armv7-m/libg.a(lib_a-reent.o)
 .ARM.attributes
                0x00000000000009db       0x2d /usr/lib/gcc/arm-none-eabi/4.8.2/../../../arm-none-eabi/lib/armv7-m/libg.a(lib_a-wbuf.o)
 .ARM.attributes
                0x0000000000000a08       0x2d /usr/lib/gcc/arm-none-eabi/4.8.2/../../../arm-none-eabi/lib/armv7-m/libg.a(lib_a-wcrtomb.o)
 .ARM.attributes
                0x0000000000000a35       0x2d /usr/lib/gcc/arm-none-eabi/4.8.2/../../../arm-none-eabi/lib/armv7-m/libg.a(lib_a-wctomb_r.o)
 .ARM.attributes
                0x0000000000000a62       0x1d /usr/lib/gcc/arm-none-eabi/4.8.2/armv7-m/libgcc.a(_arm_addsubdf3.o)
 .ARM.attributes
                0x0000000000000a7f       0x1d /usr/lib/gcc/arm-none-eabi/4.8.2/armv7-m/libgcc.a(_arm_muldivdf3.o)
 .ARM.attributes
                0x0000000000000a9c       0x1d /usr/lib/gcc/arm-none-eabi/4.8.2/armv7-m/libgcc.a(_arm_cmpdf2.o)
 .ARM.attributes
                0x0000000000000ab9       0x1d /usr/lib/gcc/arm-none-eabi/4.8.2/armv7-m/libgcc.a(_arm_fixdfsi.o)
 .ARM.attributes
                0x0000000000000ad6       0x1d /usr/lib/gcc/arm-none-eabi/4.8.2/armv7-m/libgcc.a(_aeabi_uldivmod.o)
 .ARM.attributes
                0x0000000000000af3       0x2d /usr/lib/gcc/arm-none-eabi/4.8.2/armv7-m/libgcc.a(bpabi.o)
 .ARM.attributes
                0x0000000000000b20       0x1d /usr/lib/gcc/arm-none-eabi/4.8.2/armv7-m/libgcc.a(_dvmd_tls.o)
 .ARM.attributes
                0x0000000000000b3d       0x2d /usr/lib/gcc/arm-none-eabi/4.8.2/armv7-m/libgcc.a(_divdi3.o)
 .ARM.attributes
                0x0000000000000b6a       0x2d /usr/lib/gcc/arm-none-eabi/4.8.2/armv7-m/libgcc.a(_udivdi3.o)

.debug_frame    0x0000000000000000     0x2768
 .debug_frame   0x0000000000000000       0x64 /tmp/ccYeW5MD.o
 .debug_frame   0x0000000000000064      0x4f4 /tmp/ccfKhGdo.o
 .debug_frame   0x0000000000000558      0x19c /tmp/ccdQTPML.o
 .debug_frame   0x00000000000006f4      0x344 /tmp/ccvbLNB9.o
 .debug_frame   0x0000000000000a38       0xec /tmp/ccYMHmDx.o
 .debug_frame   0x0000000000000b24       0x9c /tmp/ccgr0JQV.o
 .debug_frame   0x0000000000000bc0       0xf0 /tmp/ccBXF9fk.o
 .debug_frame   0x0000000000000cb0       0x9c /tmp/ccWTSJMI.o
 .debug_frame   0x0000000000000d4c      0x244 /tmp/ccfsXes7.o
 .debug_frame   0x0000000000000f90      0x424 /tmp/ccwLsclw.o
 .debug_frame   0x00000000000013b4      0x110 /tmp/ccmixTjV.o
 .debug_frame   0x00000000000014c4       0x7c /tmp/ccQtMXok.o
 .debug_frame   0x0000000000001540      0x1fc /tmp/cc7LKoKJ.o
 .debug_frame   0x000000000000173c      0x160 /tmp/cczzK2f9.o
 .debug_frame   0x000000000000189c       0x48 /tmp/ccDAaAUy.o
 .debug_frame   0x00000000000018e4      0x110 /tmp/ccwvsJNY.o
 .debug_frame   0x00000000000019f4       0x2c /usr/lib/gcc/arm-none-eabi/4.8.2/../../../arm-none-eabi/lib/armv7-m/libg.a(lib_a-memset.o)
 .debug_frame   0x0000000000001a20       0x5c /usr/lib/gcc/arm-none-eabi/4.8.2/../../../arm-none-eabi/lib/armv7-m/libg.a(lib_a-printf.o)
 .debug_frame   0x0000000000001a7c       0x40 /usr/lib/gcc/arm-none-eabi/4.8.2/../../../arm-none-eabi/lib/armv7-m/libg.a(lib_a-puts.o)
 .debug_frame   0x0000000000001abc       0x20 /usr/lib/gcc/arm-none-eabi/4.8.2/../../../arm-none-eabi/lib/armv7-m/libg.a(lib_a-strlen.o)
 .debug_frame   0x0000000000001adc       0x2c /usr/lib/gcc/arm-none-eabi/4.8.2/../../../arm-none-eabi/lib/armv7-m/libg.a(lib_a-strncpy.o)
 .debug_frame   0x0000000000001b08       0x7c /usr/lib/gcc/arm-none-eabi/4.8.2/../../../arm-none-eabi/lib/armv7-m/libg.a(lib_a-vfprintf.o)
 .debug_frame   0x0000000000001b84       0x2c /usr/lib/gcc/arm-none-eabi/4.8.2/../../../arm-none-eabi/lib/armv7-m/libg.a(lib_a-wsetup.o)
 .debug_frame   0x0000000000001bb0       0x64 /usr/lib/gcc/arm-none-eabi/4.8.2/../../../arm-none-eabi/lib/armv7-m/libg.a(lib_a-dtoa.o)
 .debug_frame   0x0000000000001c14       0x5c /usr/lib/gcc/arm-none-eabi/4.8.2/../../../arm-none-eabi/lib/armv7-m/libg.a(lib_a-fflush.o)
 .debug_frame   0x0000000000001c70      0x110 /usr/lib/gcc/arm-none-eabi/4.8.2/../../../arm-none-eabi/lib/armv7-m/libg.a(lib_a-findfp.o)
 .debug_frame   0x0000000000001d80       0x54 /usr/lib/gcc/arm-none-eabi/4.8.2/../../../arm-none-eabi/lib/armv7-m/libg.a(lib_a-freer.o)
 .debug_frame   0x0000000000001dd4       0x38 /usr/lib/gcc/arm-none-eabi/4.8.2/../../../arm-none-eabi/lib/armv7-m/libg.a(lib_a-fvwrite.o)
 .debug_frame   0x0000000000001e0c       0x54 /usr/lib/gcc/arm-none-eabi/4.8.2/../../../arm-none-eabi/lib/armv7-m/libg.a(lib_a-fwalk.o)
 .debug_frame   0x0000000000001e60       0x98 /usr/lib/gcc/arm-none-eabi/4.8.2/../../../arm-none-eabi/lib/armv7-m/libg.a(lib_a-locale.o)
 .debug_frame   0x0000000000001ef8       0x30 /usr/lib/gcc/arm-none-eabi/4.8.2/../../../arm-none-eabi/lib/armv7-m/libg.a(lib_a-makebuf.o)
 .debug_frame   0x0000000000001f28       0x38 /usr/lib/gcc/arm-none-eabi/4.8.2/../../../arm-none-eabi/lib/armv7-m/libg.a(lib_a-mallocr.o)
 .debug_frame   0x0000000000001f60       0x2c /usr/lib/gcc/arm-none-eabi/4.8.2/../../../arm-none-eabi/lib/armv7-m/libg.a(lib_a-memchr-stub.o)
 .debug_frame   0x0000000000001f8c       0x2c /usr/lib/gcc/arm-none-eabi/4.8.2/../../../arm-none-eabi/lib/armv7-m/libg.a(lib_a-memmove.o)
 .debug_frame   0x0000000000001fb8       0x30 /usr/lib/gcc/arm-none-eabi/4.8.2/../../../arm-none-eabi/lib/armv7-m/libg.a(lib_a-mlock.o)
 .debug_frame   0x0000000000001fe8      0x228 /usr/lib/gcc/arm-none-eabi/4.8.2/../../../arm-none-eabi/lib/armv7-m/libg.a(lib_a-mprec.o)
 .debug_frame   0x0000000000002210       0x38 /usr/lib/gcc/arm-none-eabi/4.8.2/../../../arm-none-eabi/lib/armv7-m/libg.a(lib_a-reallocr.o)
 .debug_frame   0x0000000000002248       0x20 /usr/lib/gcc/arm-none-eabi/4.8.2/../../../arm-none-eabi/lib/armv7-m/libg.a(lib_a-s_fpclassify.o)
 .debug_frame   0x0000000000002268       0x2c /usr/lib/gcc/arm-none-eabi/4.8.2/../../../arm-none-eabi/lib/armv7-m/libg.a(lib_a-sbrkr.o)
 .debug_frame   0x0000000000002294       0x80 /usr/lib/gcc/arm-none-eabi/4.8.2/../../../arm-none-eabi/lib/armv7-m/libg.a(lib_a-stdio.o)
 .debug_frame   0x0000000000002314       0xb8 /usr/lib/gcc/arm-none-eabi/4.8.2/../../../arm-none-eabi/lib/armv7-m/libg.a(lib_a-vfiprintf.o)
 .debug_frame   0x00000000000023cc       0x2c /usr/lib/gcc/arm-none-eabi/4.8.2/../../../arm-none-eabi/lib/armv7-m/libg.a(lib_a-writer.o)
 .debug_frame   0x00000000000023f8       0x28 /usr/lib/gcc/arm-none-eabi/4.8.2/../../../arm-none-eabi/lib/armv7-m/libg.a(lib_a-callocr.o)
 .debug_frame   0x0000000000002420       0x2c /usr/lib/gcc/arm-none-eabi/4.8.2/../../../arm-none-eabi/lib/armv7-m/libg.a(lib_a-closer.o)
 .debug_frame   0x000000000000244c       0x3c /usr/lib/gcc/arm-none-eabi/4.8.2/../../../arm-none-eabi/lib/armv7-m/libg.a(lib_a-fclose.o)
 .debug_frame   0x0000000000002488       0x50 /usr/lib/gcc/arm-none-eabi/4.8.2/../../../arm-none-eabi/lib/armv7-m/libg.a(lib_a-fputwc.o)
 .debug_frame   0x00000000000024d8       0x2c /usr/lib/gcc/arm-none-eabi/4.8.2/../../../arm-none-eabi/lib/armv7-m/libg.a(lib_a-fstatr.o)
 .debug_frame   0x0000000000002504       0x2c /usr/lib/gcc/arm-none-eabi/4.8.2/../../../arm-none-eabi/lib/armv7-m/libg.a(lib_a-isattyr.o)
 .debug_frame   0x0000000000002530       0x2c /usr/lib/gcc/arm-none-eabi/4.8.2/../../../arm-none-eabi/lib/armv7-m/libg.a(lib_a-lseekr.o)
 .debug_frame   0x000000000000255c       0x2c /usr/lib/gcc/arm-none-eabi/4.8.2/../../../arm-none-eabi/lib/armv7-m/libg.a(lib_a-readr.o)
 .debug_frame   0x0000000000002588       0x48 /usr/lib/gcc/arm-none-eabi/4.8.2/../../../arm-none-eabi/lib/armv7-m/libg.a(lib_a-reent.o)
 .debug_frame   0x00000000000025d0       0x40 /usr/lib/gcc/arm-none-eabi/4.8.2/../../../arm-none-eabi/lib/armv7-m/libg.a(lib_a-wbuf.o)
 .debug_frame   0x0000000000002610       0x58 /usr/lib/gcc/arm-none-eabi/4.8.2/../../../arm-none-eabi/lib/armv7-m/libg.a(lib_a-wcrtomb.o)
 .debug_frame   0x0000000000002668       0x44 /usr/lib/gcc/arm-none-eabi/4.8.2/../../../arm-none-eabi/lib/armv7-m/libg.a(lib_a-wctomb_r.o)
 .debug_frame   0x00000000000026ac       0x58 /usr/lib/gcc/arm-none-eabi/4.8.2/armv7-m/libgcc.a(bpabi.o)
 .debug_frame   0x0000000000002704       0x34 /usr/lib/gcc/arm-none-eabi/4.8.2/armv7-m/libgcc.a(_divdi3.o)
 .debug_frame   0x0000000000002738       0x30 /usr/lib/gcc/arm-none-eabi/4.8.2/armv7-m/libgcc.a(_udivdi3.o)

.debug_ranges   0x0000000000000000      0xc08
 .debug_ranges  0x0000000000000000       0x20 /tmp/ccy457S0.o
 .debug_ranges  0x0000000000000020       0x10 /usr/lib/gcc/arm-none-eabi/4.8.2/../../../arm-none-eabi/lib/armv7-m/libg.a(lib_a-memset.o)
 .debug_ranges  0x0000000000000030       0x18 /usr/lib/gcc/arm-none-eabi/4.8.2/../../../arm-none-eabi/lib/armv7-m/libg.a(lib_a-printf.o)
 .debug_ranges  0x0000000000000048       0x18 /usr/lib/gcc/arm-none-eabi/4.8.2/../../../arm-none-eabi/lib/armv7-m/libg.a(lib_a-puts.o)
 .debug_ranges  0x0000000000000060       0x10 /usr/lib/gcc/arm-none-eabi/4.8.2/../../../arm-none-eabi/lib/armv7-m/libg.a(lib_a-strlen.o)
 .debug_ranges  0x0000000000000070       0x10 /usr/lib/gcc/arm-none-eabi/4.8.2/../../../arm-none-eabi/lib/armv7-m/libg.a(lib_a-strncpy.o)
 .debug_ranges  0x0000000000000080      0x178 /usr/lib/gcc/arm-none-eabi/4.8.2/../../../arm-none-eabi/lib/armv7-m/libg.a(lib_a-vfprintf.o)
 .debug_ranges  0x00000000000001f8       0x30 /usr/lib/gcc/arm-none-eabi/4.8.2/../../../arm-none-eabi/lib/armv7-m/libg.a(lib_a-wsetup.o)
 .debug_ranges  0x0000000000000228       0x18 /usr/lib/gcc/arm-none-eabi/4.8.2/../../../arm-none-eabi/lib/armv7-m/libg.a(lib_a-dtoa.o)
 .debug_ranges  0x0000000000000240       0x58 /usr/lib/gcc/arm-none-eabi/4.8.2/../../../arm-none-eabi/lib/armv7-m/libg.a(lib_a-fflush.o)
 .debug_ranges  0x0000000000000298       0xe8 /usr/lib/gcc/arm-none-eabi/4.8.2/../../../arm-none-eabi/lib/armv7-m/libg.a(lib_a-findfp.o)
 .debug_ranges  0x0000000000000380       0x18 /usr/lib/gcc/arm-none-eabi/4.8.2/../../../arm-none-eabi/lib/armv7-m/libg.a(lib_a-freer.o)
 .debug_ranges  0x0000000000000398       0x30 /usr/lib/gcc/arm-none-eabi/4.8.2/../../../arm-none-eabi/lib/armv7-m/libg.a(lib_a-fvwrite.o)
 .debug_ranges  0x00000000000003c8       0x18 /usr/lib/gcc/arm-none-eabi/4.8.2/../../../arm-none-eabi/lib/armv7-m/libg.a(lib_a-fwalk.o)
 .debug_ranges  0x00000000000003e0       0x48 /usr/lib/gcc/arm-none-eabi/4.8.2/../../../arm-none-eabi/lib/armv7-m/libg.a(lib_a-locale.o)
 .debug_ranges  0x0000000000000428       0x10 /usr/lib/gcc/arm-none-eabi/4.8.2/../../../arm-none-eabi/lib/armv7-m/libg.a(lib_a-makebuf.o)
 .debug_ranges  0x0000000000000438       0x38 /usr/lib/gcc/arm-none-eabi/4.8.2/../../../arm-none-eabi/lib/armv7-m/libg.a(lib_a-mallocr.o)
 .debug_ranges  0x0000000000000470       0x10 /usr/lib/gcc/arm-none-eabi/4.8.2/../../../arm-none-eabi/lib/armv7-m/libg.a(lib_a-memchr-stub.o)
 .debug_ranges  0x0000000000000480       0x10 /usr/lib/gcc/arm-none-eabi/4.8.2/../../../arm-none-eabi/lib/armv7-m/libg.a(lib_a-memmove.o)
 .debug_ranges  0x0000000000000490       0x18 /usr/lib/gcc/arm-none-eabi/4.8.2/../../../arm-none-eabi/lib/armv7-m/libg.a(lib_a-mlock.o)
 .debug_ranges  0x00000000000004a8      0x108 /usr/lib/gcc/arm-none-eabi/4.8.2/../../../arm-none-eabi/lib/armv7-m/libg.a(lib_a-mprec.o)
 .debug_ranges  0x00000000000005b0       0xe8 /usr/lib/gcc/arm-none-eabi/4.8.2/../../../arm-none-eabi/lib/armv7-m/libg.a(lib_a-reallocr.o)
 .debug_ranges  0x0000000000000698       0x10 /usr/lib/gcc/arm-none-eabi/4.8.2/../../../arm-none-eabi/lib/armv7-m/libg.a(lib_a-s_fpclassify.o)
 .debug_ranges  0x00000000000006a8       0x10 /usr/lib/gcc/arm-none-eabi/4.8.2/../../../arm-none-eabi/lib/armv7-m/libg.a(lib_a-sbrkr.o)
 .debug_ranges  0x00000000000006b8       0x30 /usr/lib/gcc/arm-none-eabi/4.8.2/../../../arm-none-eabi/lib/armv7-m/libg.a(lib_a-stdio.o)
 .debug_ranges  0x00000000000006e8      0x208 /usr/lib/gcc/arm-none-eabi/4.8.2/../../../arm-none-eabi/lib/armv7-m/libg.a(lib_a-vfiprintf.o)
 .debug_ranges  0x00000000000008f0       0x10 /usr/lib/gcc/arm-none-eabi/4.8.2/../../../arm-none-eabi/lib/armv7-m/libg.a(lib_a-writer.o)
 .debug_ranges  0x0000000000000900       0x40 /usr/lib/gcc/arm-none-eabi/4.8.2/../../../arm-none-eabi/lib/armv7-m/libg.a(lib_a-callocr.o)
 .debug_ranges  0x0000000000000940       0x10 /usr/lib/gcc/arm-none-eabi/4.8.2/../../../arm-none-eabi/lib/armv7-m/libg.a(lib_a-closer.o)
 .debug_ranges  0x0000000000000950       0x30 /usr/lib/gcc/arm-none-eabi/4.8.2/../../../arm-none-eabi/lib/armv7-m/libg.a(lib_a-fclose.o)
 .debug_ranges  0x0000000000000980       0x38 /usr/lib/gcc/arm-none-eabi/4.8.2/../../../arm-none-eabi/lib/armv7-m/libg.a(lib_a-fputwc.o)
 .debug_ranges  0x00000000000009b8       0x10 /usr/lib/gcc/arm-none-eabi/4.8.2/../../../arm-none-eabi/lib/armv7-m/libg.a(lib_a-fstatr.o)
 .debug_ranges  0x00000000000009c8       0x10 /usr/lib/gcc/arm-none-eabi/4.8.2/../../../arm-none-eabi/lib/armv7-m/libg.a(lib_a-isattyr.o)
 .debug_ranges  0x00000000000009d8       0x10 /usr/lib/gcc/arm-none-eabi/4.8.2/../../../arm-none-eabi/lib/armv7-m/libg.a(lib_a-lseekr.o)
 .debug_ranges  0x00000000000009e8       0x10 /usr/lib/gcc/arm-none-eabi/4.8.2/../../../arm-none-eabi/lib/armv7-m/libg.a(lib_a-readr.o)
 .debug_ranges  0x00000000000009f8       0x30 /usr/lib/gcc/arm-none-eabi/4.8.2/../../../arm-none-eabi/lib/armv7-m/libg.a(lib_a-reent.o)
 .debug_ranges  0x0000000000000a28       0x30 /usr/lib/gcc/arm-none-eabi/4.8.2/../../../arm-none-eabi/lib/armv7-m/libg.a(lib_a-wbuf.o)
 .debug_ranges  0x0000000000000a58       0x18 /usr/lib/gcc/arm-none-eabi/4.8.2/../../../arm-none-eabi/lib/armv7-m/libg.a(lib_a-wcrtomb.o)
 .debug_ranges  0x0000000000000a70       0x18 /usr/lib/gcc/arm-none-eabi/4.8.2/../../../arm-none-eabi/lib/armv7-m/libg.a(lib_a-wctomb_r.o)
 .debug_ranges  0x0000000000000a88       0xa8 /usr/lib/gcc/arm-none-eabi/4.8.2/armv7-m/libgcc.a(_divdi3.o)
 .debug_ranges  0x0000000000000b30       0xd8 /usr/lib/gcc/arm-none-eabi/4.8.2/armv7-m/libgcc.a(_udivdi3.o)

Cross Reference Table

Symbol                                            File
ADC_IRQHandler                                    /tmp/ccy457S0.o
AHBPrescTable                                     /tmp/ccYeW5MD.o
BusFault_Handler                                  /tmp/ccy457S0.o
CAN1_RX0_IRQHandler                               /tmp/ccy457S0.o
CAN1_RX1_IRQHandler                               /tmp/ccy457S0.o
CAN1_SCE_IRQHandler                               /tmp/ccy457S0.o
CAN1_TX_IRQHandler                                /tmp/ccy457S0.o
CAN2_RX0_IRQHandler                               /tmp/ccy457S0.o
CAN2_RX1_IRQHandler                               /tmp/ccy457S0.o
CAN2_SCE_IRQHandler                               /tmp/ccy457S0.o
CAN2_TX_IRQHandler                                /tmp/ccy457S0.o
CRYP_IRQHandler                                   /tmp/ccy457S0.o
DCMI_IRQHandler                                   /tmp/ccy457S0.o
DMA1_Stream0_IRQHandler                           /tmp/ccy457S0.o
DMA1_Stream1_IRQHandler                           /tmp/ccy457S0.o
DMA1_Stream2_IRQHandler                           /tmp/ccy457S0.o
DMA1_Stream3_IRQHandler                           /tmp/ccy457S0.o
DMA1_Stream4_IRQHandler                           /tmp/ccy457S0.o
DMA1_Stream5_IRQHandler                           /tmp/ccy457S0.o
DMA1_Stream6_IRQHandler                           /tmp/ccy457S0.o
DMA1_Stream7_IRQHandler                           /tmp/ccy457S0.o
DMA2_Stream0_IRQHandler                           /tmp/ccy457S0.o
DMA2_Stream1_IRQHandler                           /tmp/ccy457S0.o
DMA2_Stream2_IRQHandler                           /tmp/ccy457S0.o
DMA2_Stream3_IRQHandler                           /tmp/ccy457S0.o
DMA2_Stream4_IRQHandler                           /tmp/ccy457S0.o
DMA2_Stream5_IRQHandler                           /tmp/ccy457S0.o
DMA2_Stream6_IRQHandler                           /tmp/ccy457S0.o
DMA2_Stream7_IRQHandler                           /tmp/ccy457S0.o
DebugMon_Handler                                  /tmp/ccy457S0.o
Default_Handler                                   /tmp/ccy457S0.o
ETH_IRQHandler                                    /tmp/cc7LKoKJ.o
                                                  /tmp/ccy457S0.o
ETH_WKUP_IRQHandler                               /tmp/ccy457S0.o
EXTI0_IRQHandler                                  /tmp/ccy457S0.o
EXTI15_10_IRQHandler                              /tmp/ccy457S0.o
EXTI1_IRQHandler                                  /tmp/ccy457S0.o
EXTI2_IRQHandler                                  /tmp/ccy457S0.o
EXTI3_IRQHandler                                  /tmp/ccy457S0.o
EXTI4_IRQHandler                                  /tmp/ccy457S0.o
EXTI9_5_IRQHandler                                /tmp/ccy457S0.o
EXTI_ClearFlag                                    /tmp/ccYMHmDx.o
EXTI_ClearITPendingBit                            /tmp/ccYMHmDx.o
EXTI_DeInit                                       /tmp/ccYMHmDx.o
EXTI_GenerateSWInterrupt                          /tmp/ccYMHmDx.o
EXTI_GetFlagStatus                                /tmp/ccYMHmDx.o
EXTI_GetITStatus                                  /tmp/ccYMHmDx.o
EXTI_Init                                         /tmp/ccYMHmDx.o
EXTI_StructInit                                   /tmp/ccYMHmDx.o
FLASH_IRQHandler                                  /tmp/ccy457S0.o
FPU_IRQHandler                                    /tmp/ccy457S0.o
FSMC_IRQHandler                                   /tmp/ccy457S0.o
GPIO_DeInit                                       /tmp/ccdQTPML.o
GPIO_Init                                         /tmp/ccdQTPML.o
GPIO_PinAFConfig                                  /tmp/ccdQTPML.o
GPIO_PinLockConfig                                /tmp/ccdQTPML.o
GPIO_ReadInputData                                /tmp/ccdQTPML.o
GPIO_ReadInputDataBit                             /tmp/ccdQTPML.o
GPIO_ReadOutputData                               /tmp/ccdQTPML.o
GPIO_ReadOutputDataBit                            /tmp/ccdQTPML.o
GPIO_ResetBits                                    /tmp/ccdQTPML.o
GPIO_SetBits                                      /tmp/ccdQTPML.o
GPIO_StructInit                                   /tmp/ccdQTPML.o
GPIO_ToggleBits                                   /tmp/ccdQTPML.o
GPIO_Write                                        /tmp/ccdQTPML.o
GPIO_WriteBit                                     /tmp/ccdQTPML.o
HASH_RNG_IRQHandler                               /tmp/ccy457S0.o
HardFault_Handler                                 /tmp/ccy457S0.o
I2C1_ER_IRQHandler                                /tmp/ccy457S0.o
I2C1_EV_IRQHandler                                /tmp/ccy457S0.o
I2C2_ER_IRQHandler                                /tmp/ccy457S0.o
I2C2_EV_IRQHandler                                /tmp/ccy457S0.o
I2C3_ER_IRQHandler                                /tmp/ccy457S0.o
I2C3_EV_IRQHandler                                /tmp/ccy457S0.o
MemManage_Handler                                 /tmp/ccy457S0.o
NMI_Handler                                       /tmp/ccy457S0.o
NVIC_Init                                         /tmp/ccgr0JQV.o
NVIC_PriorityGroupConfig                          /tmp/ccgr0JQV.o
                                                  /tmp/ccwvsJNY.o
NVIC_SetVectorTable                               /tmp/ccgr0JQV.o
NVIC_SystemLPConfig                               /tmp/ccgr0JQV.o
OTG_FS_IRQHandler                                 /tmp/ccy457S0.o
OTG_FS_WKUP_IRQHandler                            /tmp/ccy457S0.o
OTG_HS_EP1_IN_IRQHandler                          /tmp/ccy457S0.o
OTG_HS_EP1_OUT_IRQHandler                         /tmp/ccy457S0.o
OTG_HS_IRQHandler                                 /tmp/ccy457S0.o
OTG_HS_WKUP_IRQHandler                            /tmp/ccy457S0.o
PVD_IRQHandler                                    /tmp/ccy457S0.o
PendSV_Handler                                    /tmp/ccmixTjV.o
                                                  /tmp/ccy457S0.o
RCC_AHB1PeriphClockCmd                            /tmp/ccfKhGdo.o
RCC_AHB1PeriphClockLPModeCmd                      /tmp/ccfKhGdo.o
RCC_AHB1PeriphResetCmd                            /tmp/ccfKhGdo.o
                                                  /tmp/ccdQTPML.o
RCC_AHB2PeriphClockCmd                            /tmp/ccfKhGdo.o
RCC_AHB2PeriphClockLPModeCmd                      /tmp/ccfKhGdo.o
RCC_AHB2PeriphResetCmd                            /tmp/ccfKhGdo.o
RCC_AHB3PeriphClockCmd                            /tmp/ccfKhGdo.o
RCC_AHB3PeriphClockLPModeCmd                      /tmp/ccfKhGdo.o
RCC_AHB3PeriphResetCmd                            /tmp/ccfKhGdo.o
RCC_APB1PeriphClockCmd                            /tmp/ccfKhGdo.o
RCC_APB1PeriphClockLPModeCmd                      /tmp/ccfKhGdo.o
RCC_APB1PeriphResetCmd                            /tmp/ccfKhGdo.o
                                                  /tmp/ccvbLNB9.o
RCC_APB2PeriphClockCmd                            /tmp/ccfKhGdo.o
RCC_APB2PeriphClockLPModeCmd                      /tmp/ccfKhGdo.o
RCC_APB2PeriphResetCmd                            /tmp/ccfKhGdo.o
                                                  /tmp/ccvbLNB9.o
RCC_AdjustHSICalibrationValue                     /tmp/ccfKhGdo.o
RCC_BackupResetCmd                                /tmp/ccfKhGdo.o
RCC_ClearFlag                                     /tmp/ccfKhGdo.o
RCC_ClearITPendingBit                             /tmp/ccfKhGdo.o
RCC_ClockSecuritySystemCmd                        /tmp/ccfKhGdo.o
RCC_DeInit                                        /tmp/ccfKhGdo.o
RCC_GetClocksFreq                                 /tmp/ccfKhGdo.o
                                                  /tmp/ccvbLNB9.o
RCC_GetFlagStatus                                 /tmp/ccfKhGdo.o
RCC_GetITStatus                                   /tmp/ccfKhGdo.o
RCC_GetSYSCLKSource                               /tmp/ccfKhGdo.o
RCC_HCLKConfig                                    /tmp/ccfKhGdo.o
RCC_HSEConfig                                     /tmp/ccfKhGdo.o
RCC_HSICmd                                        /tmp/ccfKhGdo.o
RCC_I2SCLKConfig                                  /tmp/ccfKhGdo.o
RCC_IRQHandler                                    /tmp/ccy457S0.o
RCC_ITConfig                                      /tmp/ccfKhGdo.o
RCC_LSEConfig                                     /tmp/ccfKhGdo.o
RCC_LSICmd                                        /tmp/ccfKhGdo.o
RCC_MCO1Config                                    /tmp/ccfKhGdo.o
RCC_MCO2Config                                    /tmp/ccfKhGdo.o
RCC_PCLK1Config                                   /tmp/ccfKhGdo.o
RCC_PCLK2Config                                   /tmp/ccfKhGdo.o
RCC_PLLCmd                                        /tmp/ccfKhGdo.o
RCC_PLLConfig                                     /tmp/ccfKhGdo.o
RCC_PLLI2SCmd                                     /tmp/ccfKhGdo.o
RCC_PLLI2SConfig                                  /tmp/ccfKhGdo.o
RCC_RTCCLKCmd                                     /tmp/ccfKhGdo.o
RCC_RTCCLKConfig                                  /tmp/ccfKhGdo.o
RCC_SYSCLKConfig                                  /tmp/ccfKhGdo.o
RCC_TIMCLKPresConfig                              /tmp/ccfKhGdo.o
RCC_WaitForHSEStartUp                             /tmp/ccfKhGdo.o
RTC_Alarm_IRQHandler                              /tmp/ccy457S0.o
RTC_WKUP_IRQHandler                               /tmp/ccy457S0.o
Reset_Handler                                     /tmp/ccy457S0.o
SDIO_IRQHandler                                   /tmp/ccy457S0.o
SPI1_IRQHandler                                   /tmp/ccy457S0.o
SPI2_IRQHandler                                   /tmp/ccy457S0.o
SPI3_IRQHandler                                   /tmp/ccy457S0.o
SVC_Handler                                       /tmp/ccmixTjV.o
                                                  /tmp/ccy457S0.o
SysTick_CLKSourceConfig                           /tmp/ccgr0JQV.o
SysTick_Handler                                   /tmp/ccmixTjV.o
                                                  /tmp/ccy457S0.o
SystemCoreClock                                   /tmp/ccYeW5MD.o
SystemCoreClockUpdate                             /tmp/ccYeW5MD.o
SystemInit                                        /tmp/ccYeW5MD.o
                                                  /tmp/ccy457S0.o
TAMP_STAMP_IRQHandler                             /tmp/ccy457S0.o
TIM1_BRK_TIM9_IRQHandler                          /tmp/ccy457S0.o
TIM1_CC_IRQHandler                                /tmp/ccy457S0.o
TIM1_TRG_COM_TIM11_IRQHandler                     /tmp/ccy457S0.o
TIM1_UP_TIM10_IRQHandler                          /tmp/ccy457S0.o
TIM2_IRQHandler                                   /tmp/ccy457S0.o
TIM3_IRQHandler                                   /tmp/ccy457S0.o
TIM4_IRQHandler                                   /tmp/ccy457S0.o
TIM5_IRQHandler                                   /tmp/ccy457S0.o
TIM6_DAC_IRQHandler                               /tmp/ccy457S0.o
TIM7_IRQHandler                                   /tmp/ccy457S0.o
TIM8_BRK_TIM12_IRQHandler                         /tmp/ccy457S0.o
TIM8_CC_IRQHandler                                /tmp/ccy457S0.o
TIM8_TRG_COM_TIM14_IRQHandler                     /tmp/ccy457S0.o
TIM8_UP_TIM13_IRQHandler                          /tmp/ccy457S0.o
UART4_IRQHandler                                  /tmp/ccy457S0.o
UART5_IRQHandler                                  /tmp/ccy457S0.o
USART1_IRQHandler                                 /tmp/ccy457S0.o
USART2_IRQHandler                                 /tmp/ccy457S0.o
USART3_IRQHandler                                 /tmp/ccy457S0.o
USART6_IRQHandler                                 /tmp/ccy457S0.o
USART_ClearFlag                                   /tmp/ccvbLNB9.o
USART_ClearITPendingBit                           /tmp/ccvbLNB9.o
USART_ClockInit                                   /tmp/ccvbLNB9.o
USART_ClockStructInit                             /tmp/ccvbLNB9.o
USART_Cmd                                         /tmp/ccvbLNB9.o
USART_DMACmd                                      /tmp/ccvbLNB9.o
USART_DeInit                                      /tmp/ccvbLNB9.o
USART_GetFlagStatus                               /tmp/ccvbLNB9.o
USART_GetITStatus                                 /tmp/ccvbLNB9.o
USART_HalfDuplexCmd                               /tmp/ccvbLNB9.o
USART_ITConfig                                    /tmp/ccvbLNB9.o
USART_Init                                        /tmp/ccvbLNB9.o
USART_IrDACmd                                     /tmp/ccvbLNB9.o
USART_IrDAConfig                                  /tmp/ccvbLNB9.o
USART_LINBreakDetectLengthConfig                  /tmp/ccvbLNB9.o
USART_LINCmd                                      /tmp/ccvbLNB9.o
USART_OneBitMethodCmd                             /tmp/ccvbLNB9.o
USART_OverSampling8Cmd                            /tmp/ccvbLNB9.o
USART_ReceiveData                                 /tmp/ccvbLNB9.o
USART_ReceiverWakeUpCmd                           /tmp/ccvbLNB9.o
USART_SendBreak                                   /tmp/ccvbLNB9.o
USART_SendData                                    /tmp/ccvbLNB9.o
USART_SetAddress                                  /tmp/ccvbLNB9.o
USART_SetGuardTime                                /tmp/ccvbLNB9.o
USART_SetPrescaler                                /tmp/ccvbLNB9.o
USART_SmartCardCmd                                /tmp/ccvbLNB9.o
USART_SmartCardNACKCmd                            /tmp/ccvbLNB9.o
USART_StructInit                                  /tmp/ccvbLNB9.o
USART_WakeUpConfig                                /tmp/ccvbLNB9.o
UsageFault_Handler                                /tmp/ccy457S0.o
WWDG_IRQHandler                                   /tmp/ccy457S0.o
_Balloc                                           /usr/lib/gcc/arm-none-eabi/4.8.2/../../../arm-none-eabi/lib/armv7-m/libg.a(lib_a-mprec.o)
                                                  /usr/lib/gcc/arm-none-eabi/4.8.2/../../../arm-none-eabi/lib/armv7-m/libg.a(lib_a-dtoa.o)
_Bfree                                            /usr/lib/gcc/arm-none-eabi/4.8.2/../../../arm-none-eabi/lib/armv7-m/libg.a(lib_a-mprec.o)
                                                  /usr/lib/gcc/arm-none-eabi/4.8.2/../../../arm-none-eabi/lib/armv7-m/libg.a(lib_a-dtoa.o)
_PathLocale                                       /usr/lib/gcc/arm-none-eabi/4.8.2/../../../arm-none-eabi/lib/armv7-m/libg.a(lib_a-locale.o)
__adddf3                                          /usr/lib/gcc/arm-none-eabi/4.8.2/armv7-m/libgcc.a(_arm_addsubdf3.o)
__aeabi_cdcmpeq                                   /usr/lib/gcc/arm-none-eabi/4.8.2/armv7-m/libgcc.a(_arm_cmpdf2.o)
__aeabi_cdcmple                                   /usr/lib/gcc/arm-none-eabi/4.8.2/armv7-m/libgcc.a(_arm_cmpdf2.o)
__aeabi_cdrcmple                                  /usr/lib/gcc/arm-none-eabi/4.8.2/armv7-m/libgcc.a(_arm_cmpdf2.o)
__aeabi_d2iz                                      /usr/lib/gcc/arm-none-eabi/4.8.2/armv7-m/libgcc.a(_arm_fixdfsi.o)
                                                  /usr/lib/gcc/arm-none-eabi/4.8.2/../../../arm-none-eabi/lib/armv7-m/libg.a(lib_a-dtoa.o)
__aeabi_dadd                                      /usr/lib/gcc/arm-none-eabi/4.8.2/armv7-m/libgcc.a(_arm_addsubdf3.o)
                                                  /usr/lib/gcc/arm-none-eabi/4.8.2/../../../arm-none-eabi/lib/armv7-m/libg.a(lib_a-dtoa.o)
__aeabi_dcmpeq                                    /usr/lib/gcc/arm-none-eabi/4.8.2/armv7-m/libgcc.a(_arm_cmpdf2.o)
                                                  /usr/lib/gcc/arm-none-eabi/4.8.2/../../../arm-none-eabi/lib/armv7-m/libg.a(lib_a-dtoa.o)
                                                  /usr/lib/gcc/arm-none-eabi/4.8.2/../../../arm-none-eabi/lib/armv7-m/libg.a(lib_a-vfprintf.o)
__aeabi_dcmpge                                    /usr/lib/gcc/arm-none-eabi/4.8.2/armv7-m/libgcc.a(_arm_cmpdf2.o)
                                                  /usr/lib/gcc/arm-none-eabi/4.8.2/../../../arm-none-eabi/lib/armv7-m/libg.a(lib_a-dtoa.o)
__aeabi_dcmpgt                                    /usr/lib/gcc/arm-none-eabi/4.8.2/armv7-m/libgcc.a(_arm_cmpdf2.o)
                                                  /usr/lib/gcc/arm-none-eabi/4.8.2/../../../arm-none-eabi/lib/armv7-m/libg.a(lib_a-dtoa.o)
__aeabi_dcmple                                    /usr/lib/gcc/arm-none-eabi/4.8.2/armv7-m/libgcc.a(_arm_cmpdf2.o)
__aeabi_dcmplt                                    /usr/lib/gcc/arm-none-eabi/4.8.2/armv7-m/libgcc.a(_arm_cmpdf2.o)
                                                  /usr/lib/gcc/arm-none-eabi/4.8.2/../../../arm-none-eabi/lib/armv7-m/libg.a(lib_a-dtoa.o)
                                                  /usr/lib/gcc/arm-none-eabi/4.8.2/../../../arm-none-eabi/lib/armv7-m/libg.a(lib_a-vfprintf.o)
__aeabi_ddiv                                      /usr/lib/gcc/arm-none-eabi/4.8.2/armv7-m/libgcc.a(_arm_muldivdf3.o)
                                                  /usr/lib/gcc/arm-none-eabi/4.8.2/../../../arm-none-eabi/lib/armv7-m/libg.a(lib_a-mprec.o)
                                                  /usr/lib/gcc/arm-none-eabi/4.8.2/../../../arm-none-eabi/lib/armv7-m/libg.a(lib_a-dtoa.o)
__aeabi_dmul                                      /usr/lib/gcc/arm-none-eabi/4.8.2/armv7-m/libgcc.a(_arm_muldivdf3.o)
                                                  /usr/lib/gcc/arm-none-eabi/4.8.2/../../../arm-none-eabi/lib/armv7-m/libg.a(lib_a-mprec.o)
                                                  /usr/lib/gcc/arm-none-eabi/4.8.2/../../../arm-none-eabi/lib/armv7-m/libg.a(lib_a-dtoa.o)
__aeabi_drsub                                     /usr/lib/gcc/arm-none-eabi/4.8.2/armv7-m/libgcc.a(_arm_addsubdf3.o)
__aeabi_dsub                                      /usr/lib/gcc/arm-none-eabi/4.8.2/armv7-m/libgcc.a(_arm_addsubdf3.o)
                                                  /usr/lib/gcc/arm-none-eabi/4.8.2/../../../arm-none-eabi/lib/armv7-m/libg.a(lib_a-dtoa.o)
__aeabi_f2d                                       /usr/lib/gcc/arm-none-eabi/4.8.2/armv7-m/libgcc.a(_arm_addsubdf3.o)
__aeabi_i2d                                       /usr/lib/gcc/arm-none-eabi/4.8.2/armv7-m/libgcc.a(_arm_addsubdf3.o)
                                                  /usr/lib/gcc/arm-none-eabi/4.8.2/../../../arm-none-eabi/lib/armv7-m/libg.a(lib_a-dtoa.o)
__aeabi_idiv0                                     /usr/lib/gcc/arm-none-eabi/4.8.2/armv7-m/libgcc.a(_dvmd_tls.o)
__aeabi_l2d                                       /usr/lib/gcc/arm-none-eabi/4.8.2/armv7-m/libgcc.a(_arm_addsubdf3.o)
__aeabi_ldiv0                                     /usr/lib/gcc/arm-none-eabi/4.8.2/armv7-m/libgcc.a(_dvmd_tls.o)
                                                  /usr/lib/gcc/arm-none-eabi/4.8.2/armv7-m/libgcc.a(_aeabi_uldivmod.o)
__aeabi_ui2d                                      /usr/lib/gcc/arm-none-eabi/4.8.2/armv7-m/libgcc.a(_arm_addsubdf3.o)
                                                  /usr/lib/gcc/arm-none-eabi/4.8.2/../../../arm-none-eabi/lib/armv7-m/libg.a(lib_a-dtoa.o)
__aeabi_ul2d                                      /usr/lib/gcc/arm-none-eabi/4.8.2/armv7-m/libgcc.a(_arm_addsubdf3.o)
__aeabi_uldivmod                                  /usr/lib/gcc/arm-none-eabi/4.8.2/armv7-m/libgcc.a(_aeabi_uldivmod.o)
                                                  /usr/lib/gcc/arm-none-eabi/4.8.2/../../../arm-none-eabi/lib/armv7-m/libg.a(lib_a-vfiprintf.o)
                                                  /usr/lib/gcc/arm-none-eabi/4.8.2/../../../arm-none-eabi/lib/armv7-m/libg.a(lib_a-vfprintf.o)
__any_on                                          /usr/lib/gcc/arm-none-eabi/4.8.2/../../../arm-none-eabi/lib/armv7-m/libg.a(lib_a-mprec.o)
__ascii_wctomb                                    /usr/lib/gcc/arm-none-eabi/4.8.2/../../../arm-none-eabi/lib/armv7-m/libg.a(lib_a-wctomb_r.o)
__b2d                                             /usr/lib/gcc/arm-none-eabi/4.8.2/../../../arm-none-eabi/lib/armv7-m/libg.a(lib_a-mprec.o)
__cmpdf2                                          /usr/lib/gcc/arm-none-eabi/4.8.2/armv7-m/libgcc.a(_arm_cmpdf2.o)
__copybits                                        /usr/lib/gcc/arm-none-eabi/4.8.2/../../../arm-none-eabi/lib/armv7-m/libg.a(lib_a-mprec.o)
__d2b                                             /usr/lib/gcc/arm-none-eabi/4.8.2/../../../arm-none-eabi/lib/armv7-m/libg.a(lib_a-mprec.o)
                                                  /usr/lib/gcc/arm-none-eabi/4.8.2/../../../arm-none-eabi/lib/armv7-m/libg.a(lib_a-dtoa.o)
__divdf3                                          /usr/lib/gcc/arm-none-eabi/4.8.2/armv7-m/libgcc.a(_arm_muldivdf3.o)
__divdi3                                          /usr/lib/gcc/arm-none-eabi/4.8.2/armv7-m/libgcc.a(_divdi3.o)
                                                  /usr/lib/gcc/arm-none-eabi/4.8.2/armv7-m/libgcc.a(bpabi.o)
__eqdf2                                           /usr/lib/gcc/arm-none-eabi/4.8.2/armv7-m/libgcc.a(_arm_cmpdf2.o)
__extendsfdf2                                     /usr/lib/gcc/arm-none-eabi/4.8.2/armv7-m/libgcc.a(_arm_addsubdf3.o)
__fixdfsi                                         /usr/lib/gcc/arm-none-eabi/4.8.2/armv7-m/libgcc.a(_arm_fixdfsi.o)
__floatdidf                                       /usr/lib/gcc/arm-none-eabi/4.8.2/armv7-m/libgcc.a(_arm_addsubdf3.o)
__floatsidf                                       /usr/lib/gcc/arm-none-eabi/4.8.2/armv7-m/libgcc.a(_arm_addsubdf3.o)
__floatundidf                                     /usr/lib/gcc/arm-none-eabi/4.8.2/armv7-m/libgcc.a(_arm_addsubdf3.o)
__floatunsidf                                     /usr/lib/gcc/arm-none-eabi/4.8.2/armv7-m/libgcc.a(_arm_addsubdf3.o)
__fp_lock_all                                     /usr/lib/gcc/arm-none-eabi/4.8.2/../../../arm-none-eabi/lib/armv7-m/libg.a(lib_a-findfp.o)
__fp_unlock_all                                   /usr/lib/gcc/arm-none-eabi/4.8.2/../../../arm-none-eabi/lib/armv7-m/libg.a(lib_a-findfp.o)
__fpclassifyd                                     /usr/lib/gcc/arm-none-eabi/4.8.2/../../../arm-none-eabi/lib/armv7-m/libg.a(lib_a-s_fpclassify.o)
                                                  /usr/lib/gcc/arm-none-eabi/4.8.2/../../../arm-none-eabi/lib/armv7-m/libg.a(lib_a-vfprintf.o)
__gedf2                                           /usr/lib/gcc/arm-none-eabi/4.8.2/armv7-m/libgcc.a(_arm_cmpdf2.o)
__gnu_ldivmod_helper                              /usr/lib/gcc/arm-none-eabi/4.8.2/armv7-m/libgcc.a(bpabi.o)
__gnu_uldivmod_helper                             /usr/lib/gcc/arm-none-eabi/4.8.2/armv7-m/libgcc.a(bpabi.o)
                                                  /usr/lib/gcc/arm-none-eabi/4.8.2/armv7-m/libgcc.a(_aeabi_uldivmod.o)
__gtdf2                                           /usr/lib/gcc/arm-none-eabi/4.8.2/armv7-m/libgcc.a(_arm_cmpdf2.o)
__hi0bits                                         /usr/lib/gcc/arm-none-eabi/4.8.2/../../../arm-none-eabi/lib/armv7-m/libg.a(lib_a-mprec.o)
                                                  /usr/lib/gcc/arm-none-eabi/4.8.2/../../../arm-none-eabi/lib/armv7-m/libg.a(lib_a-dtoa.o)
__i2b                                             /usr/lib/gcc/arm-none-eabi/4.8.2/../../../arm-none-eabi/lib/armv7-m/libg.a(lib_a-mprec.o)
                                                  /usr/lib/gcc/arm-none-eabi/4.8.2/../../../arm-none-eabi/lib/armv7-m/libg.a(lib_a-dtoa.o)
__ledf2                                           /usr/lib/gcc/arm-none-eabi/4.8.2/armv7-m/libgcc.a(_arm_cmpdf2.o)
__lo0bits                                         /usr/lib/gcc/arm-none-eabi/4.8.2/../../../arm-none-eabi/lib/armv7-m/libg.a(lib_a-mprec.o)
__locale_charset                                  /usr/lib/gcc/arm-none-eabi/4.8.2/../../../arm-none-eabi/lib/armv7-m/libg.a(lib_a-locale.o)
                                                  /usr/lib/gcc/arm-none-eabi/4.8.2/../../../arm-none-eabi/lib/armv7-m/libg.a(lib_a-wctomb_r.o)
                                                  /usr/lib/gcc/arm-none-eabi/4.8.2/../../../arm-none-eabi/lib/armv7-m/libg.a(lib_a-wcrtomb.o)
__locale_cjk_lang                                 /usr/lib/gcc/arm-none-eabi/4.8.2/../../../arm-none-eabi/lib/armv7-m/libg.a(lib_a-locale.o)
__locale_mb_cur_max                               /usr/lib/gcc/arm-none-eabi/4.8.2/../../../arm-none-eabi/lib/armv7-m/libg.a(lib_a-locale.o)
                                                  /usr/lib/gcc/arm-none-eabi/4.8.2/../../../arm-none-eabi/lib/armv7-m/libg.a(lib_a-fputwc.o)
__locale_msgcharset                               /usr/lib/gcc/arm-none-eabi/4.8.2/../../../arm-none-eabi/lib/armv7-m/libg.a(lib_a-locale.o)
__lshift                                          /usr/lib/gcc/arm-none-eabi/4.8.2/../../../arm-none-eabi/lib/armv7-m/libg.a(lib_a-mprec.o)
                                                  /usr/lib/gcc/arm-none-eabi/4.8.2/../../../arm-none-eabi/lib/armv7-m/libg.a(lib_a-dtoa.o)
__ltdf2                                           /usr/lib/gcc/arm-none-eabi/4.8.2/armv7-m/libgcc.a(_arm_cmpdf2.o)
__malloc_av_                                      /usr/lib/gcc/arm-none-eabi/4.8.2/../../../arm-none-eabi/lib/armv7-m/libg.a(lib_a-mallocr.o)
                                                  /usr/lib/gcc/arm-none-eabi/4.8.2/../../../arm-none-eabi/lib/armv7-m/libg.a(lib_a-reallocr.o)
                                                  /usr/lib/gcc/arm-none-eabi/4.8.2/../../../arm-none-eabi/lib/armv7-m/libg.a(lib_a-freer.o)
__malloc_current_mallinfo                         /usr/lib/gcc/arm-none-eabi/4.8.2/../../../arm-none-eabi/lib/armv7-m/libg.a(lib_a-mallocr.o)
                                                  /usr/lib/gcc/arm-none-eabi/4.8.2/../../../arm-none-eabi/lib/armv7-m/libg.a(lib_a-freer.o)
__malloc_lock                                     /usr/lib/gcc/arm-none-eabi/4.8.2/../../../arm-none-eabi/lib/armv7-m/libg.a(lib_a-mlock.o)
                                                  /usr/lib/gcc/arm-none-eabi/4.8.2/../../../arm-none-eabi/lib/armv7-m/libg.a(lib_a-reallocr.o)
                                                  /usr/lib/gcc/arm-none-eabi/4.8.2/../../../arm-none-eabi/lib/armv7-m/libg.a(lib_a-mallocr.o)
                                                  /usr/lib/gcc/arm-none-eabi/4.8.2/../../../arm-none-eabi/lib/armv7-m/libg.a(lib_a-freer.o)
__malloc_max_sbrked_mem                           /usr/lib/gcc/arm-none-eabi/4.8.2/../../../arm-none-eabi/lib/armv7-m/libg.a(lib_a-mallocr.o)
__malloc_max_total_mem                            /usr/lib/gcc/arm-none-eabi/4.8.2/../../../arm-none-eabi/lib/armv7-m/libg.a(lib_a-mallocr.o)
__malloc_sbrk_base                                /usr/lib/gcc/arm-none-eabi/4.8.2/../../../arm-none-eabi/lib/armv7-m/libg.a(lib_a-mallocr.o)
                                                  /usr/lib/gcc/arm-none-eabi/4.8.2/../../../arm-none-eabi/lib/armv7-m/libg.a(lib_a-freer.o)
__malloc_top_pad                                  /usr/lib/gcc/arm-none-eabi/4.8.2/../../../arm-none-eabi/lib/armv7-m/libg.a(lib_a-mallocr.o)
                                                  /usr/lib/gcc/arm-none-eabi/4.8.2/../../../arm-none-eabi/lib/armv7-m/libg.a(lib_a-freer.o)
__malloc_trim_threshold                           /usr/lib/gcc/arm-none-eabi/4.8.2/../../../arm-none-eabi/lib/armv7-m/libg.a(lib_a-mallocr.o)
                                                  /usr/lib/gcc/arm-none-eabi/4.8.2/../../../arm-none-eabi/lib/armv7-m/libg.a(lib_a-freer.o)
__malloc_unlock                                   /usr/lib/gcc/arm-none-eabi/4.8.2/../../../arm-none-eabi/lib/armv7-m/libg.a(lib_a-mlock.o)
                                                  /usr/lib/gcc/arm-none-eabi/4.8.2/../../../arm-none-eabi/lib/armv7-m/libg.a(lib_a-reallocr.o)
                                                  /usr/lib/gcc/arm-none-eabi/4.8.2/../../../arm-none-eabi/lib/armv7-m/libg.a(lib_a-mallocr.o)
                                                  /usr/lib/gcc/arm-none-eabi/4.8.2/../../../arm-none-eabi/lib/armv7-m/libg.a(lib_a-freer.o)
__mb_cur_max                                      /usr/lib/gcc/arm-none-eabi/4.8.2/../../../arm-none-eabi/lib/armv7-m/libg.a(lib_a-locale.o)
__mcmp                                            /usr/lib/gcc/arm-none-eabi/4.8.2/../../../arm-none-eabi/lib/armv7-m/libg.a(lib_a-mprec.o)
                                                  /usr/lib/gcc/arm-none-eabi/4.8.2/../../../arm-none-eabi/lib/armv7-m/libg.a(lib_a-dtoa.o)
__mdiff                                           /usr/lib/gcc/arm-none-eabi/4.8.2/../../../arm-none-eabi/lib/armv7-m/libg.a(lib_a-mprec.o)
                                                  /usr/lib/gcc/arm-none-eabi/4.8.2/../../../arm-none-eabi/lib/armv7-m/libg.a(lib_a-dtoa.o)
__mlocale_changed                                 /usr/lib/gcc/arm-none-eabi/4.8.2/../../../arm-none-eabi/lib/armv7-m/libg.a(lib_a-locale.o)
__mprec_bigtens                                   /usr/lib/gcc/arm-none-eabi/4.8.2/../../../arm-none-eabi/lib/armv7-m/libg.a(lib_a-mprec.o)
                                                  /usr/lib/gcc/arm-none-eabi/4.8.2/../../../arm-none-eabi/lib/armv7-m/libg.a(lib_a-dtoa.o)
__mprec_tens                                      /usr/lib/gcc/arm-none-eabi/4.8.2/../../../arm-none-eabi/lib/armv7-m/libg.a(lib_a-mprec.o)
                                                  /usr/lib/gcc/arm-none-eabi/4.8.2/../../../arm-none-eabi/lib/armv7-m/libg.a(lib_a-dtoa.o)
__mprec_tinytens                                  /usr/lib/gcc/arm-none-eabi/4.8.2/../../../arm-none-eabi/lib/armv7-m/libg.a(lib_a-mprec.o)
__muldf3                                          /usr/lib/gcc/arm-none-eabi/4.8.2/armv7-m/libgcc.a(_arm_muldivdf3.o)
__multadd                                         /usr/lib/gcc/arm-none-eabi/4.8.2/../../../arm-none-eabi/lib/armv7-m/libg.a(lib_a-mprec.o)
                                                  /usr/lib/gcc/arm-none-eabi/4.8.2/../../../arm-none-eabi/lib/armv7-m/libg.a(lib_a-dtoa.o)
__multiply                                        /usr/lib/gcc/arm-none-eabi/4.8.2/../../../arm-none-eabi/lib/armv7-m/libg.a(lib_a-mprec.o)
                                                  /usr/lib/gcc/arm-none-eabi/4.8.2/../../../arm-none-eabi/lib/armv7-m/libg.a(lib_a-dtoa.o)
__nedf2                                           /usr/lib/gcc/arm-none-eabi/4.8.2/armv7-m/libgcc.a(_arm_cmpdf2.o)
__nlocale_changed                                 /usr/lib/gcc/arm-none-eabi/4.8.2/../../../arm-none-eabi/lib/armv7-m/libg.a(lib_a-locale.o)
__pow5mult                                        /usr/lib/gcc/arm-none-eabi/4.8.2/../../../arm-none-eabi/lib/armv7-m/libg.a(lib_a-mprec.o)
                                                  /usr/lib/gcc/arm-none-eabi/4.8.2/../../../arm-none-eabi/lib/armv7-m/libg.a(lib_a-dtoa.o)
__ratio                                           /usr/lib/gcc/arm-none-eabi/4.8.2/../../../arm-none-eabi/lib/armv7-m/libg.a(lib_a-mprec.o)
__s2b                                             /usr/lib/gcc/arm-none-eabi/4.8.2/../../../arm-none-eabi/lib/armv7-m/libg.a(lib_a-mprec.o)
__sclose                                          /usr/lib/gcc/arm-none-eabi/4.8.2/../../../arm-none-eabi/lib/armv7-m/libg.a(lib_a-stdio.o)
                                                  /usr/lib/gcc/arm-none-eabi/4.8.2/../../../arm-none-eabi/lib/armv7-m/libg.a(lib_a-findfp.o)
__seofread                                        /usr/lib/gcc/arm-none-eabi/4.8.2/../../../arm-none-eabi/lib/armv7-m/libg.a(lib_a-stdio.o)
__sflush_r                                        /usr/lib/gcc/arm-none-eabi/4.8.2/../../../arm-none-eabi/lib/armv7-m/libg.a(lib_a-fflush.o)
__sfmoreglue                                      /usr/lib/gcc/arm-none-eabi/4.8.2/../../../arm-none-eabi/lib/armv7-m/libg.a(lib_a-findfp.o)
__sfp                                             /usr/lib/gcc/arm-none-eabi/4.8.2/../../../arm-none-eabi/lib/armv7-m/libg.a(lib_a-findfp.o)
__sfp_lock_acquire                                /usr/lib/gcc/arm-none-eabi/4.8.2/../../../arm-none-eabi/lib/armv7-m/libg.a(lib_a-findfp.o)
                                                  /usr/lib/gcc/arm-none-eabi/4.8.2/../../../arm-none-eabi/lib/armv7-m/libg.a(lib_a-fclose.o)
__sfp_lock_release                                /usr/lib/gcc/arm-none-eabi/4.8.2/../../../arm-none-eabi/lib/armv7-m/libg.a(lib_a-findfp.o)
                                                  /usr/lib/gcc/arm-none-eabi/4.8.2/../../../arm-none-eabi/lib/armv7-m/libg.a(lib_a-fclose.o)
__sfvwrite_r                                      /usr/lib/gcc/arm-none-eabi/4.8.2/../../../arm-none-eabi/lib/armv7-m/libg.a(lib_a-fvwrite.o)
                                                  /usr/lib/gcc/arm-none-eabi/4.8.2/../../../arm-none-eabi/lib/armv7-m/libg.a(lib_a-vfiprintf.o)
                                                  /usr/lib/gcc/arm-none-eabi/4.8.2/../../../arm-none-eabi/lib/armv7-m/libg.a(lib_a-puts.o)
__sinit                                           /usr/lib/gcc/arm-none-eabi/4.8.2/../../../arm-none-eabi/lib/armv7-m/libg.a(lib_a-findfp.o)
                                                  /usr/lib/gcc/arm-none-eabi/4.8.2/../../../arm-none-eabi/lib/armv7-m/libg.a(lib_a-wbuf.o)
                                                  /usr/lib/gcc/arm-none-eabi/4.8.2/../../../arm-none-eabi/lib/armv7-m/libg.a(lib_a-fputwc.o)
                                                  /usr/lib/gcc/arm-none-eabi/4.8.2/../../../arm-none-eabi/lib/armv7-m/libg.a(lib_a-fclose.o)
                                                  /usr/lib/gcc/arm-none-eabi/4.8.2/../../../arm-none-eabi/lib/armv7-m/libg.a(lib_a-vfiprintf.o)
                                                  /usr/lib/gcc/arm-none-eabi/4.8.2/../../../arm-none-eabi/lib/armv7-m/libg.a(lib_a-fflush.o)
                                                  /usr/lib/gcc/arm-none-eabi/4.8.2/../../../arm-none-eabi/lib/armv7-m/libg.a(lib_a-wsetup.o)
                                                  /usr/lib/gcc/arm-none-eabi/4.8.2/../../../arm-none-eabi/lib/armv7-m/libg.a(lib_a-vfprintf.o)
__sinit_lock_acquire                              /usr/lib/gcc/arm-none-eabi/4.8.2/../../../arm-none-eabi/lib/armv7-m/libg.a(lib_a-findfp.o)
__sinit_lock_release                              /usr/lib/gcc/arm-none-eabi/4.8.2/../../../arm-none-eabi/lib/armv7-m/libg.a(lib_a-findfp.o)
__smakebuf_r                                      /usr/lib/gcc/arm-none-eabi/4.8.2/../../../arm-none-eabi/lib/armv7-m/libg.a(lib_a-makebuf.o)
                                                  /usr/lib/gcc/arm-none-eabi/4.8.2/../../../arm-none-eabi/lib/armv7-m/libg.a(lib_a-wsetup.o)
__sprint_r                                        /usr/lib/gcc/arm-none-eabi/4.8.2/../../../arm-none-eabi/lib/armv7-m/libg.a(lib_a-vfiprintf.o)
                                                  /usr/lib/gcc/arm-none-eabi/4.8.2/../../../arm-none-eabi/lib/armv7-m/libg.a(lib_a-vfprintf.o)
__sread                                           /usr/lib/gcc/arm-none-eabi/4.8.2/../../../arm-none-eabi/lib/armv7-m/libg.a(lib_a-stdio.o)
                                                  /usr/lib/gcc/arm-none-eabi/4.8.2/../../../arm-none-eabi/lib/armv7-m/libg.a(lib_a-findfp.o)
__sseek                                           /usr/lib/gcc/arm-none-eabi/4.8.2/../../../arm-none-eabi/lib/armv7-m/libg.a(lib_a-stdio.o)
                                                  /usr/lib/gcc/arm-none-eabi/4.8.2/../../../arm-none-eabi/lib/armv7-m/libg.a(lib_a-makebuf.o)
                                                  /usr/lib/gcc/arm-none-eabi/4.8.2/../../../arm-none-eabi/lib/armv7-m/libg.a(lib_a-findfp.o)
__stderr                                          /tmp/cczzK2f9.o
__stdout                                          /tmp/cczzK2f9.o
__subdf3                                          /usr/lib/gcc/arm-none-eabi/4.8.2/armv7-m/libgcc.a(_arm_addsubdf3.o)
__swbuf                                           /usr/lib/gcc/arm-none-eabi/4.8.2/../../../arm-none-eabi/lib/armv7-m/libg.a(lib_a-wbuf.o)
__swbuf_r                                         /usr/lib/gcc/arm-none-eabi/4.8.2/../../../arm-none-eabi/lib/armv7-m/libg.a(lib_a-wbuf.o)
                                                  /usr/lib/gcc/arm-none-eabi/4.8.2/../../../arm-none-eabi/lib/armv7-m/libg.a(lib_a-fputwc.o)
__swrite                                          /usr/lib/gcc/arm-none-eabi/4.8.2/../../../arm-none-eabi/lib/armv7-m/libg.a(lib_a-stdio.o)
                                                  /usr/lib/gcc/arm-none-eabi/4.8.2/../../../arm-none-eabi/lib/armv7-m/libg.a(lib_a-findfp.o)
__swsetup_r                                       /usr/lib/gcc/arm-none-eabi/4.8.2/../../../arm-none-eabi/lib/armv7-m/libg.a(lib_a-wsetup.o)
                                                  /usr/lib/gcc/arm-none-eabi/4.8.2/../../../arm-none-eabi/lib/armv7-m/libg.a(lib_a-wbuf.o)
                                                  /usr/lib/gcc/arm-none-eabi/4.8.2/../../../arm-none-eabi/lib/armv7-m/libg.a(lib_a-vfiprintf.o)
                                                  /usr/lib/gcc/arm-none-eabi/4.8.2/../../../arm-none-eabi/lib/armv7-m/libg.a(lib_a-fvwrite.o)
                                                  /usr/lib/gcc/arm-none-eabi/4.8.2/../../../arm-none-eabi/lib/armv7-m/libg.a(lib_a-vfprintf.o)
__udivdi3                                         /usr/lib/gcc/arm-none-eabi/4.8.2/armv7-m/libgcc.a(_udivdi3.o)
                                                  /usr/lib/gcc/arm-none-eabi/4.8.2/armv7-m/libgcc.a(bpabi.o)
__ulp                                             /usr/lib/gcc/arm-none-eabi/4.8.2/../../../arm-none-eabi/lib/armv7-m/libg.a(lib_a-mprec.o)
__wctomb                                          /usr/lib/gcc/arm-none-eabi/4.8.2/../../../arm-none-eabi/lib/armv7-m/libg.a(lib_a-wctomb_r.o)
                                                  /usr/lib/gcc/arm-none-eabi/4.8.2/../../../arm-none-eabi/lib/armv7-m/libg.a(lib_a-wcrtomb.o)
_calloc_r                                         /usr/lib/gcc/arm-none-eabi/4.8.2/../../../arm-none-eabi/lib/armv7-m/libg.a(lib_a-callocr.o)
                                                  /usr/lib/gcc/arm-none-eabi/4.8.2/../../../arm-none-eabi/lib/armv7-m/libg.a(lib_a-mprec.o)
_cleanup                                          /usr/lib/gcc/arm-none-eabi/4.8.2/../../../arm-none-eabi/lib/armv7-m/libg.a(lib_a-findfp.o)
_cleanup_r                                        /usr/lib/gcc/arm-none-eabi/4.8.2/../../../arm-none-eabi/lib/armv7-m/libg.a(lib_a-findfp.o)
                                                  /usr/lib/gcc/arm-none-eabi/4.8.2/../../../arm-none-eabi/lib/armv7-m/libg.a(lib_a-makebuf.o)
_close                                            /tmp/cczzK2f9.o
                                                  /usr/lib/gcc/arm-none-eabi/4.8.2/../../../arm-none-eabi/lib/armv7-m/libg.a(lib_a-closer.o)
_close_r                                          /usr/lib/gcc/arm-none-eabi/4.8.2/../../../arm-none-eabi/lib/armv7-m/libg.a(lib_a-closer.o)
                                                  /usr/lib/gcc/arm-none-eabi/4.8.2/../../../arm-none-eabi/lib/armv7-m/libg.a(lib_a-stdio.o)
_dtoa_r                                           /usr/lib/gcc/arm-none-eabi/4.8.2/../../../arm-none-eabi/lib/armv7-m/libg.a(lib_a-dtoa.o)
                                                  /usr/lib/gcc/arm-none-eabi/4.8.2/../../../arm-none-eabi/lib/armv7-m/libg.a(lib_a-vfprintf.o)
_ebss                                             /tmp/ccy457S0.o
_edata                                            /tmp/ccy457S0.o
_end                                              /tmp/cczzK2f9.o
_estack                                           /tmp/ccy457S0.o
_exit                                             /tmp/cczzK2f9.o
_fclose_r                                         /usr/lib/gcc/arm-none-eabi/4.8.2/../../../arm-none-eabi/lib/armv7-m/libg.a(lib_a-fclose.o)
_fflush_r                                         /usr/lib/gcc/arm-none-eabi/4.8.2/../../../arm-none-eabi/lib/armv7-m/libg.a(lib_a-fflush.o)
                                                  /usr/lib/gcc/arm-none-eabi/4.8.2/../../../arm-none-eabi/lib/armv7-m/libg.a(lib_a-wbuf.o)
                                                  /usr/lib/gcc/arm-none-eabi/4.8.2/../../../arm-none-eabi/lib/armv7-m/libg.a(lib_a-fclose.o)
                                                  /usr/lib/gcc/arm-none-eabi/4.8.2/../../../arm-none-eabi/lib/armv7-m/libg.a(lib_a-vfiprintf.o)
                                                  /usr/lib/gcc/arm-none-eabi/4.8.2/../../../arm-none-eabi/lib/armv7-m/libg.a(lib_a-fvwrite.o)
                                                  /usr/lib/gcc/arm-none-eabi/4.8.2/../../../arm-none-eabi/lib/armv7-m/libg.a(lib_a-vfprintf.o)
_fputwc_r                                         /usr/lib/gcc/arm-none-eabi/4.8.2/../../../arm-none-eabi/lib/armv7-m/libg.a(lib_a-fputwc.o)
                                                  /usr/lib/gcc/arm-none-eabi/4.8.2/../../../arm-none-eabi/lib/armv7-m/libg.a(lib_a-vfiprintf.o)
_free_r                                           /usr/lib/gcc/arm-none-eabi/4.8.2/../../../arm-none-eabi/lib/armv7-m/libg.a(lib_a-freer.o)
                                                  /usr/lib/gcc/arm-none-eabi/4.8.2/../../../arm-none-eabi/lib/armv7-m/libg.a(lib_a-reent.o)
                                                  /usr/lib/gcc/arm-none-eabi/4.8.2/../../../arm-none-eabi/lib/armv7-m/libg.a(lib_a-fclose.o)
                                                  /usr/lib/gcc/arm-none-eabi/4.8.2/../../../arm-none-eabi/lib/armv7-m/libg.a(lib_a-reallocr.o)
                                                  /usr/lib/gcc/arm-none-eabi/4.8.2/../../../arm-none-eabi/lib/armv7-m/libg.a(lib_a-mallocr.o)
                                                  /usr/lib/gcc/arm-none-eabi/4.8.2/../../../arm-none-eabi/lib/armv7-m/libg.a(lib_a-fvwrite.o)
                                                  /usr/lib/gcc/arm-none-eabi/4.8.2/../../../arm-none-eabi/lib/armv7-m/libg.a(lib_a-fflush.o)
                                                  /usr/lib/gcc/arm-none-eabi/4.8.2/../../../arm-none-eabi/lib/armv7-m/libg.a(lib_a-wsetup.o)
_fstat                                            /tmp/cczzK2f9.o
                                                  /usr/lib/gcc/arm-none-eabi/4.8.2/../../../arm-none-eabi/lib/armv7-m/libg.a(lib_a-fstatr.o)
_fstat_r                                          /usr/lib/gcc/arm-none-eabi/4.8.2/../../../arm-none-eabi/lib/armv7-m/libg.a(lib_a-fstatr.o)
                                                  /usr/lib/gcc/arm-none-eabi/4.8.2/../../../arm-none-eabi/lib/armv7-m/libg.a(lib_a-makebuf.o)
_fwalk                                            /usr/lib/gcc/arm-none-eabi/4.8.2/../../../arm-none-eabi/lib/armv7-m/libg.a(lib_a-fwalk.o)
                                                  /usr/lib/gcc/arm-none-eabi/4.8.2/../../../arm-none-eabi/lib/armv7-m/libg.a(lib_a-findfp.o)
_fwalk_reent                                      /usr/lib/gcc/arm-none-eabi/4.8.2/../../../arm-none-eabi/lib/armv7-m/libg.a(lib_a-fwalk.o)
                                                  /usr/lib/gcc/arm-none-eabi/4.8.2/../../../arm-none-eabi/lib/armv7-m/libg.a(lib_a-fflush.o)
_getpid                                           /tmp/cczzK2f9.o
_global_impure_ptr                                /usr/lib/gcc/arm-none-eabi/4.8.2/../../../arm-none-eabi/lib/armv7-m/libg.a(lib_a-impure.o)
                                                  /usr/lib/gcc/arm-none-eabi/4.8.2/../../../arm-none-eabi/lib/armv7-m/libg.a(lib_a-findfp.o)
                                                  /usr/lib/gcc/arm-none-eabi/4.8.2/../../../arm-none-eabi/lib/armv7-m/libg.a(lib_a-fflush.o)
_impure_ptr                                       /usr/lib/gcc/arm-none-eabi/4.8.2/../../../arm-none-eabi/lib/armv7-m/libg.a(lib_a-impure.o)
                                                  /usr/lib/gcc/arm-none-eabi/4.8.2/../../../arm-none-eabi/lib/armv7-m/libg.a(lib_a-wcrtomb.o)
                                                  /usr/lib/gcc/arm-none-eabi/4.8.2/../../../arm-none-eabi/lib/armv7-m/libg.a(lib_a-wbuf.o)
                                                  /usr/lib/gcc/arm-none-eabi/4.8.2/../../../arm-none-eabi/lib/armv7-m/libg.a(lib_a-reent.o)
                                                  /usr/lib/gcc/arm-none-eabi/4.8.2/../../../arm-none-eabi/lib/armv7-m/libg.a(lib_a-fputwc.o)
                                                  /usr/lib/gcc/arm-none-eabi/4.8.2/../../../arm-none-eabi/lib/armv7-m/libg.a(lib_a-fclose.o)
                                                  /usr/lib/gcc/arm-none-eabi/4.8.2/../../../arm-none-eabi/lib/armv7-m/libg.a(lib_a-vfiprintf.o)
                                                  /usr/lib/gcc/arm-none-eabi/4.8.2/../../../arm-none-eabi/lib/armv7-m/libg.a(lib_a-locale.o)
                                                  /usr/lib/gcc/arm-none-eabi/4.8.2/../../../arm-none-eabi/lib/armv7-m/libg.a(lib_a-findfp.o)
                                                  /usr/lib/gcc/arm-none-eabi/4.8.2/../../../arm-none-eabi/lib/armv7-m/libg.a(lib_a-fflush.o)
                                                  /usr/lib/gcc/arm-none-eabi/4.8.2/../../../arm-none-eabi/lib/armv7-m/libg.a(lib_a-wsetup.o)
                                                  /usr/lib/gcc/arm-none-eabi/4.8.2/../../../arm-none-eabi/lib/armv7-m/libg.a(lib_a-vfprintf.o)
                                                  /usr/lib/gcc/arm-none-eabi/4.8.2/../../../arm-none-eabi/lib/armv7-m/libg.a(lib_a-puts.o)
                                                  /usr/lib/gcc/arm-none-eabi/4.8.2/../../../arm-none-eabi/lib/armv7-m/libg.a(lib_a-printf.o)
_isatty                                           /tmp/cczzK2f9.o
                                                  /usr/lib/gcc/arm-none-eabi/4.8.2/../../../arm-none-eabi/lib/armv7-m/libg.a(lib_a-isattyr.o)
_isatty_r                                         /usr/lib/gcc/arm-none-eabi/4.8.2/../../../arm-none-eabi/lib/armv7-m/libg.a(lib_a-isattyr.o)
                                                  /usr/lib/gcc/arm-none-eabi/4.8.2/../../../arm-none-eabi/lib/armv7-m/libg.a(lib_a-makebuf.o)
_kill                                             /tmp/cczzK2f9.o
_localeconv_r                                     /usr/lib/gcc/arm-none-eabi/4.8.2/../../../arm-none-eabi/lib/armv7-m/libg.a(lib_a-locale.o)
                                                  /usr/lib/gcc/arm-none-eabi/4.8.2/../../../arm-none-eabi/lib/armv7-m/libg.a(lib_a-vfprintf.o)
_lseek                                            /tmp/cczzK2f9.o
                                                  /usr/lib/gcc/arm-none-eabi/4.8.2/../../../arm-none-eabi/lib/armv7-m/libg.a(lib_a-lseekr.o)
_lseek_r                                          /usr/lib/gcc/arm-none-eabi/4.8.2/../../../arm-none-eabi/lib/armv7-m/libg.a(lib_a-lseekr.o)
                                                  /usr/lib/gcc/arm-none-eabi/4.8.2/../../../arm-none-eabi/lib/armv7-m/libg.a(lib_a-stdio.o)
_malloc_r                                         /usr/lib/gcc/arm-none-eabi/4.8.2/../../../arm-none-eabi/lib/armv7-m/libg.a(lib_a-mallocr.o)
                                                  /usr/lib/gcc/arm-none-eabi/4.8.2/../../../arm-none-eabi/lib/armv7-m/libg.a(lib_a-callocr.o)
                                                  /usr/lib/gcc/arm-none-eabi/4.8.2/../../../arm-none-eabi/lib/armv7-m/libg.a(lib_a-reallocr.o)
                                                  /usr/lib/gcc/arm-none-eabi/4.8.2/../../../arm-none-eabi/lib/armv7-m/libg.a(lib_a-makebuf.o)
                                                  /usr/lib/gcc/arm-none-eabi/4.8.2/../../../arm-none-eabi/lib/armv7-m/libg.a(lib_a-fvwrite.o)
                                                  /usr/lib/gcc/arm-none-eabi/4.8.2/../../../arm-none-eabi/lib/armv7-m/libg.a(lib_a-findfp.o)
_malloc_trim_r                                    /usr/lib/gcc/arm-none-eabi/4.8.2/../../../arm-none-eabi/lib/armv7-m/libg.a(lib_a-freer.o)
_mprec_log10                                      /usr/lib/gcc/arm-none-eabi/4.8.2/../../../arm-none-eabi/lib/armv7-m/libg.a(lib_a-mprec.o)
_printf_r                                         /usr/lib/gcc/arm-none-eabi/4.8.2/../../../arm-none-eabi/lib/armv7-m/libg.a(lib_a-printf.o)
_puts_r                                           /usr/lib/gcc/arm-none-eabi/4.8.2/../../../arm-none-eabi/lib/armv7-m/libg.a(lib_a-puts.o)
_read                                             /tmp/cczzK2f9.o
                                                  /usr/lib/gcc/arm-none-eabi/4.8.2/../../../arm-none-eabi/lib/armv7-m/libg.a(lib_a-readr.o)
_read_r                                           /usr/lib/gcc/arm-none-eabi/4.8.2/../../../arm-none-eabi/lib/armv7-m/libg.a(lib_a-readr.o)
                                                  /usr/lib/gcc/arm-none-eabi/4.8.2/../../../arm-none-eabi/lib/armv7-m/libg.a(lib_a-stdio.o)
_realloc_r                                        /usr/lib/gcc/arm-none-eabi/4.8.2/../../../arm-none-eabi/lib/armv7-m/libg.a(lib_a-reallocr.o)
                                                  /usr/lib/gcc/arm-none-eabi/4.8.2/../../../arm-none-eabi/lib/armv7-m/libg.a(lib_a-fvwrite.o)
_reclaim_reent                                    /usr/lib/gcc/arm-none-eabi/4.8.2/../../../arm-none-eabi/lib/armv7-m/libg.a(lib_a-reent.o)
_sbrk                                             /tmp/cczzK2f9.o
                                                  /usr/lib/gcc/arm-none-eabi/4.8.2/../../../arm-none-eabi/lib/armv7-m/libg.a(lib_a-sbrkr.o)
_sbrk_r                                           /usr/lib/gcc/arm-none-eabi/4.8.2/../../../arm-none-eabi/lib/armv7-m/libg.a(lib_a-sbrkr.o)
                                                  /usr/lib/gcc/arm-none-eabi/4.8.2/../../../arm-none-eabi/lib/armv7-m/libg.a(lib_a-mallocr.o)
                                                  /usr/lib/gcc/arm-none-eabi/4.8.2/../../../arm-none-eabi/lib/armv7-m/libg.a(lib_a-freer.o)
_sbss                                             /tmp/ccy457S0.o
_sdata                                            /tmp/ccy457S0.o
_setlocale_r                                      /usr/lib/gcc/arm-none-eabi/4.8.2/../../../arm-none-eabi/lib/armv7-m/libg.a(lib_a-locale.o)
_sidata                                           /tmp/ccy457S0.o
_ttywrch                                          /tmp/cczzK2f9.o
_vfiprintf_r                                      /usr/lib/gcc/arm-none-eabi/4.8.2/../../../arm-none-eabi/lib/armv7-m/libg.a(lib_a-vfiprintf.o)
_vfprintf_r                                       /usr/lib/gcc/arm-none-eabi/4.8.2/../../../arm-none-eabi/lib/armv7-m/libg.a(lib_a-vfprintf.o)
                                                  /usr/lib/gcc/arm-none-eabi/4.8.2/../../../arm-none-eabi/lib/armv7-m/libg.a(lib_a-printf.o)
_wcrtomb_r                                        /usr/lib/gcc/arm-none-eabi/4.8.2/../../../arm-none-eabi/lib/armv7-m/libg.a(lib_a-wcrtomb.o)
                                                  /usr/lib/gcc/arm-none-eabi/4.8.2/../../../arm-none-eabi/lib/armv7-m/libg.a(lib_a-fputwc.o)
_wctomb_r                                         /usr/lib/gcc/arm-none-eabi/4.8.2/../../../arm-none-eabi/lib/armv7-m/libg.a(lib_a-wctomb_r.o)
_write                                            /tmp/cczzK2f9.o
                                                  /usr/lib/gcc/arm-none-eabi/4.8.2/../../../arm-none-eabi/lib/armv7-m/libg.a(lib_a-writer.o)
_write_r                                          /usr/lib/gcc/arm-none-eabi/4.8.2/../../../arm-none-eabi/lib/armv7-m/libg.a(lib_a-writer.o)
                                                  /usr/lib/gcc/arm-none-eabi/4.8.2/../../../arm-none-eabi/lib/armv7-m/libg.a(lib_a-stdio.o)
cleanup_glue                                      /usr/lib/gcc/arm-none-eabi/4.8.2/../../../arm-none-eabi/lib/armv7-m/libg.a(lib_a-reent.o)
console_init                                      /tmp/ccDAaAUy.o
                                                  /tmp/ccwvsJNY.o
console_send_block                                /tmp/ccDAaAUy.o
                                                  /tmp/cczzK2f9.o
enet_get_link_status                              /tmp/cc7LKoKJ.o
enet_init                                         /tmp/cc7LKoKJ.o
                                                  /tmp/ccwvsJNY.o
enet_process_rx_ring                              /tmp/cc7LKoKJ.o
                                                  /tmp/ccwvsJNY.o
enet_read_phy_reg                                 /tmp/cc7LKoKJ.o
enet_send_udp_mcast                               /tmp/cc7LKoKJ.o
                                                  /tmp/ccwvsJNY.o
enet_send_udp_ucast                               /tmp/cc7LKoKJ.o
enet_write_phy_reg                                /tmp/cc7LKoKJ.o
errno                                             /usr/lib/gcc/arm-none-eabi/4.8.2/../../../arm-none-eabi/lib/armv7-m/libg.a(lib_a-reent.o)
                                                  /usr/lib/gcc/arm-none-eabi/4.8.2/../../../arm-none-eabi/lib/armv7-m/libg.a(lib_a-readr.o)
                                                  /usr/lib/gcc/arm-none-eabi/4.8.2/../../../arm-none-eabi/lib/armv7-m/libg.a(lib_a-lseekr.o)
                                                  /usr/lib/gcc/arm-none-eabi/4.8.2/../../../arm-none-eabi/lib/armv7-m/libg.a(lib_a-isattyr.o)
                                                  /usr/lib/gcc/arm-none-eabi/4.8.2/../../../arm-none-eabi/lib/armv7-m/libg.a(lib_a-fstatr.o)
                                                  /usr/lib/gcc/arm-none-eabi/4.8.2/../../../arm-none-eabi/lib/armv7-m/libg.a(lib_a-closer.o)
                                                  /usr/lib/gcc/arm-none-eabi/4.8.2/../../../arm-none-eabi/lib/armv7-m/libg.a(lib_a-writer.o)
                                                  /usr/lib/gcc/arm-none-eabi/4.8.2/../../../arm-none-eabi/lib/armv7-m/libg.a(lib_a-sbrkr.o)
eth_htonl                                         /tmp/cc7LKoKJ.o
eth_htons                                         /tmp/cc7LKoKJ.o
fclose                                            /usr/lib/gcc/arm-none-eabi/4.8.2/../../../arm-none-eabi/lib/armv7-m/libg.a(lib_a-fclose.o)
                                                  /usr/lib/gcc/arm-none-eabi/4.8.2/../../../arm-none-eabi/lib/armv7-m/libg.a(lib_a-findfp.o)
fflush                                            /usr/lib/gcc/arm-none-eabi/4.8.2/../../../arm-none-eabi/lib/armv7-m/libg.a(lib_a-fflush.o)
fputc                                             /tmp/cczzK2f9.o
fputwc                                            /usr/lib/gcc/arm-none-eabi/4.8.2/../../../arm-none-eabi/lib/armv7-m/libg.a(lib_a-fputwc.o)
g_pfnVectors                                      /tmp/ccy457S0.o
led2_task                                         /tmp/ccwvsJNY.o
led_flash_task                                    /tmp/ccwvsJNY.o
localeconv                                        /usr/lib/gcc/arm-none-eabi/4.8.2/../../../arm-none-eabi/lib/armv7-m/libg.a(lib_a-locale.o)
main                                              /tmp/ccwvsJNY.o
                                                  /tmp/ccy457S0.o
memchr                                            /usr/lib/gcc/arm-none-eabi/4.8.2/../../../arm-none-eabi/lib/armv7-m/libg.a(lib_a-memchr-stub.o)
                                                  /usr/lib/gcc/arm-none-eabi/4.8.2/../../../arm-none-eabi/lib/armv7-m/libg.a(lib_a-vfiprintf.o)
                                                  /usr/lib/gcc/arm-none-eabi/4.8.2/../../../arm-none-eabi/lib/armv7-m/libg.a(lib_a-fvwrite.o)
                                                  /usr/lib/gcc/arm-none-eabi/4.8.2/../../../arm-none-eabi/lib/armv7-m/libg.a(lib_a-vfprintf.o)
memcpy                                            /usr/lib/gcc/arm-none-eabi/4.8.2/../../../arm-none-eabi/lib/armv7-m/libg.a(lib_a-memcpy.o)
                                                  /usr/lib/gcc/arm-none-eabi/4.8.2/../../../arm-none-eabi/lib/armv7-m/libg.a(lib_a-mprec.o)
                                                  /usr/lib/gcc/arm-none-eabi/4.8.2/../../../arm-none-eabi/lib/armv7-m/libg.a(lib_a-fvwrite.o)
                                                  /usr/lib/gcc/arm-none-eabi/4.8.2/../../../arm-none-eabi/lib/armv7-m/libg.a(lib_a-dtoa.o)
                                                  /tmp/cc7LKoKJ.o
                                                  /tmp/ccfsXes7.o
memmove                                           /usr/lib/gcc/arm-none-eabi/4.8.2/../../../arm-none-eabi/lib/armv7-m/libg.a(lib_a-memmove.o)
                                                  /usr/lib/gcc/arm-none-eabi/4.8.2/../../../arm-none-eabi/lib/armv7-m/libg.a(lib_a-reallocr.o)
                                                  /usr/lib/gcc/arm-none-eabi/4.8.2/../../../arm-none-eabi/lib/armv7-m/libg.a(lib_a-fvwrite.o)
memset                                            /usr/lib/gcc/arm-none-eabi/4.8.2/../../../arm-none-eabi/lib/armv7-m/libg.a(lib_a-memset.o)
                                                  /usr/lib/gcc/arm-none-eabi/4.8.2/../../../arm-none-eabi/lib/armv7-m/libg.a(lib_a-callocr.o)
                                                  /usr/lib/gcc/arm-none-eabi/4.8.2/../../../arm-none-eabi/lib/armv7-m/libg.a(lib_a-findfp.o)
                                                  /tmp/ccwvsJNY.o
                                                  /tmp/ccwLsclw.o
myTraceCreate                                     /tmp/ccwvsJNY.o
                                                  /tmp/ccwLsclw.o
myTraceSwitchedIn                                 /tmp/ccwvsJNY.o
                                                  /tmp/ccwLsclw.o
myTraceSwitchedOut                                /tmp/ccwvsJNY.o
                                                  /tmp/ccwLsclw.o
networking_receive                                /tmp/ccwvsJNY.o
networking_send                                   /tmp/ccwvsJNY.o
printf                                            /usr/lib/gcc/arm-none-eabi/4.8.2/../../../arm-none-eabi/lib/armv7-m/libg.a(lib_a-printf.o)
                                                  /tmp/cc7LKoKJ.o
puts                                              /usr/lib/gcc/arm-none-eabi/4.8.2/../../../arm-none-eabi/lib/armv7-m/libg.a(lib_a-puts.o)
                                                  /tmp/ccwvsJNY.o
                                                  /tmp/cc7LKoKJ.o
pvPortMalloc                                      /tmp/ccQtMXok.o
                                                  /tmp/ccwLsclw.o
                                                  /tmp/ccfsXes7.o
                                                  /tmp/ccBXF9fk.o
pxCurrentCoRoutine                                /tmp/ccBXF9fk.o
pxCurrentTCB                                      /tmp/ccwLsclw.o
                                                  /tmp/ccmixTjV.o
pxPortInitialiseStack                             /tmp/ccmixTjV.o
                                                  /tmp/ccwLsclw.o
setlocale                                         /usr/lib/gcc/arm-none-eabi/4.8.2/../../../arm-none-eabi/lib/armv7-m/libg.a(lib_a-locale.o)
strcmp                                            /usr/lib/gcc/arm-none-eabi/4.8.2/../../../arm-none-eabi/lib/armv7-m/libg.a(lib_a-strcmp.o)
                                                  /usr/lib/gcc/arm-none-eabi/4.8.2/../../../arm-none-eabi/lib/armv7-m/libg.a(lib_a-locale.o)
strlen                                            /usr/lib/gcc/arm-none-eabi/4.8.2/../../../arm-none-eabi/lib/armv7-m/libg.a(lib_a-strlen.o)
                                                  /usr/lib/gcc/arm-none-eabi/4.8.2/../../../arm-none-eabi/lib/armv7-m/libg.a(lib_a-vfiprintf.o)
                                                  /usr/lib/gcc/arm-none-eabi/4.8.2/../../../arm-none-eabi/lib/armv7-m/libg.a(lib_a-vfprintf.o)
                                                  /usr/lib/gcc/arm-none-eabi/4.8.2/../../../arm-none-eabi/lib/armv7-m/libg.a(lib_a-puts.o)
strncpy                                           /usr/lib/gcc/arm-none-eabi/4.8.2/../../../arm-none-eabi/lib/armv7-m/libg.a(lib_a-strncpy.o)
                                                  /tmp/ccwLsclw.o
ulKernelPriority                                  /tmp/ccmixTjV.o
uxQueueMessagesWaiting                            /tmp/ccfsXes7.o
uxQueueMessagesWaitingFromISR                     /tmp/ccfsXes7.o
uxTaskGetNumberOfTasks                            /tmp/ccwLsclw.o
uxTaskPriorityGet                                 /tmp/ccwLsclw.o
vApplicationTickHook                              /tmp/ccwvsJNY.o
                                                  /tmp/ccwLsclw.o
vCoRoutineAddToDelayedList                        /tmp/ccBXF9fk.o
vCoRoutineSchedule                                /tmp/ccBXF9fk.o
vListInitialise                                   /tmp/ccWTSJMI.o
                                                  /tmp/ccwLsclw.o
                                                  /tmp/ccfsXes7.o
                                                  /tmp/ccBXF9fk.o
vListInitialiseItem                               /tmp/ccWTSJMI.o
                                                  /tmp/ccwLsclw.o
                                                  /tmp/ccBXF9fk.o
vListInsert                                       /tmp/ccWTSJMI.o
                                                  /tmp/ccwLsclw.o
                                                  /tmp/ccBXF9fk.o
vListInsertEnd                                    /tmp/ccWTSJMI.o
                                                  /tmp/ccwLsclw.o
                                                  /tmp/ccBXF9fk.o
vListRemove                                       /tmp/ccWTSJMI.o
                                                  /tmp/ccwLsclw.o
                                                  /tmp/ccBXF9fk.o
vPortEndScheduler                                 /tmp/ccmixTjV.o
                                                  /tmp/ccwLsclw.o
vPortEnterCritical                                /tmp/ccmixTjV.o
                                                  /tmp/ccwLsclw.o
                                                  /tmp/ccfsXes7.o
vPortExitCritical                                 /tmp/ccmixTjV.o
                                                  /tmp/ccwLsclw.o
                                                  /tmp/ccfsXes7.o
vPortFree                                         /tmp/ccQtMXok.o
                                                  /tmp/ccwLsclw.o
                                                  /tmp/ccfsXes7.o
vPortInitialiseBlocks                             /tmp/ccQtMXok.o
vPortYieldFromISR                                 /tmp/ccmixTjV.o
                                                  /tmp/ccwLsclw.o
                                                  /tmp/ccfsXes7.o
vQueueDelete                                      /tmp/ccfsXes7.o
vTaskDelay                                        /tmp/ccwLsclw.o
                                                  /tmp/ccwvsJNY.o
vTaskDelayUntil                                   /tmp/ccwLsclw.o
vTaskDelete                                       /tmp/ccwLsclw.o
vTaskEndScheduler                                 /tmp/ccwLsclw.o
vTaskIncrementTick                                /tmp/ccwLsclw.o
                                                  /tmp/ccmixTjV.o
vTaskMissedYield                                  /tmp/ccwLsclw.o
                                                  /tmp/ccfsXes7.o
vTaskPlaceOnEventList                             /tmp/ccwLsclw.o
                                                  /tmp/ccfsXes7.o
vTaskPriorityDisinherit                           /tmp/ccwLsclw.o
                                                  /tmp/ccfsXes7.o
vTaskPriorityInherit                              /tmp/ccwLsclw.o
                                                  /tmp/ccfsXes7.o
vTaskPrioritySet                                  /tmp/ccwLsclw.o
vTaskResume                                       /tmp/ccwLsclw.o
vTaskSetTimeOutState                              /tmp/ccwLsclw.o
                                                  /tmp/ccfsXes7.o
vTaskStartScheduler                               /tmp/ccwLsclw.o
                                                  /tmp/ccwvsJNY.o
vTaskSuspend                                      /tmp/ccwLsclw.o
vTaskSuspendAll                                   /tmp/ccwLsclw.o
                                                  /tmp/ccQtMXok.o
                                                  /tmp/ccfsXes7.o
vTaskSwitchContext                                /tmp/ccwLsclw.o
                                                  /tmp/ccmixTjV.o
vfiprintf                                         /usr/lib/gcc/arm-none-eabi/4.8.2/../../../arm-none-eabi/lib/armv7-m/libg.a(lib_a-vfiprintf.o)
vfprintf                                          /usr/lib/gcc/arm-none-eabi/4.8.2/../../../arm-none-eabi/lib/armv7-m/libg.a(lib_a-vfprintf.o)
wcrtomb                                           /usr/lib/gcc/arm-none-eabi/4.8.2/../../../arm-none-eabi/lib/armv7-m/libg.a(lib_a-wcrtomb.o)
xCoRoutineCreate                                  /tmp/ccBXF9fk.o
xCoRoutineRemoveFromEventList                     /tmp/ccBXF9fk.o
xPortGetFreeHeapSize                              /tmp/ccQtMXok.o
xPortStartScheduler                               /tmp/ccmixTjV.o
                                                  /tmp/ccwLsclw.o
xQueueCreateMutex                                 /tmp/ccfsXes7.o
xQueueGenericCreate                               /tmp/ccfsXes7.o
xQueueGenericReceive                              /tmp/ccfsXes7.o
xQueueGenericReset                                /tmp/ccfsXes7.o
xQueueGenericSend                                 /tmp/ccfsXes7.o
xQueueGenericSendFromISR                          /tmp/ccfsXes7.o
xQueueGetMutexHolder                              /tmp/ccfsXes7.o
xQueueIsQueueEmptyFromISR                         /tmp/ccfsXes7.o
xQueueIsQueueFullFromISR                          /tmp/ccfsXes7.o
xQueueReceiveFromISR                              /tmp/ccfsXes7.o
xTaskCheckForTimeOut                              /tmp/ccwLsclw.o
                                                  /tmp/ccfsXes7.o
xTaskGenericCreate                                /tmp/ccwLsclw.o
                                                  /tmp/ccwvsJNY.o
xTaskGetCurrentTaskHandle                         /tmp/ccwLsclw.o
                                                  /tmp/ccfsXes7.o
xTaskGetTickCount                                 /tmp/ccwLsclw.o
                                                  /tmp/ccBXF9fk.o
xTaskGetTickCountFromISR                          /tmp/ccwLsclw.o
xTaskIsTaskSuspended                              /tmp/ccwLsclw.o
xTaskRemoveFromEventList                          /tmp/ccwLsclw.o
                                                  /tmp/ccfsXes7.o
xTaskResumeAll                                    /tmp/ccwLsclw.o
                                                  /tmp/ccQtMXok.o
                                                  /tmp/ccfsXes7.o
xTaskResumeFromISR                                /tmp/ccwLsclw.o
